
libbpf.o:	file format elf64-littleaarch64

Disassembly of section .text:

0000000000000000 <__btf_kind_str>:
       0: 00 3c 00 12  	and	w0, w0, #0xffff
       4: 1f 40 00 71  	cmp	w0, #16
       8: 89 00 00 54  	b.ls	0x18 <__btf_kind_str+0x18>
       c: 00 00 00 90  	adrp	x0, 0x0 <__btf_kind_str+0xc>
      10: 00 00 00 91  	add	x0, x0, #0
      14: c0 03 5f d6  	ret
      18: 01 00 00 90  	adrp	x1, 0x0 <__btf_kind_str+0x18>
      1c: 21 00 00 91  	add	x1, x1, #0
      20: 21 48 60 38  	ldrb	w1, [x1, w0, uxtw]
      24: 60 00 00 10  	adr	x0, #12
      28: 01 88 21 8b  	add	x1, x0, w1, sxtb #2
      2c: 20 00 1f d6  	br	x1
      30: 00 00 00 90  	adrp	x0, 0x0 <__btf_kind_str+0x30>
      34: 00 00 00 91  	add	x0, x0, #0
      38: c0 03 5f d6  	ret
      3c: 00 00 00 90  	adrp	x0, 0x0 <__btf_kind_str+0x3c>
      40: 00 00 00 91  	add	x0, x0, #0
      44: c0 03 5f d6  	ret
      48: 00 00 00 90  	adrp	x0, 0x0 <__btf_kind_str+0x48>
      4c: 00 00 00 91  	add	x0, x0, #0
      50: c0 03 5f d6  	ret
      54: 00 00 00 90  	adrp	x0, 0x0 <__btf_kind_str+0x54>
      58: 00 00 00 91  	add	x0, x0, #0
      5c: c0 03 5f d6  	ret
      60: 00 00 00 90  	adrp	x0, 0x0 <__btf_kind_str+0x60>
      64: 00 00 00 91  	add	x0, x0, #0
      68: c0 03 5f d6  	ret
      6c: 00 00 00 90  	adrp	x0, 0x0 <__btf_kind_str+0x6c>
      70: 00 00 00 91  	add	x0, x0, #0
      74: c0 03 5f d6  	ret
      78: 00 00 00 90  	adrp	x0, 0x0 <__btf_kind_str+0x78>
      7c: 00 00 00 91  	add	x0, x0, #0
      80: c0 03 5f d6  	ret
      84: 00 00 00 90  	adrp	x0, 0x0 <__btf_kind_str+0x84>
      88: 00 00 00 91  	add	x0, x0, #0
      8c: c0 03 5f d6  	ret
      90: 00 00 00 90  	adrp	x0, 0x0 <__btf_kind_str+0x90>
      94: 00 00 00 91  	add	x0, x0, #0
      98: c0 03 5f d6  	ret
      9c: 00 00 00 90  	adrp	x0, 0x0 <__btf_kind_str+0x9c>
      a0: 00 00 00 91  	add	x0, x0, #0
      a4: c0 03 5f d6  	ret
      a8: 00 00 00 90  	adrp	x0, 0x0 <__btf_kind_str+0xa8>
      ac: 00 00 00 91  	add	x0, x0, #0
      b0: c0 03 5f d6  	ret
      b4: 00 00 00 90  	adrp	x0, 0x0 <__btf_kind_str+0xb4>
      b8: 00 00 00 91  	add	x0, x0, #0
      bc: c0 03 5f d6  	ret
      c0: 00 00 00 90  	adrp	x0, 0x0 <__btf_kind_str+0xc0>
      c4: 00 00 00 91  	add	x0, x0, #0
      c8: c0 03 5f d6  	ret
      cc: 00 00 00 90  	adrp	x0, 0x0 <__btf_kind_str+0xcc>
      d0: 00 00 00 91  	add	x0, x0, #0
      d4: c0 03 5f d6  	ret
      d8: 00 00 00 90  	adrp	x0, 0x0 <__btf_kind_str+0xd8>
      dc: 00 00 00 91  	add	x0, x0, #0
      e0: c0 03 5f d6  	ret
      e4: 00 00 00 90  	adrp	x0, 0x0 <__btf_kind_str+0xe4>
      e8: 00 00 00 91  	add	x0, x0, #0
      ec: c0 03 5f d6  	ret
      f0: 00 00 00 90  	adrp	x0, 0x0 <__btf_kind_str+0xf0>
      f4: 00 00 00 91  	add	x0, x0, #0
      f8: c0 03 5f d6  	ret
      fc: 1f 20 03 d5  	nop

0000000000000100 <cmp_progs>:
     100: 03 08 40 f9  	ldr	x3, [x0, #16]
     104: 22 08 40 f9  	ldr	x2, [x1, #16]
     108: 7f 00 02 eb  	cmp	x3, x2
     10c: 80 00 00 54  	b.eq	0x11c <cmp_progs+0x1c>
     110: 00 00 80 12  	mov	w0, #-1
     114: 00 34 9f 1a  	csinc	w0, w0, wzr, lo
     118: c0 03 5f d6  	ret
     11c: 02 0c 40 f9  	ldr	x2, [x0, #24]
     120: 00 00 80 12  	mov	w0, #-1
     124: 21 0c 40 f9  	ldr	x1, [x1, #24]
     128: 5f 00 01 eb  	cmp	x2, x1
     12c: 00 34 80 5a  	cneg	w0, w0, hs
     130: c0 03 5f d6  	ret

0000000000000134 <find_prog_by_sec_insn>:
     134: 05 30 40 f9  	ldr	x5, [x0, #96]
     138: 00 2c 40 f9  	ldr	x0, [x0, #88]
     13c: a5 04 00 51  	sub	w5, w5, #1
     140: bf 00 00 71  	cmp	w5, #0
     144: 0d 02 00 54  	b.le	0x184 <find_prog_by_sec_insn+0x50>
     148: 04 00 80 52  	mov	w4, #0
     14c: 08 1b 80 52  	mov	w8, #216
     150: a3 00 04 4b  	sub	w3, w5, w4
     154: 63 04 00 11  	add	w3, w3, #1
     158: 83 04 83 0b  	add	w3, w4, w3, asr #1
     15c: 66 00 28 9b  	smaddl	x6, w3, w8, x0
     160: c7 08 40 f9  	ldr	x7, [x6, #16]
     164: ff 00 01 eb  	cmp	x7, x1
     168: c3 02 00 54  	b.lo	0x1c0 <find_prog_by_sec_insn+0x8c>
     16c: 20 02 00 54  	b.eq	0x1b0 <find_prog_by_sec_insn+0x7c>
     170: 65 04 00 51  	sub	w5, w3, #1
     174: bf 00 04 6b  	cmp	w5, w4
     178: cc fe ff 54  	b.gt	0x150 <find_prog_by_sec_insn+0x1c>
     17c: 03 1b 80 52  	mov	w3, #216
     180: 80 00 23 9b  	smaddl	x0, w4, w3, x0
     184: 03 08 40 f9  	ldr	x3, [x0, #16]
     188: 7f 00 01 eb  	cmp	x3, x1
     18c: e1 01 00 54  	b.ne	0x1c8 <find_prog_by_sec_insn+0x94>
     190: 01 0c 40 f9  	ldr	x1, [x0, #24]
     194: 5f 00 01 eb  	cmp	x2, x1
     198: 83 01 00 54  	b.lo	0x1c8 <find_prog_by_sec_insn+0x94>
     19c: 03 10 40 f9  	ldr	x3, [x0, #32]
     1a0: 21 00 03 8b  	add	x1, x1, x3
     1a4: 5f 00 01 eb  	cmp	x2, x1
     1a8: 00 30 9f 9a  	csel	x0, x0, xzr, lo
     1ac: c0 03 5f d6  	ret
     1b0: c6 0c 40 f9  	ldr	x6, [x6, #24]
     1b4: df 00 02 eb  	cmp	x6, x2
     1b8: c8 fd ff 54  	b.hi	0x170 <find_prog_by_sec_insn+0x3c>
     1bc: 1f 20 03 d5  	nop
     1c0: e4 03 03 2a  	mov	w4, w3
     1c4: ec ff ff 17  	b	0x174 <find_prog_by_sec_insn+0x40>
     1c8: 00 00 80 d2  	mov	x0, #0
     1cc: c0 03 5f d6  	ret

00000000000001d0 <bpf_core_hash_fn>:
     1d0: c0 03 5f d6  	ret

00000000000001d4 <bpf_core_equal_fn>:
     1d4: 3f 00 00 eb  	cmp	x1, x0
     1d8: e0 17 9f 1a  	cset	w0, eq
     1dc: c0 03 5f d6  	ret

00000000000001e0 <__base_pr>:
     1e0: 1f 08 00 71  	cmp	w0, #2
     1e4: 00 02 00 54  	b.eq	0x224 <__base_pr+0x44>
     1e8: fd 7b bb a9  	stp	x29, x30, [sp, #-80]!
     1ec: 00 00 00 90  	adrp	x0, 0x0 <__base_pr+0xc>
     1f0: e4 03 02 aa  	mov	x4, x2
     1f4: fd 03 00 91  	mov	x29, sp
     1f8: 00 00 40 f9  	ldr	x0, [x0]
     1fc: e3 43 00 91  	add	x3, sp, #16
     200: 80 04 40 ad  	ldp	q0, q1, [x4]
     204: e2 03 01 aa  	mov	x2, x1
     208: 00 00 40 f9  	ldr	x0, [x0]
     20c: 21 00 80 52  	mov	w1, #1
     210: e0 87 01 ad  	stp	q0, q1, [sp, #48]
     214: 60 04 00 ad  	stp	q0, q1, [x3]
     218: 00 00 00 94  	bl	0x218 <__base_pr+0x38>
     21c: fd 7b c5 a8  	ldp	x29, x30, [sp], #80
     220: c0 03 5f d6  	ret
     224: 00 00 80 52  	mov	w0, #0
     228: c0 03 5f d6  	ret
     22c: 1f 20 03 d5  	nop

0000000000000230 <libbpf_err_ptr>:
     230: fd 7b be a9  	stp	x29, x30, [sp, #-32]!
     234: fd 03 00 91  	mov	x29, sp
     238: f3 0b 00 f9  	str	x19, [sp, #16]
     23c: 13 7c 40 93  	sxtw	x19, w0
     240: 00 00 00 94  	bl	0x240 <libbpf_err_ptr+0x10>
     244: e2 03 13 4b  	neg	w2, w19
     248: 01 00 00 90  	adrp	x1, 0x0 <libbpf_err_ptr+0x18>
     24c: 02 00 00 b9  	str	w2, [x0]
     250: 20 00 40 b9  	ldr	w0, [x1]
     254: 1f 00 40 f2  	tst	x0, #0x1
     258: 60 02 9f 9a  	csel	x0, x19, xzr, eq
     25c: f3 0b 40 f9  	ldr	x19, [sp, #16]
     260: fd 7b c2 a8  	ldp	x29, x30, [sp], #32
     264: c0 03 5f d6  	ret
     268: 1f 20 03 d5  	nop
     26c: 1f 20 03 d5  	nop

0000000000000270 <bpf_link_perf_dealloc>:
     270: 00 00 00 14  	b	0x270 <bpf_link_perf_dealloc>

0000000000000274 <cmp_externs>:
     274: 02 00 40 b9  	ldr	w2, [x0]
     278: 23 00 40 b9  	ldr	w3, [x1]
     27c: 5f 00 03 6b  	cmp	w2, w3
     280: 80 00 00 54  	b.eq	0x290 <cmp_externs+0x1c>
     284: 00 00 80 12  	mov	w0, #-1
     288: 00 34 9f 1a  	csinc	w0, w0, wzr, lo
     28c: c0 03 5f d6  	ret
     290: 5f 04 00 71  	cmp	w2, #1
     294: 80 00 00 54  	b.eq	0x2a4 <cmp_externs+0x30>
     298: 00 08 40 f9  	ldr	x0, [x0, #16]
     29c: 21 08 40 f9  	ldr	x1, [x1, #16]
     2a0: 00 00 00 14  	b	0x2a0 <cmp_externs+0x2c>
     2a4: 04 28 40 b9  	ldr	w4, [x0, #40]
     2a8: 23 28 40 b9  	ldr	w3, [x1, #40]
     2ac: 9f 00 03 6b  	cmp	w4, w3
     2b0: 60 00 00 54  	b.eq	0x2bc <cmp_externs+0x48>
     2b4: 40 d0 9f 5a  	csinv	w0, w2, wzr, le
     2b8: c0 03 5f d6  	ret
     2bc: 04 24 40 b9  	ldr	w4, [x0, #36]
     2c0: 23 24 40 b9  	ldr	w3, [x1, #36]
     2c4: 9f 00 03 6b  	cmp	w4, w3
     2c8: 80 fe ff 54  	b.eq	0x298 <cmp_externs+0x24>
     2cc: 40 a0 9f 5a  	csinv	w0, w2, wzr, ge
     2d0: c0 03 5f d6  	ret

00000000000002d4 <probe_kern_btf_float>:
     2d4: fd 7b bc a9  	stp	x29, x30, [sp, #-64]!
     2d8: 01 00 00 90  	adrp	x1, 0x0 <probe_kern_btf_float+0x4>
     2dc: 04 00 00 90  	adrp	x4, 0x0 <probe_kern_btf_float+0x8>
     2e0: fd 03 00 91  	mov	x29, sp
     2e4: 21 00 40 f9  	ldr	x1, [x1]
     2e8: 83 00 00 91  	add	x3, x4, #0
     2ec: f3 0b 00 f9  	str	x19, [sp, #16]
     2f0: e0 a3 00 91  	add	x0, sp, #40
     2f4: 85 00 40 f9  	ldr	x5, [x4]
     2f8: 24 00 40 f9  	ldr	x4, [x1]
     2fc: e4 1f 00 f9  	str	x4, [sp, #56]
     300: 04 00 80 d2  	mov	x4, #0
     304: 64 08 40 b9  	ldr	w4, [x3, #8]
     308: 62 40 00 91  	add	x2, x3, #16
     30c: 81 01 80 d2  	mov	x1, #12
     310: e3 00 80 d2  	mov	x3, #7
     314: 04 08 00 b9  	str	w4, [x0, #8]
     318: e5 17 00 f9  	str	x5, [sp, #40]
     31c: 00 00 00 94  	bl	0x31c <probe_kern_btf_float+0x48>
     320: f3 03 00 2a  	mov	w19, w0
     324: 40 00 f8 37  	tbnz	w0, #31, 0x32c <probe_kern_btf_float+0x58>
     328: 00 00 00 94  	bl	0x328 <probe_kern_btf_float+0x54>
     32c: 01 00 00 90  	adrp	x1, 0x0 <probe_kern_btf_float+0x58>
     330: f3 03 33 2a  	mvn	w19, w19
     334: 21 00 40 f9  	ldr	x1, [x1]
     338: 60 7e 1f 53  	lsr	w0, w19, #31
     33c: e3 1f 40 f9  	ldr	x3, [sp, #56]
     340: 22 00 40 f9  	ldr	x2, [x1]
     344: 63 00 02 eb  	subs	x3, x3, x2
     348: 02 00 80 d2  	mov	x2, #0
     34c: 81 00 00 54  	b.ne	0x35c <probe_kern_btf_float+0x88>
     350: f3 0b 40 f9  	ldr	x19, [sp, #16]
     354: fd 7b c4 a8  	ldp	x29, x30, [sp], #64
     358: c0 03 5f d6  	ret
     35c: 00 00 00 94  	bl	0x35c <probe_kern_btf_float+0x88>

0000000000000360 <probe_kern_btf_func_global>:
     360: fd 7b ba a9  	stp	x29, x30, [sp, #-96]!
     364: 02 00 00 90  	adrp	x2, 0x0 <probe_kern_btf_func_global+0x4>
     368: 03 00 00 90  	adrp	x3, 0x0 <probe_kern_btf_func_global+0x8>
     36c: 42 00 00 91  	add	x2, x2, #0
     370: fd 03 00 91  	mov	x29, sp
     374: 41 60 00 91  	add	x1, x2, #24
     378: 63 00 40 f9  	ldr	x3, [x3]
     37c: f3 0b 00 f9  	str	x19, [sp, #16]
     380: 21 08 40 ad  	ldp	q1, q2, [x1]
     384: 64 00 40 f9  	ldr	x4, [x3]
     388: e4 2f 00 f9  	str	x4, [sp, #88]
     38c: 04 00 80 d2  	mov	x4, #0
     390: 20 08 c0 3d  	ldr	q0, [x1, #32]
     394: e0 a3 00 91  	add	x0, sp, #40
     398: 42 20 01 91  	add	x2, x2, #72
     39c: 01 06 80 d2  	mov	x1, #48
     3a0: 23 01 80 d2  	mov	x3, #9
     3a4: 01 08 00 ad  	stp	q1, q2, [x0]
     3a8: 00 08 80 3d  	str	q0, [x0, #32]
     3ac: 00 00 00 94  	bl	0x3ac <probe_kern_btf_func_global+0x4c>
     3b0: f3 03 00 2a  	mov	w19, w0
     3b4: 40 00 f8 37  	tbnz	w0, #31, 0x3bc <probe_kern_btf_func_global+0x5c>
     3b8: 00 00 00 94  	bl	0x3b8 <probe_kern_btf_func_global+0x58>
     3bc: 01 00 00 90  	adrp	x1, 0x0 <probe_kern_btf_func_global+0x5c>
     3c0: f3 03 33 2a  	mvn	w19, w19
     3c4: 21 00 40 f9  	ldr	x1, [x1]
     3c8: 60 7e 1f 53  	lsr	w0, w19, #31
     3cc: e3 2f 40 f9  	ldr	x3, [sp, #88]
     3d0: 22 00 40 f9  	ldr	x2, [x1]
     3d4: 63 00 02 eb  	subs	x3, x3, x2
     3d8: 02 00 80 d2  	mov	x2, #0
     3dc: 81 00 00 54  	b.ne	0x3ec <probe_kern_btf_func_global+0x8c>
     3e0: f3 0b 40 f9  	ldr	x19, [sp, #16]
     3e4: fd 7b c6 a8  	ldp	x29, x30, [sp], #96
     3e8: c0 03 5f d6  	ret
     3ec: 00 00 00 94  	bl	0x3ec <probe_kern_btf_func_global+0x8c>

00000000000003f0 <probe_kern_btf_datasec>:
     3f0: fd 7b ba a9  	stp	x29, x30, [sp, #-96]!
     3f4: 03 00 00 90  	adrp	x3, 0x0 <probe_kern_btf_datasec+0x4>
     3f8: 02 00 00 90  	adrp	x2, 0x0 <probe_kern_btf_datasec+0x8>
     3fc: fd 03 00 91  	mov	x29, sp
     400: 42 00 00 91  	add	x2, x2, #0
     404: 63 00 40 f9  	ldr	x3, [x3]
     408: 41 60 01 91  	add	x1, x2, #88
     40c: f3 0b 00 f9  	str	x19, [sp, #16]
     410: e0 83 00 91  	add	x0, sp, #32
     414: 20 08 c0 3d  	ldr	q0, [x1, #32]
     418: 64 00 40 f9  	ldr	x4, [x3]
     41c: e4 2f 00 f9  	str	x4, [sp, #88]
     420: 04 00 80 d2  	mov	x4, #0
     424: 21 08 40 ad  	ldp	q1, q2, [x1]
     428: 42 40 02 91  	add	x2, x2, #144
     42c: 24 18 40 f9  	ldr	x4, [x1, #48]
     430: 23 01 80 d2  	mov	x3, #9
     434: 01 07 80 d2  	mov	x1, #56
     438: 01 08 00 ad  	stp	q1, q2, [x0]
     43c: 00 08 80 3d  	str	q0, [x0, #32]
     440: 04 18 00 f9  	str	x4, [x0, #48]
     444: 00 00 00 94  	bl	0x444 <probe_kern_btf_datasec+0x54>
     448: f3 03 00 2a  	mov	w19, w0
     44c: 40 00 f8 37  	tbnz	w0, #31, 0x454 <probe_kern_btf_datasec+0x64>
     450: 00 00 00 94  	bl	0x450 <probe_kern_btf_datasec+0x60>
     454: 01 00 00 90  	adrp	x1, 0x0 <probe_kern_btf_datasec+0x64>
     458: f3 03 33 2a  	mvn	w19, w19
     45c: 21 00 40 f9  	ldr	x1, [x1]
     460: 60 7e 1f 53  	lsr	w0, w19, #31
     464: e3 2f 40 f9  	ldr	x3, [sp, #88]
     468: 22 00 40 f9  	ldr	x2, [x1]
     46c: 63 00 02 eb  	subs	x3, x3, x2
     470: 02 00 80 d2  	mov	x2, #0
     474: 81 00 00 54  	b.ne	0x484 <probe_kern_btf_datasec+0x94>
     478: f3 0b 40 f9  	ldr	x19, [sp, #16]
     47c: fd 7b c6 a8  	ldp	x29, x30, [sp], #96
     480: c0 03 5f d6  	ret
     484: 00 00 00 94  	bl	0x484 <probe_kern_btf_datasec+0x94>
     488: 1f 20 03 d5  	nop
     48c: 1f 20 03 d5  	nop

0000000000000490 <probe_kern_btf_func>:
     490: fd 7b ba a9  	stp	x29, x30, [sp, #-96]!
     494: 02 00 00 90  	adrp	x2, 0x0 <probe_kern_btf_func+0x4>
     498: 03 00 00 90  	adrp	x3, 0x0 <probe_kern_btf_func+0x8>
     49c: 42 00 00 91  	add	x2, x2, #0
     4a0: fd 03 00 91  	mov	x29, sp
     4a4: 41 80 02 91  	add	x1, x2, #160
     4a8: 63 00 40 f9  	ldr	x3, [x3]
     4ac: f3 0b 00 f9  	str	x19, [sp, #16]
     4b0: 21 08 40 ad  	ldp	q1, q2, [x1]
     4b4: 64 00 40 f9  	ldr	x4, [x3]
     4b8: e4 2f 00 f9  	str	x4, [sp, #88]
     4bc: 04 00 80 d2  	mov	x4, #0
     4c0: 20 08 c0 3d  	ldr	q0, [x1, #32]
     4c4: e0 a3 00 91  	add	x0, sp, #40
     4c8: 42 40 03 91  	add	x2, x2, #208
     4cc: 01 06 80 d2  	mov	x1, #48
     4d0: 23 01 80 d2  	mov	x3, #9
     4d4: 01 08 00 ad  	stp	q1, q2, [x0]
     4d8: 00 08 80 3d  	str	q0, [x0, #32]
     4dc: 00 00 00 94  	bl	0x4dc <probe_kern_btf_func+0x4c>
     4e0: f3 03 00 2a  	mov	w19, w0
     4e4: 40 00 f8 37  	tbnz	w0, #31, 0x4ec <probe_kern_btf_func+0x5c>
     4e8: 00 00 00 94  	bl	0x4e8 <probe_kern_btf_func+0x58>
     4ec: 01 00 00 90  	adrp	x1, 0x0 <probe_kern_btf_func+0x5c>
     4f0: f3 03 33 2a  	mvn	w19, w19
     4f4: 21 00 40 f9  	ldr	x1, [x1]
     4f8: 60 7e 1f 53  	lsr	w0, w19, #31
     4fc: e3 2f 40 f9  	ldr	x3, [sp, #88]
     500: 22 00 40 f9  	ldr	x2, [x1]
     504: 63 00 02 eb  	subs	x3, x3, x2
     508: 02 00 80 d2  	mov	x2, #0
     50c: 81 00 00 54  	b.ne	0x51c <probe_kern_btf_func+0x8c>
     510: f3 0b 40 f9  	ldr	x19, [sp, #16]
     514: fd 7b c6 a8  	ldp	x29, x30, [sp], #96
     518: c0 03 5f d6  	ret
     51c: 00 00 00 94  	bl	0x51c <probe_kern_btf_func+0x8c>

0000000000000520 <probe_kern_btf>:
     520: fd 7b bc a9  	stp	x29, x30, [sp, #-64]!
     524: 00 00 00 90  	adrp	x0, 0x0 <probe_kern_btf+0x4>
     528: 84 00 80 d2  	mov	x4, #4
     52c: fd 03 00 91  	mov	x29, sp
     530: 00 00 40 f9  	ldr	x0, [x0]
     534: 25 00 80 d2  	mov	x5, #1
     538: 04 04 c0 f2  	movk	x4, #32, lsl #32
     53c: f3 0b 00 f9  	str	x19, [sp, #16]
     540: 05 20 e0 f2  	movk	x5, #256, lsl #48
     544: 04 20 e0 f2  	movk	x4, #256, lsl #48
     548: 01 00 40 f9  	ldr	x1, [x0]
     54c: e1 1f 00 f9  	str	x1, [sp, #56]
     550: 01 00 80 d2  	mov	x1, #0
     554: 02 00 00 90  	adrp	x2, 0x0 <probe_kern_btf+0x34>
     558: 42 00 00 91  	add	x2, x2, #0
     55c: e0 a3 00 91  	add	x0, sp, #40
     560: 42 80 03 91  	add	x2, x2, #224
     564: a3 00 80 d2  	mov	x3, #5
     568: 01 02 80 d2  	mov	x1, #16
     56c: e5 93 02 a9  	stp	x5, x4, [sp, #40]
     570: 00 00 00 94  	bl	0x570 <probe_kern_btf+0x50>
     574: f3 03 00 2a  	mov	w19, w0
     578: 40 00 f8 37  	tbnz	w0, #31, 0x580 <probe_kern_btf+0x60>
     57c: 00 00 00 94  	bl	0x57c <probe_kern_btf+0x5c>
     580: 01 00 00 90  	adrp	x1, 0x0 <probe_kern_btf+0x60>
     584: f3 03 33 2a  	mvn	w19, w19
     588: 21 00 40 f9  	ldr	x1, [x1]
     58c: 60 7e 1f 53  	lsr	w0, w19, #31
     590: e3 1f 40 f9  	ldr	x3, [sp, #56]
     594: 22 00 40 f9  	ldr	x2, [x1]
     598: 63 00 02 eb  	subs	x3, x3, x2
     59c: 02 00 80 d2  	mov	x2, #0
     5a0: 81 00 00 54  	b.ne	0x5b0 <probe_kern_btf+0x90>
     5a4: f3 0b 40 f9  	ldr	x19, [sp, #16]
     5a8: fd 7b c4 a8  	ldp	x29, x30, [sp], #64
     5ac: c0 03 5f d6  	ret
     5b0: 00 00 00 94  	bl	0x5b0 <probe_kern_btf+0x90>

00000000000005b4 <probe_kern_array_mmap>:
     5b4: fd 7b ba a9  	stp	x29, x30, [sp, #-96]!
     5b8: 01 00 00 90  	adrp	x1, 0x0 <probe_kern_array_mmap+0x4>
     5bc: 44 00 80 d2  	mov	x4, #2
     5c0: fd 03 00 91  	mov	x29, sp
     5c4: 21 00 40 f9  	ldr	x1, [x1]
     5c8: f3 0b 00 f9  	str	x19, [sp, #16]
     5cc: 00 04 00 4f  	movi	v0.4s, #0
     5d0: e0 83 00 91  	add	x0, sp, #32
     5d4: 25 00 40 f9  	ldr	x5, [x1]
     5d8: e5 2f 00 f9  	str	x5, [sp, #88]
     5dc: 05 00 80 d2  	mov	x5, #0
     5e0: 04 80 c0 f2  	movk	x4, #1024, lsl #32
     5e4: e3 03 1e b2  	mov	x3, #17179869188
     5e8: 22 00 80 52  	mov	w2, #1
     5ec: 1f 18 00 f9  	str	xzr, [x0, #48]
     5f0: 00 00 00 ad  	stp	q0, q0, [x0]
     5f4: 00 08 80 3d  	str	q0, [x0, #32]
     5f8: e4 8f 02 a9  	stp	x4, x3, [sp, #40]
     5fc: e2 3b 00 b9  	str	w2, [sp, #56]
     600: 00 00 00 94  	bl	0x600 <probe_kern_array_mmap+0x4c>
     604: f3 03 00 2a  	mov	w19, w0
     608: 40 00 f8 37  	tbnz	w0, #31, 0x610 <probe_kern_array_mmap+0x5c>
     60c: 00 00 00 94  	bl	0x60c <probe_kern_array_mmap+0x58>
     610: 01 00 00 90  	adrp	x1, 0x0 <probe_kern_array_mmap+0x5c>
     614: f3 03 33 2a  	mvn	w19, w19
     618: 21 00 40 f9  	ldr	x1, [x1]
     61c: 60 7e 1f 53  	lsr	w0, w19, #31
     620: e3 2f 40 f9  	ldr	x3, [sp, #88]
     624: 22 00 40 f9  	ldr	x2, [x1]
     628: 63 00 02 eb  	subs	x3, x3, x2
     62c: 02 00 80 d2  	mov	x2, #0
     630: 81 00 00 54  	b.ne	0x640 <probe_kern_array_mmap+0x8c>
     634: f3 0b 40 f9  	ldr	x19, [sp, #16]
     638: fd 7b c6 a8  	ldp	x29, x30, [sp], #96
     63c: c0 03 5f d6  	ret
     640: 00 00 00 94  	bl	0x640 <probe_kern_array_mmap+0x8c>

0000000000000644 <get_kernel_version>:
     644: fd 7b a5 a9  	stp	x29, x30, [sp, #-432]!
     648: 01 00 00 90  	adrp	x1, 0x0 <get_kernel_version+0x4>
     64c: fd 03 00 91  	mov	x29, sp
     650: 21 00 40 f9  	ldr	x1, [x1]
     654: e0 83 00 91  	add	x0, sp, #32
     658: 22 00 40 f9  	ldr	x2, [x1]
     65c: e2 d7 00 f9  	str	x2, [sp, #424]
     660: 02 00 80 d2  	mov	x2, #0
     664: 00 00 00 94  	bl	0x664 <get_kernel_version+0x20>
     668: 01 00 00 90  	adrp	x1, 0x0 <get_kernel_version+0x24>
     66c: 21 00 00 91  	add	x1, x1, #0
     670: e4 73 00 91  	add	x4, sp, #28
     674: e3 63 00 91  	add	x3, sp, #24
     678: e2 53 00 91  	add	x2, sp, #20
     67c: e0 8b 02 91  	add	x0, sp, #162
     680: 00 00 00 94  	bl	0x680 <get_kernel_version+0x3c>
     684: e1 03 00 2a  	mov	w1, w0
     688: 00 00 80 52  	mov	w0, #0
     68c: 3f 0c 00 71  	cmp	w1, #3
     690: 21 01 00 54  	b.ne	0x6b4 <get_kernel_version+0x70>
     694: e0 8b 42 29  	ldp	w0, w2, [sp, #20]
     698: e3 1f 80 52  	mov	w3, #255
     69c: e1 1f 40 b9  	ldr	w1, [sp, #28]
     6a0: 42 5c 18 53  	lsl	w2, w2, #8
     6a4: 3f 00 03 6b  	cmp	w1, w3
     6a8: 40 40 00 0b  	add	w0, w2, w0, lsl #16
     6ac: 21 90 83 1a  	csel	w1, w1, w3, ls
     6b0: 00 00 01 0b  	add	w0, w0, w1
     6b4: 01 00 00 90  	adrp	x1, 0x0 <get_kernel_version+0x70>
     6b8: 21 00 40 f9  	ldr	x1, [x1]
     6bc: e3 d7 40 f9  	ldr	x3, [sp, #424]
     6c0: 22 00 40 f9  	ldr	x2, [x1]
     6c4: 63 00 02 eb  	subs	x3, x3, x2
     6c8: 02 00 80 d2  	mov	x2, #0
     6cc: 61 00 00 54  	b.ne	0x6d8 <get_kernel_version+0x94>
     6d0: fd 7b db a8  	ldp	x29, x30, [sp], #432
     6d4: c0 03 5f d6  	ret
     6d8: 00 00 00 94  	bl	0x6d8 <get_kernel_version+0x94>
     6dc: 1f 20 03 d5  	nop

00000000000006e0 <adjust_prog_btf_ext_info>:
     6e0: fd 7b b9 a9  	stp	x29, x30, [sp, #-112]!
     6e4: fd 03 00 91  	mov	x29, sp
     6e8: f3 53 01 a9  	stp	x19, x20, [sp, #16]
     6ec: 53 00 40 f9  	ldr	x19, [x2]
     6f0: f7 63 03 a9  	stp	x23, x24, [sp, #48]
     6f4: f8 03 00 aa  	mov	x24, x0
     6f8: 40 0c 40 b9  	ldr	w0, [x2, #12]
     6fc: fb 73 05 a9  	stp	x27, x28, [sp, #80]
     700: 60 02 00 8b  	add	x0, x19, x0
     704: e5 37 00 f9  	str	x5, [sp, #104]
     708: 7f 02 00 eb  	cmp	x19, x0
     70c: 62 0c 00 54  	b.hs	0x898 <adjust_prog_btf_ext_info+0x1b8>
     710: f7 03 02 aa  	mov	x23, x2
     714: f5 5b 02 a9  	stp	x21, x22, [sp, #32]
     718: f6 03 03 aa  	mov	x22, x3
     71c: f5 03 04 aa  	mov	x21, x4
     720: f9 6b 04 a9  	stp	x25, x26, [sp, #64]
     724: fa 03 01 aa  	mov	x26, x1
     728: 61 02 40 b9  	ldr	w1, [x19]
     72c: 00 c3 40 f9  	ldr	x0, [x24, #384]
     730: 00 00 00 94  	bl	0x730 <adjust_prog_btf_ext_info+0x50>
     734: 40 0c 00 b4  	cbz	x0, 0x8bc <adjust_prog_btf_ext_info+0x1dc>
     738: 41 07 40 f9  	ldr	x1, [x26, #8]
     73c: 00 00 00 94  	bl	0x73c <adjust_prog_btf_ext_info+0x5c>
     740: fb 03 00 2a  	mov	w27, w0
     744: 40 09 00 35  	cbnz	w0, 0x86c <adjust_prog_btf_ext_info+0x18c>
     748: 61 06 40 b9  	ldr	w1, [x19, #4]
     74c: 66 22 00 91  	add	x6, x19, #8
     750: 01 0a 00 34  	cbz	w1, 0x890 <adjust_prog_btf_ext_info+0x1b0>
     754: 03 00 80 52  	mov	w3, #0
     758: 02 00 80 d2  	mov	x2, #0
     75c: 18 00 80 d2  	mov	x24, #0
     760: 45 0f 40 f9  	ldr	x5, [x26, #24]
     764: 0d 00 00 14  	b	0x798 <adjust_prog_btf_ext_info+0xb8>
     768: 44 13 40 f9  	ldr	x4, [x26, #32]
     76c: a4 00 04 8b  	add	x4, x5, x4
     770: ff 00 04 eb  	cmp	x7, x4
     774: 42 02 00 54  	b.hs	0x7bc <adjust_prog_btf_ext_info+0xdc>
     778: e0 0a 40 b9  	ldr	w0, [x23, #8]
     77c: 1f 03 00 f1  	cmp	x24, #0
     780: 18 13 86 9a  	csel	x24, x24, x6, ne
     784: 63 04 00 11  	add	w3, w3, #1
     788: c6 00 00 8b  	add	x6, x6, x0
     78c: e2 03 06 aa  	mov	x2, x6
     790: 3f 00 03 6b  	cmp	w1, w3
     794: 40 01 00 54  	b.eq	0x7bc <adjust_prog_btf_ext_info+0xdc>
     798: c7 00 40 b9  	ldr	w7, [x6]
     79c: e7 7c 03 53  	lsr	w7, w7, #3
     7a0: ff 00 05 eb  	cmp	x7, x5
     7a4: 22 fe ff 54  	b.hs	0x768 <adjust_prog_btf_ext_info+0x88>
     7a8: e0 0a 40 b9  	ldr	w0, [x23, #8]
     7ac: 63 04 00 11  	add	w3, w3, #1
     7b0: c6 00 00 8b  	add	x6, x6, x0
     7b4: 3f 00 03 6b  	cmp	w1, w3
     7b8: 01 ff ff 54  	b.ne	0x798 <adjust_prog_btf_ext_info+0xb8>
     7bc: b8 06 00 b4  	cbz	x24, 0x890 <adjust_prog_btf_ext_info+0x1b0>
     7c0: e1 0a 40 b9  	ldr	w1, [x23, #8]
     7c4: 5c 00 18 cb  	sub	x28, x2, x24
     7c8: a6 02 40 b9  	ldr	w6, [x21]
     7cc: c0 02 40 f9  	ldr	x0, [x22]
     7d0: d3 7c a1 9b  	umull	x19, w6, w1
     7d4: 94 03 13 8b  	add	x20, x28, x19
     7d8: e1 03 14 aa  	mov	x1, x20
     7dc: 00 00 00 94  	bl	0x7dc <adjust_prog_btf_ext_info+0xfc>
     7e0: f9 03 00 aa  	mov	x25, x0
     7e4: 40 07 00 b4  	cbz	x0, 0x8cc <adjust_prog_btf_ext_info+0x1ec>
     7e8: e4 0a 40 b9  	ldr	w4, [x23, #8]
     7ec: 13 00 13 8b  	add	x19, x0, x19
     7f0: d9 02 00 f9  	str	x25, [x22]
     7f4: e2 03 1c aa  	mov	x2, x28
     7f8: e1 03 18 aa  	mov	x1, x24
     7fc: e0 03 13 aa  	mov	x0, x19
     800: 84 0a c4 9a  	udiv	x4, x20, x4
     804: a4 02 00 b9  	str	w4, [x21]
     808: 00 00 00 94  	bl	0x808 <adjust_prog_btf_ext_info+0x128>
     80c: 41 0f 40 f9  	ldr	x1, [x26, #24]
     810: 22 03 14 8b  	add	x2, x25, x20
     814: 40 17 40 f9  	ldr	x0, [x26, #40]
     818: 00 00 01 4b  	sub	w0, w0, w1
     81c: 7f 02 02 eb  	cmp	x19, x2
     820: a2 04 00 54  	b.hs	0x8b4 <adjust_prog_btf_ext_info+0x1d4>
     824: 1f 20 03 d5  	nop
     828: 61 02 40 b9  	ldr	w1, [x19]
     82c: 01 0c 41 0b  	add	w1, w0, w1, lsr #3
     830: 61 02 00 b9  	str	w1, [x19]
     834: e1 0a 40 b9  	ldr	w1, [x23, #8]
     838: 73 42 21 8b  	add	x19, x19, w1, uxtw
     83c: 5f 00 13 eb  	cmp	x2, x19
     840: 48 ff ff 54  	b.hi	0x828 <adjust_prog_btf_ext_info+0x148>
     844: e0 37 40 f9  	ldr	x0, [sp, #104]
     848: f5 5b 42 a9  	ldp	x21, x22, [sp, #32]
     84c: f9 6b 44 a9  	ldp	x25, x26, [sp, #64]
     850: 01 00 00 b9  	str	w1, [x0]
     854: e0 03 1b 2a  	mov	w0, w27
     858: f3 53 41 a9  	ldp	x19, x20, [sp, #16]
     85c: f7 63 43 a9  	ldp	x23, x24, [sp, #48]
     860: fb 73 45 a9  	ldp	x27, x28, [sp, #80]
     864: fd 7b c7 a8  	ldp	x29, x30, [sp], #112
     868: c0 03 5f d6  	ret
     86c: 63 06 40 b9  	ldr	w3, [x19, #4]
     870: e0 0a 41 29  	ldp	w0, w2, [x23, #8]
     874: e1 02 40 f9  	ldr	x1, [x23]
     878: 00 7c 03 1b  	mul	w0, w0, w3
     87c: 21 00 02 8b  	add	x1, x1, x2
     880: 00 20 00 91  	add	x0, x0, #8
     884: 73 02 00 8b  	add	x19, x19, x0
     888: 7f 02 01 eb  	cmp	x19, x1
     88c: e3 f4 ff 54  	b.lo	0x728 <adjust_prog_btf_ext_info+0x48>
     890: f5 5b 42 a9  	ldp	x21, x22, [sp, #32]
     894: f9 6b 44 a9  	ldp	x25, x26, [sp, #64]
     898: 3b 00 80 12  	mov	w27, #-2
     89c: e0 03 1b 2a  	mov	w0, w27
     8a0: f3 53 41 a9  	ldp	x19, x20, [sp, #16]
     8a4: f7 63 43 a9  	ldp	x23, x24, [sp, #48]
     8a8: fb 73 45 a9  	ldp	x27, x28, [sp, #80]
     8ac: fd 7b c7 a8  	ldp	x29, x30, [sp], #112
     8b0: c0 03 5f d6  	ret
     8b4: e1 0a 40 b9  	ldr	w1, [x23, #8]
     8b8: e3 ff ff 17  	b	0x844 <adjust_prog_btf_ext_info+0x164>
     8bc: bb 02 80 12  	mov	w27, #-22
     8c0: f5 5b 42 a9  	ldp	x21, x22, [sp, #32]
     8c4: f9 6b 44 a9  	ldp	x25, x26, [sp, #64]
     8c8: e3 ff ff 17  	b	0x854 <adjust_prog_btf_ext_info+0x174>
     8cc: 7b 01 80 12  	mov	w27, #-12
     8d0: f5 5b 42 a9  	ldp	x21, x22, [sp, #32]
     8d4: f9 6b 44 a9  	ldp	x25, x26, [sp, #64]
     8d8: df ff ff 17  	b	0x854 <adjust_prog_btf_ext_info+0x174>
     8dc: 1f 20 03 d5  	nop

00000000000008e0 <find_int_btf_id>:
     8e0: fd 7b bd a9  	stp	x29, x30, [sp, #-48]!
     8e4: fd 03 00 91  	mov	x29, sp
     8e8: f3 53 01 a9  	stp	x19, x20, [sp, #16]
     8ec: f5 13 00 f9  	str	x21, [sp, #32]
     8f0: f5 03 00 aa  	mov	x21, x0
     8f4: 00 00 00 94  	bl	0x8f4 <find_int_btf_id+0x14>
     8f8: 1f 00 00 71  	cmp	w0, #0
     8fc: cd 02 00 54  	b.le	0x954 <find_int_btf_id+0x74>
     900: f4 03 00 2a  	mov	w20, w0
     904: 33 00 80 52  	mov	w19, #1
     908: 04 00 00 14  	b	0x918 <find_int_btf_id+0x38>
     90c: 73 06 00 11  	add	w19, w19, #1
     910: 9f 02 13 6b  	cmp	w20, w19
     914: 0b 02 00 54  	b.lt	0x954 <find_int_btf_id+0x74>
     918: e1 03 13 2a  	mov	w1, w19
     91c: e0 03 15 aa  	mov	x0, x21
     920: 00 00 00 94  	bl	0x920 <find_int_btf_id+0x40>
     924: 01 1c 40 39  	ldrb	w1, [x0, #7]
     928: 21 10 00 12  	and	w1, w1, #0x1f
     92c: 3f 04 00 71  	cmp	w1, #1
     930: e1 fe ff 54  	b.ne	0x90c <find_int_btf_id+0x2c>
     934: 00 30 40 39  	ldrb	w0, [x0, #12]
     938: 1f 80 00 71  	cmp	w0, #32
     93c: 81 fe ff 54  	b.ne	0x90c <find_int_btf_id+0x2c>
     940: e0 03 13 2a  	mov	w0, w19
     944: f3 53 41 a9  	ldp	x19, x20, [sp, #16]
     948: f5 13 40 f9  	ldr	x21, [sp, #32]
     94c: fd 7b c3 a8  	ldp	x29, x30, [sp], #48
     950: c0 03 5f d6  	ret
     954: 13 00 80 52  	mov	w19, #0
     958: e0 03 13 2a  	mov	w0, w19
     95c: f3 53 41 a9  	ldp	x19, x20, [sp, #16]
     960: f5 13 40 f9  	ldr	x21, [sp, #32]
     964: fd 7b c3 a8  	ldp	x29, x30, [sp], #48
     968: c0 03 5f d6  	ret
     96c: 1f 20 03 d5  	nop

0000000000000970 <bpf_object__elf_finish>:
     970: fd 7b be a9  	stp	x29, x30, [sp, #-32]!
     974: fd 03 00 91  	mov	x29, sp
     978: f3 0b 00 f9  	str	x19, [sp, #16]
     97c: f3 03 00 aa  	mov	x19, x0
     980: 00 60 40 f9  	ldr	x0, [x0, #192]
     984: e0 01 00 b4  	cbz	x0, 0x9c0 <bpf_object__elf_finish+0x50>
     988: 00 00 00 94  	bl	0x988 <bpf_object__elf_finish+0x18>
     98c: 7f 62 00 f9  	str	xzr, [x19, #192]
     990: 60 a2 40 f9  	ldr	x0, [x19, #320]
     994: 7f fe 10 a9  	stp	xzr, xzr, [x19, #264]
     998: 7f fe 11 a9  	stp	xzr, xzr, [x19, #280]
     99c: 7f 96 00 f9  	str	xzr, [x19, #296]
     9a0: 00 00 00 94  	bl	0x9a0 <bpf_object__elf_finish+0x30>
     9a4: 7f a2 00 f9  	str	xzr, [x19, #320]
     9a8: 60 aa 40 b9  	ldr	w0, [x19, #168]
     9ac: 7f 4a 01 b9  	str	wzr, [x19, #328]
     9b0: e0 00 f8 36  	tbz	w0, #31, 0x9cc <bpf_object__elf_finish+0x5c>
     9b4: 00 00 80 12  	mov	w0, #-1
     9b8: 60 aa 00 b9  	str	w0, [x19, #168]
     9bc: 7f 7e 0b a9  	stp	xzr, xzr, [x19, #176]
     9c0: f3 0b 40 f9  	ldr	x19, [sp, #16]
     9c4: fd 7b c2 a8  	ldp	x29, x30, [sp], #32
     9c8: c0 03 5f d6  	ret
     9cc: 00 00 00 94  	bl	0x9cc <bpf_object__elf_finish+0x5c>
     9d0: f9 ff ff 17  	b	0x9b4 <bpf_object__elf_finish+0x44>

00000000000009d4 <bpf_map__destroy>:
     9d4: fd 7b be a9  	stp	x29, x30, [sp, #-32]!
     9d8: fd 03 00 91  	mov	x29, sp
     9dc: 02 28 40 f9  	ldr	x2, [x0, #80]
     9e0: f3 53 01 a9  	stp	x19, x20, [sp, #16]
     9e4: f3 03 00 aa  	mov	x19, x0
     9e8: 62 00 00 b4  	cbz	x2, 0x9f4 <bpf_map__destroy+0x20>
     9ec: 01 24 40 f9  	ldr	x1, [x0, #72]
     9f0: 40 00 3f d6  	blr	x2
     9f4: 60 3a 40 f9  	ldr	x0, [x19, #112]
     9f8: 7f fe 04 a9  	stp	xzr, xzr, [x19, #72]
     9fc: a0 00 00 b4  	cbz	x0, 0xa10 <bpf_map__destroy+0x3c>
     a00: f5 ff ff 97  	bl	0x9d4 <bpf_map__destroy>
     a04: 60 3a 40 f9  	ldr	x0, [x19, #112]
     a08: 00 00 00 94  	bl	0xa08 <bpf_map__destroy+0x34>
     a0c: 7f 3a 00 f9  	str	xzr, [x19, #112]
     a10: 60 3e 40 f9  	ldr	x0, [x19, #120]
     a14: 00 00 00 94  	bl	0xa14 <bpf_map__destroy+0x40>
     a18: 7f 3e 00 f9  	str	xzr, [x19, #120]
     a1c: 74 32 40 f9  	ldr	x20, [x19, #96]
     a20: 7f 82 00 b9  	str	wzr, [x19, #128]
     a24: d4 01 00 b4  	cbz	x20, 0xa5c <bpf_map__destroy+0x88>
     a28: c0 03 80 52  	mov	w0, #30
     a2c: 00 00 00 94  	bl	0xa2c <bpf_map__destroy+0x58>
     a30: 62 0e 45 29  	ldp	w2, w3, [x19, #40]
     a34: e1 03 00 aa  	mov	x1, x0
     a38: e0 03 14 aa  	mov	x0, x20
     a3c: 42 1c 00 11  	add	w2, w2, #7
     a40: 42 70 1d 12  	and	w2, w2, #0xfffffff8
     a44: 42 04 a3 9b  	umaddl	x2, w2, w3, x1
     a48: 42 04 00 d1  	sub	x2, x2, #1
     a4c: 42 08 c1 9a  	udiv	x2, x2, x1
     a50: 41 7c 01 9b  	mul	x1, x2, x1
     a54: 00 00 00 94  	bl	0xa54 <bpf_map__destroy+0x80>
     a58: 7f 32 00 f9  	str	xzr, [x19, #96]
     a5c: 60 36 40 f9  	ldr	x0, [x19, #104]
     a60: c0 01 00 b4  	cbz	x0, 0xa98 <bpf_map__destroy+0xc4>
     a64: 00 10 40 f9  	ldr	x0, [x0, #32]
     a68: 00 00 00 94  	bl	0xa68 <bpf_map__destroy+0x94>
     a6c: 61 36 40 f9  	ldr	x1, [x19, #104]
     a70: 20 08 40 f9  	ldr	x0, [x1, #16]
     a74: 3f 10 00 f9  	str	xzr, [x1, #32]
     a78: 00 00 00 94  	bl	0xa78 <bpf_map__destroy+0xa4>
     a7c: 61 36 40 f9  	ldr	x1, [x19, #104]
     a80: 20 0c 40 f9  	ldr	x0, [x1, #24]
     a84: 3f 08 00 f9  	str	xzr, [x1, #16]
     a88: 00 00 00 94  	bl	0xa88 <bpf_map__destroy+0xb4>
     a8c: 60 36 40 f9  	ldr	x0, [x19, #104]
     a90: 00 00 00 94  	bl	0xa90 <bpf_map__destroy+0xbc>
     a94: 7f 36 00 f9  	str	xzr, [x19, #104]
     a98: 60 02 40 f9  	ldr	x0, [x19]
     a9c: 00 00 00 94  	bl	0xa9c <bpf_map__destroy+0xc8>
     aa0: 7f 02 00 f9  	str	xzr, [x19]
     aa4: 60 46 40 f9  	ldr	x0, [x19, #136]
     aa8: 00 00 00 94  	bl	0xaa8 <bpf_map__destroy+0xd4>
     aac: 7f 46 00 f9  	str	xzr, [x19, #136]
     ab0: 60 0a 40 b9  	ldr	w0, [x19, #8]
     ab4: 80 00 f8 37  	tbnz	w0, #31, 0xac4 <bpf_map__destroy+0xf0>
     ab8: 00 00 00 94  	bl	0xab8 <bpf_map__destroy+0xe4>
     abc: 00 00 80 12  	mov	w0, #-1
     ac0: 60 0a 00 b9  	str	w0, [x19, #8]
     ac4: f3 53 41 a9  	ldp	x19, x20, [sp, #16]
     ac8: fd 7b c2 a8  	ldp	x29, x30, [sp], #32
     acc: c0 03 5f d6  	ret

0000000000000ad0 <libbpf_get_type_names>:
     ad0: fd 7b ba a9  	stp	x29, x30, [sp, #-96]!
     ad4: fd 03 00 91  	mov	x29, sp
     ad8: f5 5b 02 a9  	stp	x21, x22, [sp, #32]
     adc: 16 1c 00 12  	and	w22, w0, #0xff
     ae0: 00 08 81 d2  	mov	x0, #2112
     ae4: 00 00 00 94  	bl	0xae4 <libbpf_get_type_names+0x14>
     ae8: f5 03 00 aa  	mov	x21, x0
     aec: e0 05 00 b4  	cbz	x0, 0xba8 <libbpf_get_type_names+0xd8>
     af0: f3 53 01 a9  	stp	x19, x20, [sp, #16]
     af4: 14 00 00 90  	adrp	x20, 0x0 <libbpf_get_type_names+0x24>
     af8: 94 02 00 91  	add	x20, x20, #0
     afc: f7 63 03 a9  	stp	x23, x24, [sp, #48]
     b00: 17 00 00 90  	adrp	x23, 0x0 <libbpf_get_type_names+0x30>
     b04: 98 42 29 91  	add	x24, x20, #2640
     b08: f9 6b 04 a9  	stp	x25, x26, [sp, #64]
     b0c: f7 02 00 91  	add	x23, x23, #0
     b10: 19 08 81 d2  	mov	x25, #2112
     b14: fb 2b 00 f9  	str	x27, [sp, #80]
     b18: fa 07 81 d2  	mov	x26, #2111
     b1c: 1f 00 00 39  	strb	wzr, [x0]
     b20: 0a 00 00 14  	b	0xb48 <libbpf_get_type_names+0x78>
     b24: 00 00 00 94  	bl	0xb24 <libbpf_get_type_names+0x54>
     b28: 60 06 00 91  	add	x0, x19, #1
     b2c: e1 03 1b aa  	mov	x1, x27
     b30: a0 02 00 8b  	add	x0, x21, x0
     b34: 42 03 13 cb  	sub	x2, x26, x19
     b38: 00 00 00 94  	bl	0xb38 <libbpf_get_type_names+0x68>
     b3c: 94 a2 00 91  	add	x20, x20, #40
     b40: 9f 02 18 eb  	cmp	x20, x24
     b44: a0 03 00 54  	b.eq	0xbb8 <libbpf_get_type_names+0xe8>
     b48: e0 03 15 aa  	mov	x0, x21
     b4c: 76 00 00 34  	cbz	w22, 0xb58 <libbpf_get_type_names+0x88>
     b50: 81 66 40 39  	ldrb	w1, [x20, #25]
     b54: 41 ff ff 34  	cbz	w1, 0xb3c <libbpf_get_type_names+0x6c>
     b58: 00 00 00 94  	bl	0xb58 <libbpf_get_type_names+0x88>
     b5c: f3 03 00 aa  	mov	x19, x0
     b60: 9b 02 40 f9  	ldr	x27, [x20]
     b64: e0 03 1b aa  	mov	x0, x27
     b68: 00 00 00 94  	bl	0xb68 <libbpf_get_type_names+0x98>
     b6c: 64 02 00 8b  	add	x4, x19, x0
     b70: 23 03 13 cb  	sub	x3, x25, x19
     b74: 84 08 00 91  	add	x4, x4, #2
     b78: e1 03 17 aa  	mov	x1, x23
     b7c: a0 02 13 8b  	add	x0, x21, x19
     b80: 22 00 80 d2  	mov	x2, #1
     b84: 9f 00 21 f1  	cmp	x4, #2112
     b88: e9 fc ff 54  	b.ls	0xb24 <libbpf_get_type_names+0x54>
     b8c: e0 03 15 aa  	mov	x0, x21
     b90: 00 00 00 94  	bl	0xb90 <libbpf_get_type_names+0xc0>
     b94: f3 53 41 a9  	ldp	x19, x20, [sp, #16]
     b98: 15 00 80 d2  	mov	x21, #0
     b9c: f7 63 43 a9  	ldp	x23, x24, [sp, #48]
     ba0: f9 6b 44 a9  	ldp	x25, x26, [sp, #64]
     ba4: fb 2b 40 f9  	ldr	x27, [sp, #80]
     ba8: e0 03 15 aa  	mov	x0, x21
     bac: f5 5b 42 a9  	ldp	x21, x22, [sp, #32]
     bb0: fd 7b c6 a8  	ldp	x29, x30, [sp], #96
     bb4: c0 03 5f d6  	ret
     bb8: e0 03 15 aa  	mov	x0, x21
     bbc: f3 53 41 a9  	ldp	x19, x20, [sp, #16]
     bc0: f5 5b 42 a9  	ldp	x21, x22, [sp, #32]
     bc4: f7 63 43 a9  	ldp	x23, x24, [sp, #48]
     bc8: f9 6b 44 a9  	ldp	x25, x26, [sp, #64]
     bcc: fb 2b 40 f9  	ldr	x27, [sp, #80]
     bd0: fd 7b c6 a8  	ldp	x29, x30, [sp], #96
     bd4: c0 03 5f d6  	ret
     bd8: 1f 20 03 d5  	nop
     bdc: 1f 20 03 d5  	nop

0000000000000be0 <cmp_relocs>:
     be0: 03 04 40 b9  	ldr	w3, [x0, #4]
     be4: 22 04 40 b9  	ldr	w2, [x1, #4]
     be8: 7f 00 02 6b  	cmp	w3, w2
     bec: 80 00 00 54  	b.eq	0xbfc <cmp_relocs+0x1c>
     bf0: 00 00 80 12  	mov	w0, #-1
     bf4: 00 b4 9f 1a  	csinc	w0, w0, wzr, lt
     bf8: c0 03 5f d6  	ret
     bfc: 02 00 40 b9  	ldr	w2, [x0]
     c00: 00 00 80 12  	mov	w0, #-1
     c04: 21 00 40 b9  	ldr	w1, [x1]
     c08: 5f 00 01 6b  	cmp	w2, w1
     c0c: 00 34 9f 1a  	csinc	w0, w0, wzr, lo
     c10: 00 10 9f 1a  	csel	w0, w0, wzr, ne
     c14: c0 03 5f d6  	ret
     c18: 1f 20 03 d5  	nop
     c1c: 1f 20 03 d5  	nop

0000000000000c20 <libbpf_err.part.0>:
     c20: fd 7b be a9  	stp	x29, x30, [sp, #-32]!
     c24: fd 03 00 91  	mov	x29, sp
     c28: f3 0b 00 f9  	str	x19, [sp, #16]
     c2c: f3 03 00 2a  	mov	w19, w0
     c30: f3 03 13 4b  	neg	w19, w19
     c34: 00 00 00 94  	bl	0xc34 <libbpf_err.part.0+0x14>
     c38: 13 00 00 b9  	str	w19, [x0]
     c3c: f3 0b 40 f9  	ldr	x19, [sp, #16]
     c40: fd 7b c2 a8  	ldp	x29, x30, [sp], #32
     c44: c0 03 5f d6  	ret
     c48: 1f 20 03 d5  	nop
     c4c: 1f 20 03 d5  	nop

0000000000000c50 <probe_kern_probe_read_kernel>:
     c50: fd 7b b4 a9  	stp	x29, x30, [sp, #-192]!
     c54: 01 00 00 90  	adrp	x1, 0x0 <probe_kern_probe_read_kernel+0x4>
     c58: 03 00 00 90  	adrp	x3, 0x0 <probe_kern_probe_read_kernel+0x8>
     c5c: 00 04 00 4f  	movi	v0.4s, #0
     c60: e0 a3 00 91  	add	x0, sp, #40
     c64: fd 03 00 91  	mov	x29, sp
     c68: 21 00 40 f9  	ldr	x1, [x1]
     c6c: 63 00 00 91  	add	x3, x3, #0
     c70: e4 23 02 91  	add	x4, sp, #136
     c74: e9 73 5d b2  	mov	x9, #-34359738368
     c78: e8 56 80 d2  	mov	x8, #695
     c7c: a6 10 80 d2  	mov	x6, #133
     c80: f3 0b 00 f9  	str	x19, [sp, #16]
     c84: ea 37 94 d2  	mov	x10, #41407
     c88: e9 20 80 f2  	movk	x9, #263
     c8c: 08 01 c0 f2  	movk	x8, #8, lsl #32
     c90: e7 76 80 d2  	mov	x7, #951
     c94: 26 0e c0 f2  	movk	x6, #113, lsl #32
     c98: a5 12 80 d2  	mov	x5, #149
     c9c: 4c 00 80 52  	mov	w12, #2
     ca0: cb 00 80 d2  	mov	x11, #6
     ca4: 22 00 40 f9  	ldr	x2, [x1]
     ca8: e2 5f 00 f9  	str	x2, [sp, #184]
     cac: 02 00 80 d2  	mov	x2, #0
     cb0: 00 00 00 ad  	stp	q0, q0, [x0]
     cb4: 01 00 80 d2  	mov	x1, #0
     cb8: 00 00 01 ad  	stp	q0, q0, [x0, #32]
     cbc: ec 2b 00 b9  	str	w12, [sp, #40]
     cc0: e4 af 03 a9  	stp	x4, x11, [sp, #56]
     cc4: 00 00 02 ad  	stp	q0, q0, [x0, #64]
     cc8: e3 27 00 f9  	str	x3, [sp, #72]
     ccc: ea a7 08 a9  	stp	x10, x9, [sp, #136]
     cd0: e8 9f 09 a9  	stp	x8, x7, [sp, #152]
     cd4: e6 97 0a a9  	stp	x6, x5, [sp, #168]
     cd8: 00 00 00 94  	bl	0xcd8 <probe_kern_probe_read_kernel+0x88>
     cdc: f3 03 00 2a  	mov	w19, w0
     ce0: 40 00 f8 37  	tbnz	w0, #31, 0xce8 <probe_kern_probe_read_kernel+0x98>
     ce4: 00 00 00 94  	bl	0xce4 <probe_kern_probe_read_kernel+0x94>
     ce8: 01 00 00 90  	adrp	x1, 0x0 <probe_kern_probe_read_kernel+0x98>
     cec: f3 03 33 2a  	mvn	w19, w19
     cf0: 21 00 40 f9  	ldr	x1, [x1]
     cf4: 60 7e 1f 53  	lsr	w0, w19, #31
     cf8: e3 5f 40 f9  	ldr	x3, [sp, #184]
     cfc: 22 00 40 f9  	ldr	x2, [x1]
     d00: 63 00 02 eb  	subs	x3, x3, x2
     d04: 02 00 80 d2  	mov	x2, #0
     d08: 81 00 00 54  	b.ne	0xd18 <probe_kern_probe_read_kernel+0xc8>
     d0c: f3 0b 40 f9  	ldr	x19, [sp, #16]
     d10: fd 7b cc a8  	ldp	x29, x30, [sp], #192
     d14: c0 03 5f d6  	ret
     d18: 00 00 00 94  	bl	0xd18 <probe_kern_probe_read_kernel+0xc8>
     d1c: 1f 20 03 d5  	nop

0000000000000d20 <probe_kern_exp_attach_type>:
     d20: fd 7b b6 a9  	stp	x29, x30, [sp, #-160]!
     d24: 00 00 00 90  	adrp	x0, 0x0 <probe_kern_exp_attach_type+0x4>
     d28: 04 00 00 90  	adrp	x4, 0x0 <probe_kern_exp_attach_type+0x8>
     d2c: e3 c3 00 91  	add	x3, sp, #48
     d30: fd 03 00 91  	mov	x29, sp
     d34: 00 04 00 4f  	movi	v0.4s, #0
     d38: 00 00 40 f9  	ldr	x0, [x0]
     d3c: f3 0b 00 f9  	str	x19, [sp, #16]
     d40: 84 00 00 91  	add	x4, x4, #0
     d44: e5 23 02 91  	add	x5, sp, #136
     d48: 29 01 80 d2  	mov	x9, #9
     d4c: 01 00 40 f9  	ldr	x1, [x0]
     d50: e1 4f 00 f9  	str	x1, [sp, #152]
     d54: 01 00 80 d2  	mov	x1, #0
     d58: e7 16 80 d2  	mov	x7, #183
     d5c: a6 12 80 d2  	mov	x6, #149
     d60: 49 00 c0 f2  	movk	x9, #2, lsl #32
     d64: 48 00 80 d2  	mov	x8, #2
     d68: 7f 28 00 f9  	str	xzr, [x3, #80]
     d6c: e0 a3 00 91  	add	x0, sp, #40
     d70: 60 00 00 ad  	stp	q0, q0, [x3]
     d74: 02 00 80 d2  	mov	x2, #0
     d78: 60 00 01 ad  	stp	q0, q0, [x3, #32]
     d7c: e9 17 00 f9  	str	x9, [sp, #40]
     d80: e5 a3 03 a9  	stp	x5, x8, [sp, #56]
     d84: 60 10 80 3d  	str	q0, [x3, #64]
     d88: e4 27 00 f9  	str	x4, [sp, #72]
     d8c: e7 9b 08 a9  	stp	x7, x6, [sp, #136]
     d90: 00 00 00 94  	bl	0xd90 <probe_kern_exp_attach_type+0x70>
     d94: f3 03 00 2a  	mov	w19, w0
     d98: 40 00 f8 37  	tbnz	w0, #31, 0xda0 <probe_kern_exp_attach_type+0x80>
     d9c: 00 00 00 94  	bl	0xd9c <probe_kern_exp_attach_type+0x7c>
     da0: 01 00 00 90  	adrp	x1, 0x0 <probe_kern_exp_attach_type+0x80>
     da4: f3 03 33 2a  	mvn	w19, w19
     da8: 21 00 40 f9  	ldr	x1, [x1]
     dac: 60 7e 1f 53  	lsr	w0, w19, #31
     db0: e3 4f 40 f9  	ldr	x3, [sp, #152]
     db4: 22 00 40 f9  	ldr	x2, [x1]
     db8: 63 00 02 eb  	subs	x3, x3, x2
     dbc: 02 00 80 d2  	mov	x2, #0
     dc0: 81 00 00 54  	b.ne	0xdd0 <probe_kern_exp_attach_type+0xb0>
     dc4: f3 0b 40 f9  	ldr	x19, [sp, #16]
     dc8: fd 7b ca a8  	ldp	x29, x30, [sp], #160
     dcc: c0 03 5f d6  	ret
     dd0: 00 00 00 94  	bl	0xdd0 <probe_kern_exp_attach_type+0xb0>

0000000000000dd4 <probe_kern_prog_name>:
     dd4: fd 7b b6 a9  	stp	x29, x30, [sp, #-160]!
     dd8: 01 00 00 90  	adrp	x1, 0x0 <probe_kern_prog_name+0x4>
     ddc: 03 00 00 90  	adrp	x3, 0x0 <probe_kern_prog_name+0x8>
     de0: 00 04 00 4f  	movi	v0.4s, #0
     de4: e0 a3 00 91  	add	x0, sp, #40
     de8: fd 03 00 91  	mov	x29, sp
     dec: 21 00 40 f9  	ldr	x1, [x1]
     df0: 63 00 00 91  	add	x3, x3, #0
     df4: e4 23 02 91  	add	x4, sp, #136
     df8: 05 00 00 90  	adrp	x5, 0x0 <probe_kern_prog_name+0x24>
     dfc: a5 00 00 91  	add	x5, x5, #0
     e00: f3 0b 00 f9  	str	x19, [sp, #16]
     e04: e7 16 80 d2  	mov	x7, #183
     e08: a6 12 80 d2  	mov	x6, #149
     e0c: 29 00 80 52  	mov	w9, #1
     e10: 48 00 80 d2  	mov	x8, #2
     e14: 22 00 40 f9  	ldr	x2, [x1]
     e18: e2 4f 00 f9  	str	x2, [sp, #152]
     e1c: 02 00 80 d2  	mov	x2, #0
     e20: 00 00 00 ad  	stp	q0, q0, [x0]
     e24: 01 00 80 d2  	mov	x1, #0
     e28: 00 00 01 ad  	stp	q0, q0, [x0, #32]
     e2c: e9 2b 00 b9  	str	w9, [sp, #40]
     e30: e5 13 03 a9  	stp	x5, x4, [sp, #48]
     e34: e8 0f 04 a9  	stp	x8, x3, [sp, #64]
     e38: 00 00 02 ad  	stp	q0, q0, [x0, #64]
     e3c: e7 9b 08 a9  	stp	x7, x6, [sp, #136]
     e40: 00 00 00 94  	bl	0xe40 <probe_kern_prog_name+0x6c>
     e44: f3 03 00 2a  	mov	w19, w0
     e48: 40 00 f8 37  	tbnz	w0, #31, 0xe50 <probe_kern_prog_name+0x7c>
     e4c: 00 00 00 94  	bl	0xe4c <probe_kern_prog_name+0x78>
     e50: 01 00 00 90  	adrp	x1, 0x0 <probe_kern_prog_name+0x7c>
     e54: f3 03 33 2a  	mvn	w19, w19
     e58: 21 00 40 f9  	ldr	x1, [x1]
     e5c: 60 7e 1f 53  	lsr	w0, w19, #31
     e60: e3 4f 40 f9  	ldr	x3, [sp, #152]
     e64: 22 00 40 f9  	ldr	x2, [x1]
     e68: 63 00 02 eb  	subs	x3, x3, x2
     e6c: 02 00 80 d2  	mov	x2, #0
     e70: 81 00 00 54  	b.ne	0xe80 <probe_kern_prog_name+0xac>
     e74: f3 0b 40 f9  	ldr	x19, [sp, #16]
     e78: fd 7b ca a8  	ldp	x29, x30, [sp], #160
     e7c: c0 03 5f d6  	ret
     e80: 00 00 00 94  	bl	0xe80 <probe_kern_prog_name+0xac>

0000000000000e84 <probe_perf_link>:
     e84: fd 7b b5 a9  	stp	x29, x30, [sp, #-176]!
     e88: 04 00 00 90  	adrp	x4, 0x0 <probe_perf_link+0x4>
     e8c: 03 00 00 90  	adrp	x3, 0x0 <probe_perf_link+0x8>
     e90: fd 03 00 91  	mov	x29, sp
     e94: 84 00 40 f9  	ldr	x4, [x4]
     e98: f3 53 01 a9  	stp	x19, x20, [sp, #16]
     e9c: e0 e3 00 91  	add	x0, sp, #56
     ea0: 00 04 00 4f  	movi	v0.4s, #0
     ea4: 85 00 40 f9  	ldr	x5, [x4]
     ea8: e5 57 00 f9  	str	x5, [sp, #168]
     eac: 05 00 80 d2  	mov	x5, #0
     eb0: 63 00 00 91  	add	x3, x3, #0
     eb4: e4 63 02 91  	add	x4, sp, #152
     eb8: e6 16 80 d2  	mov	x6, #183
     ebc: a5 12 80 d2  	mov	x5, #149
     ec0: a8 00 80 52  	mov	w8, #5
     ec4: 47 00 80 d2  	mov	x7, #2
     ec8: 02 00 80 d2  	mov	x2, #0
     ecc: 01 00 80 d2  	mov	x1, #0
     ed0: 00 00 00 ad  	stp	q0, q0, [x0]
     ed4: 00 00 01 ad  	stp	q0, q0, [x0, #32]
     ed8: e8 3b 00 b9  	str	w8, [sp, #56]
     edc: 00 00 02 ad  	stp	q0, q0, [x0, #64]
     ee0: e4 9f 04 a9  	stp	x4, x7, [sp, #72]
     ee4: e3 2f 00 f9  	str	x3, [sp, #88]
     ee8: e6 97 09 a9  	stp	x6, x5, [sp, #152]
     eec: 00 00 00 94  	bl	0xeec <probe_perf_link+0x68>
     ef0: f3 03 00 2a  	mov	w19, w0
     ef4: 00 00 00 94  	bl	0xef4 <probe_perf_link+0x70>
     ef8: f4 03 00 aa  	mov	x20, x0
     efc: 93 03 f8 37  	tbnz	w19, #31, 0xf6c <probe_perf_link+0xe8>
     f00: e0 03 13 2a  	mov	w0, w19
     f04: 03 00 80 d2  	mov	x3, #0
     f08: 22 05 80 52  	mov	w2, #41
     f0c: 01 00 80 12  	mov	w1, #-1
     f10: f5 13 00 f9  	str	x21, [sp, #32]
     f14: 00 00 00 94  	bl	0xf14 <probe_perf_link+0x90>
     f18: 94 02 40 b9  	ldr	w20, [x20]
     f1c: f5 03 00 2a  	mov	w21, w0
     f20: 20 02 f8 36  	tbz	w0, #31, 0xf64 <probe_perf_link+0xe0>
     f24: e0 03 13 2a  	mov	w0, w19
     f28: 00 00 00 94  	bl	0xf28 <probe_perf_link+0xa4>
     f2c: bf 02 00 71  	cmp	w21, #0
     f30: 80 ba 49 7a  	ccmp	w20, #9, #0, lt
     f34: f5 13 40 f9  	ldr	x21, [sp, #32]
     f38: e0 17 9f 1a  	cset	w0, eq
     f3c: 01 00 00 90  	adrp	x1, 0x0 <probe_perf_link+0xb8>
     f40: 21 00 40 f9  	ldr	x1, [x1]
     f44: e3 57 40 f9  	ldr	x3, [sp, #168]
     f48: 22 00 40 f9  	ldr	x2, [x1]
     f4c: 63 00 02 eb  	subs	x3, x3, x2
     f50: 02 00 80 d2  	mov	x2, #0
     f54: 21 01 00 54  	b.ne	0xf78 <probe_perf_link+0xf4>
     f58: f3 53 41 a9  	ldp	x19, x20, [sp, #16]
     f5c: fd 7b cb a8  	ldp	x29, x30, [sp], #176
     f60: c0 03 5f d6  	ret
     f64: 00 00 00 94  	bl	0xf64 <probe_perf_link+0xe0>
     f68: ef ff ff 17  	b	0xf24 <probe_perf_link+0xa0>
     f6c: 00 00 40 b9  	ldr	w0, [x0]
     f70: e0 03 00 4b  	neg	w0, w0
     f74: f2 ff ff 17  	b	0xf3c <probe_perf_link+0xb8>
     f78: f5 13 00 f9  	str	x21, [sp, #32]
     f7c: 00 00 00 94  	bl	0xf7c <probe_perf_link+0xf8>

0000000000000f80 <probe_module_btf>:
     f80: fd 7b b9 a9  	stp	x29, x30, [sp, #-112]!
     f84: 00 00 00 90  	adrp	x0, 0x0 <probe_module_btf+0x4>
     f88: 84 00 80 d2  	mov	x4, #4
     f8c: fd 03 00 91  	mov	x29, sp
     f90: 00 00 40 f9  	ldr	x0, [x0]
     f94: 25 00 80 d2  	mov	x5, #1
     f98: 04 04 c0 f2  	movk	x4, #32, lsl #32
     f9c: 05 20 e0 f2  	movk	x5, #256, lsl #48
     fa0: 04 20 e0 f2  	movk	x4, #256, lsl #48
     fa4: 06 04 80 52  	mov	w6, #32
     fa8: 01 00 40 f9  	ldr	x1, [x0]
     fac: e1 37 00 f9  	str	x1, [sp, #104]
     fb0: 01 00 80 d2  	mov	x1, #0
     fb4: 02 00 00 90  	adrp	x2, 0x0 <probe_module_btf+0x34>
     fb8: 42 00 00 91  	add	x2, x2, #0
     fbc: 01 02 80 d2  	mov	x1, #16
     fc0: 42 a0 03 91  	add	x2, x2, #232
     fc4: e0 23 01 91  	add	x0, sp, #72
     fc8: a3 00 80 d2  	mov	x3, #5
     fcc: e6 27 00 b9  	str	w6, [sp, #36]
     fd0: e5 93 04 a9  	stp	x5, x4, [sp, #72]
     fd4: 00 00 00 94  	bl	0xfd4 <probe_module_btf+0x54>
     fd8: 01 00 80 52  	mov	w1, #0
     fdc: 60 02 f8 37  	tbnz	w0, #31, 0x1028 <probe_module_btf+0xa8>
     fe0: e1 a3 00 91  	add	x1, sp, #40
     fe4: e3 63 01 91  	add	x3, sp, #88
     fe8: f3 0b 00 f9  	str	x19, [sp, #16]
     fec: 04 02 80 52  	mov	w4, #16
     ff0: ff ff 02 a9  	stp	xzr, xzr, [sp, #40]
     ff4: f3 03 00 2a  	mov	w19, w0
     ff8: e2 93 00 91  	add	x2, sp, #36
     ffc: 3f 7c 01 a9  	stp	xzr, xzr, [x1, #16]
    1000: e3 1f 00 f9  	str	x3, [sp, #56]
    1004: e4 43 00 b9  	str	w4, [sp, #64]
    1008: 00 00 00 94  	bl	0x1008 <probe_module_btf+0x88>
    100c: e1 03 00 2a  	mov	w1, w0
    1010: e0 03 13 2a  	mov	w0, w19
    1014: f3 03 01 2a  	mov	w19, w1
    1018: 00 00 00 94  	bl	0x1018 <probe_module_btf+0x98>
    101c: 7f 02 00 71  	cmp	w19, #0
    1020: f3 0b 40 f9  	ldr	x19, [sp, #16]
    1024: e1 17 9f 1a  	cset	w1, eq
    1028: 00 00 00 90  	adrp	x0, 0x1000 <probe_module_btf+0xa8>
    102c: 00 00 40 f9  	ldr	x0, [x0]
    1030: e3 37 40 f9  	ldr	x3, [sp, #104]
    1034: 02 00 40 f9  	ldr	x2, [x0]
    1038: 63 00 02 eb  	subs	x3, x3, x2
    103c: 02 00 80 d2  	mov	x2, #0
    1040: 81 00 00 54  	b.ne	0x1050 <probe_module_btf+0xd0>
    1044: e0 03 01 2a  	mov	w0, w1
    1048: fd 7b c7 a8  	ldp	x29, x30, [sp], #112
    104c: c0 03 5f d6  	ret
    1050: f3 0b 00 f9  	str	x19, [sp, #16]
    1054: 00 00 00 94  	bl	0x1054 <probe_module_btf+0xd4>
    1058: 1f 20 03 d5  	nop
    105c: 1f 20 03 d5  	nop

0000000000001060 <bpf_link__detach_struct_ops>:
    1060: fd 7b be a9  	stp	x29, x30, [sp, #-32]!
    1064: 02 00 00 90  	adrp	x2, 0x1000 <bpf_link__detach_struct_ops+0x4>
    1068: fd 03 00 91  	mov	x29, sp
    106c: 42 00 40 f9  	ldr	x2, [x2]
    1070: e1 53 00 91  	add	x1, sp, #20
    1074: 00 18 40 b9  	ldr	w0, [x0, #24]
    1078: 43 00 40 f9  	ldr	x3, [x2]
    107c: e3 0f 00 f9  	str	x3, [sp, #24]
    1080: 03 00 80 d2  	mov	x3, #0
    1084: ff 17 00 b9  	str	wzr, [sp, #20]
    1088: 00 00 00 94  	bl	0x1088 <bpf_link__detach_struct_ops+0x28>
    108c: 80 00 00 34  	cbz	w0, 0x109c <bpf_link__detach_struct_ops+0x3c>
    1090: 00 00 00 94  	bl	0x1090 <bpf_link__detach_struct_ops+0x30>
    1094: 00 00 40 b9  	ldr	w0, [x0]
    1098: e0 03 00 4b  	neg	w0, w0
    109c: 01 00 00 90  	adrp	x1, 0x1000 <bpf_link__detach_struct_ops+0x3c>
    10a0: 21 00 40 f9  	ldr	x1, [x1]
    10a4: e3 0f 40 f9  	ldr	x3, [sp, #24]
    10a8: 22 00 40 f9  	ldr	x2, [x1]
    10ac: 63 00 02 eb  	subs	x3, x3, x2
    10b0: 02 00 80 d2  	mov	x2, #0
    10b4: 61 00 00 54  	b.ne	0x10c0 <bpf_link__detach_struct_ops+0x60>
    10b8: fd 7b c2 a8  	ldp	x29, x30, [sp], #32
    10bc: c0 03 5f d6  	ret
    10c0: 00 00 00 94  	bl	0x10c0 <bpf_link__detach_struct_ops+0x60>

00000000000010c4 <bpf_link__detach_fd>:
    10c4: fd 7b bf a9  	stp	x29, x30, [sp, #-16]!
    10c8: fd 03 00 91  	mov	x29, sp
    10cc: 00 18 40 b9  	ldr	w0, [x0, #24]
    10d0: 00 00 00 94  	bl	0x10d0 <bpf_link__detach_fd+0xc>
    10d4: 01 00 00 90  	adrp	x1, 0x1000 <bpf_link__detach_fd+0x10>
    10d8: 21 00 40 b9  	ldr	w1, [x1]
    10dc: 3f 00 7f f2  	tst	x1, #0x2
    10e0: 00 18 40 7a  	ccmp	w0, #0, #0, ne
    10e4: 6b 00 00 54  	b.lt	0x10f0 <bpf_link__detach_fd+0x2c>
    10e8: fd 7b c1 a8  	ldp	x29, x30, [sp], #16
    10ec: c0 03 5f d6  	ret
    10f0: 00 00 00 94  	bl	0x10f0 <bpf_link__detach_fd+0x2c>
    10f4: 00 00 40 b9  	ldr	w0, [x0]
    10f8: fd 7b c1 a8  	ldp	x29, x30, [sp], #16
    10fc: e0 03 00 4b  	neg	w0, w0
    1100: c0 03 5f d6  	ret

0000000000001104 <bpf_map__set_pin_path.part.0>:
    1104: fd 7b bf a9  	stp	x29, x30, [sp, #-16]!
    1108: fd 03 00 91  	mov	x29, sp
    110c: 00 00 00 94  	bl	0x110c <bpf_map__set_pin_path.part.0+0x8>
    1110: 00 00 40 b9  	ldr	w0, [x0]
    1114: fd 7b c1 a8  	ldp	x29, x30, [sp], #16
    1118: e0 03 00 4b  	neg	w0, w0
    111c: c0 03 5f d6  	ret

0000000000001120 <build_map_pin_path>:
    1120: 0c 06 82 d2  	mov	x12, #4144
    1124: ff 63 2c cb  	sub	sp, sp, x12
    1128: 02 00 00 90  	adrp	x2, 0x1000 <build_map_pin_path+0x8>
    112c: e5 03 01 aa  	mov	x5, x1
    1130: 3f 00 00 f1  	cmp	x1, #0
    1134: 01 00 00 90  	adrp	x1, 0x1000 <build_map_pin_path+0x14>
    1138: fd 7b 00 a9  	stp	x29, x30, [sp]
    113c: fd 03 00 91  	mov	x29, sp
    1140: 21 00 00 91  	add	x1, x1, #0
    1144: 42 00 40 f9  	ldr	x2, [x2]
    1148: f3 53 01 a9  	stp	x19, x20, [sp, #16]
    114c: 25 00 85 9a  	csel	x5, x1, x5, eq
    1150: 43 00 40 f9  	ldr	x3, [x2]
    1154: e3 17 08 f9  	str	x3, [sp, #4136]
    1158: 03 00 80 d2  	mov	x3, #0
    115c: f3 03 00 aa  	mov	x19, x0
    1160: 20 04 00 b4  	cbz	x0, 0x11e4 <build_map_pin_path+0xc4>
    1164: 06 00 40 f9  	ldr	x6, [x0]
    1168: f4 a3 00 91  	add	x20, sp, #40
    116c: 04 00 00 90  	adrp	x4, 0x1000 <build_map_pin_path+0x4c>
    1170: 03 00 82 d2  	mov	x3, #4096
    1174: e0 03 14 aa  	mov	x0, x20
    1178: 84 00 00 91  	add	x4, x4, #0
    117c: e1 03 03 aa  	mov	x1, x3
    1180: 22 00 80 52  	mov	w2, #1
    1184: 00 00 00 94  	bl	0x1184 <build_map_pin_path+0x64>
    1188: 60 03 f8 37  	tbnz	w0, #31, 0x11f4 <build_map_pin_path+0xd4>
    118c: 1f fc 3f 71  	cmp	w0, #4095
    1190: ec 02 00 54  	b.gt	0x11ec <build_map_pin_path+0xcc>
    1194: e0 03 14 aa  	mov	x0, x20
    1198: 00 00 00 94  	bl	0x1198 <build_map_pin_path+0x78>
    119c: f4 03 00 aa  	mov	x20, x0
    11a0: 00 03 00 b4  	cbz	x0, 0x1200 <build_map_pin_path+0xe0>
    11a4: 60 46 40 f9  	ldr	x0, [x19, #136]
    11a8: 00 00 00 94  	bl	0x11a8 <build_map_pin_path+0x88>
    11ac: 74 46 00 f9  	str	x20, [x19, #136]
    11b0: 00 00 80 52  	mov	w0, #0
    11b4: 01 00 00 90  	adrp	x1, 0x1000 <build_map_pin_path+0x94>
    11b8: 21 00 40 f9  	ldr	x1, [x1]
    11bc: e3 17 48 f9  	ldr	x3, [sp, #4136]
    11c0: 22 00 40 f9  	ldr	x2, [x1]
    11c4: 63 00 02 eb  	subs	x3, x3, x2
    11c8: 02 00 80 d2  	mov	x2, #0
    11cc: 81 01 00 54  	b.ne	0x11fc <build_map_pin_path+0xdc>
    11d0: 0c 06 82 d2  	mov	x12, #4144
    11d4: fd 7b 40 a9  	ldp	x29, x30, [sp]
    11d8: f3 53 41 a9  	ldp	x19, x20, [sp, #16]
    11dc: ff 63 2c 8b  	add	sp, sp, x12
    11e0: c0 03 5f d6  	ret
    11e4: 06 00 80 d2  	mov	x6, #0
    11e8: e0 ff ff 17  	b	0x1168 <build_map_pin_path+0x48>
    11ec: 60 04 80 12  	mov	w0, #-36
    11f0: f1 ff ff 17  	b	0x11b4 <build_map_pin_path+0x94>
    11f4: a0 02 80 12  	mov	w0, #-22
    11f8: ef ff ff 17  	b	0x11b4 <build_map_pin_path+0x94>
    11fc: 00 00 00 94  	bl	0x11fc <build_map_pin_path+0xdc>
    1200: c1 ff ff 97  	bl	0x1104 <bpf_map__set_pin_path.part.0>
    1204: ec ff ff 17  	b	0x11b4 <build_map_pin_path+0x94>
    1208: 1f 20 03 d5  	nop
    120c: 1f 20 03 d5  	nop

0000000000001210 <bpf_link_perf_detach>:
    1210: fd 7b bd a9  	stp	x29, x30, [sp, #-48]!
    1214: 02 00 80 52  	mov	w2, #0
    1218: 21 80 84 d2  	mov	x1, #9217
    121c: fd 03 00 91  	mov	x29, sp
    1220: f3 53 01 a9  	stp	x19, x20, [sp, #16]
    1224: f3 03 00 aa  	mov	x19, x0
    1228: 00 20 40 b9  	ldr	w0, [x0, #32]
    122c: f5 5b 02 a9  	stp	x21, x22, [sp, #32]
    1230: 00 00 00 94  	bl	0x1230 <bpf_link_perf_detach+0x20>
    1234: e0 01 f8 37  	tbnz	w0, #31, 0x1270 <bpf_link_perf_detach+0x60>
    1238: 61 1a 40 b9  	ldr	w1, [x19, #24]
    123c: 60 22 40 b9  	ldr	w0, [x19, #32]
    1240: 1f 00 01 6b  	cmp	w0, w1
    1244: 01 01 00 54  	b.ne	0x1264 <bpf_link_perf_detach+0x54>
    1248: 15 00 80 52  	mov	w21, #0
    124c: 00 00 00 94  	bl	0x124c <bpf_link_perf_detach+0x3c>
    1250: e0 03 15 2a  	mov	w0, w21
    1254: f3 53 41 a9  	ldp	x19, x20, [sp, #16]
    1258: f5 5b 42 a9  	ldp	x21, x22, [sp, #32]
    125c: fd 7b c3 a8  	ldp	x29, x30, [sp], #48
    1260: c0 03 5f d6  	ret
    1264: 00 00 00 94  	bl	0x1264 <bpf_link_perf_detach+0x54>
    1268: 60 1a 40 b9  	ldr	w0, [x19, #24]
    126c: f7 ff ff 17  	b	0x1248 <bpf_link_perf_detach+0x38>
    1270: 00 00 00 94  	bl	0x1270 <bpf_link_perf_detach+0x60>
    1274: f4 03 00 aa  	mov	x20, x0
    1278: 61 22 40 b9  	ldr	w1, [x19, #32]
    127c: 60 1a 40 b9  	ldr	w0, [x19, #24]
    1280: 96 02 40 b9  	ldr	w22, [x20]
    1284: f5 03 16 4b  	neg	w21, w22
    1288: 3f 00 00 6b  	cmp	w1, w0
    128c: 80 00 00 54  	b.eq	0x129c <bpf_link_perf_detach+0x8c>
    1290: e0 03 01 2a  	mov	w0, w1
    1294: 00 00 00 94  	bl	0x1294 <bpf_link_perf_detach+0x84>
    1298: 60 1a 40 b9  	ldr	w0, [x19, #24]
    129c: 00 00 00 94  	bl	0x129c <bpf_link_perf_detach+0x8c>
    12a0: df 02 00 71  	cmp	w22, #0
    12a4: 6d fd ff 54  	b.le	0x1250 <bpf_link_perf_detach+0x40>
    12a8: 96 02 00 b9  	str	w22, [x20]
    12ac: e0 03 15 2a  	mov	w0, w21
    12b0: f3 53 41 a9  	ldp	x19, x20, [sp, #16]
    12b4: f5 5b 42 a9  	ldp	x21, x22, [sp, #32]
    12b8: fd 7b c3 a8  	ldp	x29, x30, [sp], #48
    12bc: c0 03 5f d6  	ret

00000000000012c0 <bpf_link__destroy.part.0>:
    12c0: fd 7b be a9  	stp	x29, x30, [sp, #-32]!
    12c4: fd 03 00 91  	mov	x29, sp
    12c8: 01 70 40 39  	ldrb	w1, [x0, #28]
    12cc: f3 53 01 a9  	stp	x19, x20, [sp, #16]
    12d0: f3 03 00 aa  	mov	x19, x0
    12d4: 14 00 80 52  	mov	w20, #0
    12d8: a1 00 00 35  	cbnz	w1, 0x12ec <bpf_link__destroy.part.0+0x2c>
    12dc: 01 00 40 f9  	ldr	x1, [x0]
    12e0: 61 00 00 b4  	cbz	x1, 0x12ec <bpf_link__destroy.part.0+0x2c>
    12e4: 20 00 3f d6  	blr	x1
    12e8: f4 03 00 2a  	mov	w20, w0
    12ec: 60 0a 40 f9  	ldr	x0, [x19, #16]
    12f0: 40 00 00 b4  	cbz	x0, 0x12f8 <bpf_link__destroy.part.0+0x38>
    12f4: 00 00 00 94  	bl	0x12f4 <bpf_link__destroy.part.0+0x34>
    12f8: 61 06 40 f9  	ldr	x1, [x19, #8]
    12fc: e0 03 13 aa  	mov	x0, x19
    1300: 41 01 00 b4  	cbz	x1, 0x1328 <bpf_link__destroy.part.0+0x68>
    1304: 20 00 3f d6  	blr	x1
    1308: 94 00 f8 36  	tbz	w20, #31, 0x1318 <bpf_link__destroy.part.0+0x58>
    130c: 00 00 00 94  	bl	0x130c <bpf_link__destroy.part.0+0x4c>
    1310: e1 03 14 4b  	neg	w1, w20
    1314: 01 00 00 b9  	str	w1, [x0]
    1318: e0 03 14 2a  	mov	w0, w20
    131c: f3 53 41 a9  	ldp	x19, x20, [sp, #16]
    1320: fd 7b c2 a8  	ldp	x29, x30, [sp], #32
    1324: c0 03 5f d6  	ret
    1328: 00 00 00 94  	bl	0x1328 <bpf_link__destroy.part.0+0x68>
    132c: f7 ff ff 17  	b	0x1308 <bpf_link__destroy.part.0+0x48>

0000000000001330 <find_kcfg_type>:
    1330: fd 7b bd a9  	stp	x29, x30, [sp, #-48]!
    1334: fd 03 00 91  	mov	x29, sp
    1338: f3 53 01 a9  	stp	x19, x20, [sp, #16]
    133c: f4 03 00 aa  	mov	x20, x0
    1340: f5 13 00 f9  	str	x21, [sp, #32]
    1344: f5 03 02 aa  	mov	x21, x2
    1348: 00 00 00 94  	bl	0x1348 <find_kcfg_type+0x18>
    134c: f3 03 00 aa  	mov	x19, x0
    1350: 00 1c 40 39  	ldrb	w0, [x0, #7]
    1354: 00 10 00 12  	and	w0, w0, #0x1f
    1358: 00 20 00 51  	sub	w0, w0, #8
    135c: 00 3c 00 12  	and	w0, w0, #0xffff
    1360: 1f 0c 00 71  	cmp	w0, #3
    1364: 68 01 00 54  	b.hi	0x1390 <find_kcfg_type+0x60>
    1368: 61 0a 40 b9  	ldr	w1, [x19, #8]
    136c: e0 03 14 aa  	mov	x0, x20
    1370: 00 00 00 94  	bl	0x1370 <find_kcfg_type+0x40>
    1374: 01 1c 40 39  	ldrb	w1, [x0, #7]
    1378: f3 03 00 aa  	mov	x19, x0
    137c: 21 10 00 12  	and	w1, w1, #0x1f
    1380: 21 20 00 51  	sub	w1, w1, #8
    1384: 21 3c 00 12  	and	w1, w1, #0xffff
    1388: 3f 0c 00 71  	cmp	w1, #3
    138c: e9 fe ff 54  	b.ls	0x1368 <find_kcfg_type+0x38>
    1390: 61 02 40 b9  	ldr	w1, [x19]
    1394: e0 03 14 aa  	mov	x0, x20
    1398: 00 00 00 94  	bl	0x1398 <find_kcfg_type+0x68>
    139c: 55 00 00 b4  	cbz	x21, 0x13a4 <find_kcfg_type+0x74>
    13a0: bf 02 00 39  	strb	wzr, [x21]
    13a4: 61 1e 40 39  	ldrb	w1, [x19, #7]
    13a8: 21 10 00 12  	and	w1, w1, #0x1f
    13ac: 3f 0c 00 71  	cmp	w1, #3
    13b0: 40 01 00 54  	b.eq	0x13d8 <find_kcfg_type+0xa8>
    13b4: 3f 18 00 71  	cmp	w1, #6
    13b8: c0 03 00 54  	b.eq	0x1430 <find_kcfg_type+0x100>
    13bc: 00 00 80 52  	mov	w0, #0
    13c0: 3f 04 00 71  	cmp	w1, #1
    13c4: 80 01 00 54  	b.eq	0x13f4 <find_kcfg_type+0xc4>
    13c8: f3 53 41 a9  	ldp	x19, x20, [sp, #16]
    13cc: f5 13 40 f9  	ldr	x21, [sp, #32]
    13d0: fd 7b c3 a8  	ldp	x29, x30, [sp], #48
    13d4: c0 03 5f d6  	ret
    13d8: 60 16 40 b9  	ldr	w0, [x19, #20]
    13dc: 40 04 00 35  	cbnz	w0, 0x1464 <find_kcfg_type+0x134>
    13e0: 00 00 80 52  	mov	w0, #0
    13e4: f3 53 41 a9  	ldp	x19, x20, [sp, #16]
    13e8: f5 13 40 f9  	ldr	x21, [sp, #32]
    13ec: fd 7b c3 a8  	ldp	x29, x30, [sp], #48
    13f0: c0 03 5f d6  	ret
    13f4: 61 3e 40 39  	ldrb	w1, [x19, #15]
    13f8: 60 0a 40 b9  	ldr	w0, [x19, #8]
    13fc: 41 04 10 37  	tbnz	w1, #2, 0x1484 <find_kcfg_type+0x154>
    1400: 75 00 00 b4  	cbz	x21, 0x140c <find_kcfg_type+0xdc>
    1404: 21 00 00 12  	and	w1, w1, #0x1
    1408: a1 02 00 39  	strb	w1, [x21]
    140c: 1f 04 00 71  	cmp	w0, #1
    1410: c0 fd ff 54  	b.eq	0x13c8 <find_kcfg_type+0x98>
    1414: 01 04 00 51  	sub	w1, w0, #1
    1418: 3f 1c 00 71  	cmp	w1, #7
    141c: 28 fe ff 54  	b.hi	0x13e0 <find_kcfg_type+0xb0>
    1420: 3f 00 00 6a  	tst	w1, w0
    1424: e1 fd ff 54  	b.ne	0x13e0 <find_kcfg_type+0xb0>
    1428: 60 00 80 52  	mov	w0, #3
    142c: e7 ff ff 17  	b	0x13c8 <find_kcfg_type+0x98>
    1430: 61 0a 40 b9  	ldr	w1, [x19, #8]
    1434: 3f 10 00 71  	cmp	w1, #4
    1438: 41 fd ff 54  	b.ne	0x13e0 <find_kcfg_type+0xb0>
    143c: 01 00 00 90  	adrp	x1, 0x1000 <find_kcfg_type+0x10c>
    1440: 21 00 00 91  	add	x1, x1, #0
    1444: 00 00 00 94  	bl	0x1444 <find_kcfg_type+0x114>
    1448: 1f 00 00 71  	cmp	w0, #0
    144c: e0 17 9f 1a  	cset	w0, eq
    1450: f3 53 41 a9  	ldp	x19, x20, [sp, #16]
    1454: 00 74 1e 53  	lsl	w0, w0, #2
    1458: f5 13 40 f9  	ldr	x21, [sp, #32]
    145c: fd 7b c3 a8  	ldp	x29, x30, [sp], #48
    1460: c0 03 5f d6  	ret
    1464: 61 0e 40 b9  	ldr	w1, [x19, #12]
    1468: e0 03 14 aa  	mov	x0, x20
    146c: 02 00 80 d2  	mov	x2, #0
    1470: b0 ff ff 97  	bl	0x1330 <find_kcfg_type>
    1474: 1f 04 00 71  	cmp	w0, #1
    1478: 41 fb ff 54  	b.ne	0x13e0 <find_kcfg_type+0xb0>
    147c: a0 00 80 52  	mov	w0, #5
    1480: d2 ff ff 17  	b	0x13c8 <find_kcfg_type+0x98>
    1484: 1f 04 00 71  	cmp	w0, #1
    1488: e0 17 9f 1a  	cset	w0, eq
    148c: 00 78 1f 53  	lsl	w0, w0, #1
    1490: ce ff ff 17  	b	0x13c8 <find_kcfg_type+0x98>

0000000000001494 <libbpf_set_print>:
    1494: 01 00 00 90  	adrp	x1, 0x1000 <libbpf_set_print>
    1498: e2 03 00 aa  	mov	x2, x0
    149c: 20 00 40 f9  	ldr	x0, [x1]
    14a0: 22 00 00 f9  	str	x2, [x1]
    14a4: c0 03 5f d6  	ret
    14a8: 1f 20 03 d5  	nop
    14ac: 1f 20 03 d5  	nop

00000000000014b0 <libbpf_print>:
    14b0: fd 7b af a9  	stp	x29, x30, [sp, #-272]!
    14b4: 08 00 00 90  	adrp	x8, 0x1000 <libbpf_print+0x4>
    14b8: 09 00 00 90  	adrp	x9, 0x1000 <libbpf_print+0x8>
    14bc: fd 03 00 91  	mov	x29, sp
    14c0: 08 01 40 f9  	ldr	x8, [x8]
    14c4: e0 1b 80 3d  	str	q0, [sp, #96]
    14c8: e1 1f 80 3d  	str	q1, [sp, #112]
    14cc: e2 23 80 3d  	str	q2, [sp, #128]
    14d0: e3 27 80 3d  	str	q3, [sp, #144]
    14d4: e4 2b 80 3d  	str	q4, [sp, #160]
    14d8: e5 2f 80 3d  	str	q5, [sp, #176]
    14dc: e6 33 80 3d  	str	q6, [sp, #192]
    14e0: e7 37 80 3d  	str	q7, [sp, #208]
    14e4: e2 0f 0e a9  	stp	x2, x3, [sp, #224]
    14e8: e4 17 0f a9  	stp	x4, x5, [sp, #240]
    14ec: e6 1f 10 a9  	stp	x6, x7, [sp, #256]
    14f0: 23 01 40 f9  	ldr	x3, [x9]
    14f4: 02 01 40 f9  	ldr	x2, [x8]
    14f8: e2 2f 00 f9  	str	x2, [sp, #88]
    14fc: 02 00 80 d2  	mov	x2, #0
    1500: a3 01 00 b4  	cbz	x3, 0x1534 <libbpf_print+0x84>
    1504: e4 0f 80 12  	mov	w4, #-128
    1508: e5 05 80 12  	mov	w5, #-48
    150c: e5 13 0a 29  	stp	w5, w4, [sp, #80]
    1510: e4 e3 00 91  	add	x4, sp, #56
    1514: e2 43 04 91  	add	x2, sp, #272
    1518: e6 83 03 91  	add	x6, sp, #224
    151c: e2 8b 03 a9  	stp	x2, x2, [sp, #56]
    1520: e2 43 00 91  	add	x2, sp, #16
    1524: e6 27 00 f9  	str	x6, [sp, #72]
    1528: 80 04 40 ad  	ldp	q0, q1, [x4]
    152c: 40 04 00 ad  	stp	q0, q1, [x2]
    1530: 60 00 3f d6  	blr	x3
    1534: 00 00 00 90  	adrp	x0, 0x1000 <libbpf_print+0x84>
    1538: 00 00 40 f9  	ldr	x0, [x0]
    153c: e2 2f 40 f9  	ldr	x2, [sp, #88]
    1540: 01 00 40 f9  	ldr	x1, [x0]
    1544: 42 00 01 eb  	subs	x2, x2, x1
    1548: 01 00 80 d2  	mov	x1, #0
    154c: 61 00 00 54  	b.ne	0x1558 <libbpf_print+0xa8>
    1550: fd 7b d1 a8  	ldp	x29, x30, [sp], #272
    1554: c0 03 5f d6  	ret
    1558: 00 00 00 94  	bl	0x1558 <libbpf_print+0xa8>
    155c: 1f 20 03 d5  	nop

0000000000001560 <elf_sec_hdr>:
    1560: 21 04 00 b4  	cbz	x1, 0x15e4 <elf_sec_hdr+0x84>
    1564: fd 7b bd a9  	stp	x29, x30, [sp, #-48]!
    1568: fd 03 00 91  	mov	x29, sp
    156c: f3 53 01 a9  	stp	x19, x20, [sp, #16]
    1570: f3 03 01 aa  	mov	x19, x1
    1574: e1 03 02 aa  	mov	x1, x2
    1578: f4 03 02 aa  	mov	x20, x2
    157c: f5 13 00 f9  	str	x21, [sp, #32]
    1580: f5 03 00 aa  	mov	x21, x0
    1584: e0 03 13 aa  	mov	x0, x19
    1588: 00 00 00 94  	bl	0x1588 <elf_sec_hdr+0x28>
    158c: e1 03 00 aa  	mov	x1, x0
    1590: 00 00 80 52  	mov	w0, #0
    1594: 9f 02 01 eb  	cmp	x20, x1
    1598: a1 00 00 54  	b.ne	0x15ac <elf_sec_hdr+0x4c>
    159c: f3 53 41 a9  	ldp	x19, x20, [sp, #16]
    15a0: f5 13 40 f9  	ldr	x21, [sp, #32]
    15a4: fd 7b c3 a8  	ldp	x29, x30, [sp], #48
    15a8: c0 03 5f d6  	ret
    15ac: e0 03 13 aa  	mov	x0, x19
    15b0: 00 00 00 94  	bl	0x15b0 <elf_sec_hdr+0x50>
    15b4: f3 03 00 aa  	mov	x19, x0
    15b8: 00 00 80 12  	mov	w0, #-1
    15bc: 00 00 00 94  	bl	0x15bc <elf_sec_hdr+0x5c>
    15c0: e4 03 00 aa  	mov	x4, x0
    15c4: e2 03 13 aa  	mov	x2, x19
    15c8: 00 00 80 52  	mov	w0, #0
    15cc: a3 62 07 91  	add	x3, x21, #472
    15d0: 01 00 00 90  	adrp	x1, 0x1000 <elf_sec_hdr+0x70>
    15d4: 21 00 00 91  	add	x1, x1, #0
    15d8: 00 00 00 94  	bl	0x15d8 <elf_sec_hdr+0x78>
    15dc: a0 02 80 12  	mov	w0, #-22
    15e0: ef ff ff 17  	b	0x159c <elf_sec_hdr+0x3c>
    15e4: a0 02 80 12  	mov	w0, #-22
    15e8: c0 03 5f d6  	ret
    15ec: 1f 20 03 d5  	nop

00000000000015f0 <bpf_get_map_info_from_fdinfo>:
    15f0: 0c 0a 84 d2  	mov	x12, #8272
    15f4: ff 63 2c cb  	sub	sp, sp, x12
    15f8: 02 00 00 90  	adrp	x2, 0x1000 <bpf_get_map_info_from_fdinfo+0x8>
    15fc: fd 7b 00 a9  	stp	x29, x30, [sp]
    1600: fd 03 00 91  	mov	x29, sp
    1604: 42 00 40 f9  	ldr	x2, [x2]
    1608: f3 53 01 a9  	stp	x19, x20, [sp, #16]
    160c: f3 03 00 2a  	mov	w19, w0
    1610: f5 5b 02 a9  	stp	x21, x22, [sp, #32]
    1614: f4 23 01 91  	add	x20, sp, #72
    1618: f5 03 01 aa  	mov	x21, x1
    161c: 40 00 40 f9  	ldr	x0, [x2]
    1620: e0 27 10 f9  	str	x0, [sp, #8264]
    1624: 00 00 80 d2  	mov	x0, #0
    1628: 00 00 00 94  	bl	0x1628 <bpf_get_map_info_from_fdinfo+0x38>
    162c: e5 03 00 2a  	mov	w5, w0
    1630: 03 00 82 d2  	mov	x3, #4096
    1634: e6 03 13 2a  	mov	w6, w19
    1638: e1 03 03 aa  	mov	x1, x3
    163c: e0 03 14 aa  	mov	x0, x20
    1640: 04 00 00 90  	adrp	x4, 0x1000 <bpf_get_map_info_from_fdinfo+0x50>
    1644: 22 00 80 52  	mov	w2, #1
    1648: 84 00 00 91  	add	x4, x4, #0
    164c: 00 00 00 94  	bl	0x164c <bpf_get_map_info_from_fdinfo+0x5c>
    1650: 00 04 00 4f  	movi	v0.4s, #0
    1654: 01 00 00 90  	adrp	x1, 0x1000 <bpf_get_map_info_from_fdinfo+0x64>
    1658: e0 03 14 aa  	mov	x0, x20
    165c: 21 00 00 91  	add	x1, x1, #0
    1660: a0 02 00 ad  	stp	q0, q0, [x21]
    1664: a0 02 01 ad  	stp	q0, q0, [x21, #32]
    1668: a0 12 80 3d  	str	q0, [x21, #64]
    166c: 00 00 00 94  	bl	0x166c <bpf_get_map_info_from_fdinfo+0x7c>
    1670: a0 0a 00 b4  	cbz	x0, 0x17c4 <bpf_get_map_info_from_fdinfo+0x1d4>
    1674: f6 03 00 aa  	mov	x22, x0
    1678: f4 13 01 91  	add	x20, sp, #68
    167c: 00 09 82 d2  	mov	x0, #4168
    1680: f3 63 20 8b  	add	x19, sp, x0
    1684: f7 63 03 a9  	stp	x23, x24, [sp, #48]
    1688: 17 00 00 90  	adrp	x23, 0x1000 <bpf_get_map_info_from_fdinfo+0x98>
    168c: 18 00 00 90  	adrp	x24, 0x1000 <bpf_get_map_info_from_fdinfo+0x9c>
    1690: f7 02 00 91  	add	x23, x23, #0
    1694: 18 03 00 91  	add	x24, x24, #0
    1698: e2 03 16 aa  	mov	x2, x22
    169c: e0 03 13 aa  	mov	x0, x19
    16a0: 01 00 82 52  	mov	w1, #4096
    16a4: 00 00 00 94  	bl	0x16a4 <bpf_get_map_info_from_fdinfo+0xb4>
    16a8: c0 01 00 b4  	cbz	x0, 0x16e0 <bpf_get_map_info_from_fdinfo+0xf0>
    16ac: e2 03 14 aa  	mov	x2, x20
    16b0: e1 03 17 aa  	mov	x1, x23
    16b4: e0 03 13 aa  	mov	x0, x19
    16b8: 00 00 00 94  	bl	0x16b8 <bpf_get_map_info_from_fdinfo+0xc8>
    16bc: 1f 04 00 71  	cmp	w0, #1
    16c0: 41 03 00 54  	b.ne	0x1728 <bpf_get_map_info_from_fdinfo+0x138>
    16c4: e0 47 40 b9  	ldr	w0, [sp, #68]
    16c8: e2 03 16 aa  	mov	x2, x22
    16cc: a0 02 00 b9  	str	w0, [x21]
    16d0: 01 00 82 52  	mov	w1, #4096
    16d4: e0 03 13 aa  	mov	x0, x19
    16d8: 00 00 00 94  	bl	0x16d8 <bpf_get_map_info_from_fdinfo+0xe8>
    16dc: 80 fe ff b5  	cbnz	x0, 0x16ac <bpf_get_map_info_from_fdinfo+0xbc>
    16e0: e0 03 16 aa  	mov	x0, x22
    16e4: 00 00 00 94  	bl	0x16e4 <bpf_get_map_info_from_fdinfo+0xf4>
    16e8: f7 63 43 a9  	ldp	x23, x24, [sp, #48]
    16ec: 13 00 80 52  	mov	w19, #0
    16f0: 00 00 00 90  	adrp	x0, 0x1000 <bpf_get_map_info_from_fdinfo+0x100>
    16f4: 00 00 40 f9  	ldr	x0, [x0]
    16f8: e2 27 50 f9  	ldr	x2, [sp, #8264]
    16fc: 01 00 40 f9  	ldr	x1, [x0]
    1700: 42 00 01 eb  	subs	x2, x2, x1
    1704: 01 00 80 d2  	mov	x1, #0
    1708: 41 07 00 54  	b.ne	0x17f0 <bpf_get_map_info_from_fdinfo+0x200>
    170c: e0 03 13 2a  	mov	w0, w19
    1710: 0c 0a 84 d2  	mov	x12, #8272
    1714: fd 7b 40 a9  	ldp	x29, x30, [sp]
    1718: f3 53 41 a9  	ldp	x19, x20, [sp, #16]
    171c: f5 5b 42 a9  	ldp	x21, x22, [sp, #32]
    1720: ff 63 2c 8b  	add	sp, sp, x12
    1724: c0 03 5f d6  	ret
    1728: e2 03 14 aa  	mov	x2, x20
    172c: e1 03 18 aa  	mov	x1, x24
    1730: e0 03 13 aa  	mov	x0, x19
    1734: 00 00 00 94  	bl	0x1734 <bpf_get_map_info_from_fdinfo+0x144>
    1738: 1f 04 00 71  	cmp	w0, #1
    173c: 81 00 00 54  	b.ne	0x174c <bpf_get_map_info_from_fdinfo+0x15c>
    1740: e0 47 40 b9  	ldr	w0, [sp, #68]
    1744: a0 0a 00 b9  	str	w0, [x21, #8]
    1748: d4 ff ff 17  	b	0x1698 <bpf_get_map_info_from_fdinfo+0xa8>
    174c: 01 00 00 90  	adrp	x1, 0x1000 <bpf_get_map_info_from_fdinfo+0x15c>
    1750: e2 03 14 aa  	mov	x2, x20
    1754: 21 00 00 91  	add	x1, x1, #0
    1758: e0 03 13 aa  	mov	x0, x19
    175c: 00 00 00 94  	bl	0x175c <bpf_get_map_info_from_fdinfo+0x16c>
    1760: 1f 04 00 71  	cmp	w0, #1
    1764: 81 00 00 54  	b.ne	0x1774 <bpf_get_map_info_from_fdinfo+0x184>
    1768: e0 47 40 b9  	ldr	w0, [sp, #68]
    176c: a0 0e 00 b9  	str	w0, [x21, #12]
    1770: ca ff ff 17  	b	0x1698 <bpf_get_map_info_from_fdinfo+0xa8>
    1774: 01 00 00 90  	adrp	x1, 0x1000 <bpf_get_map_info_from_fdinfo+0x184>
    1778: e2 03 14 aa  	mov	x2, x20
    177c: 21 00 00 91  	add	x1, x1, #0
    1780: e0 03 13 aa  	mov	x0, x19
    1784: 00 00 00 94  	bl	0x1784 <bpf_get_map_info_from_fdinfo+0x194>
    1788: 1f 04 00 71  	cmp	w0, #1
    178c: 81 00 00 54  	b.ne	0x179c <bpf_get_map_info_from_fdinfo+0x1ac>
    1790: e0 47 40 b9  	ldr	w0, [sp, #68]
    1794: a0 12 00 b9  	str	w0, [x21, #16]
    1798: c0 ff ff 17  	b	0x1698 <bpf_get_map_info_from_fdinfo+0xa8>
    179c: 01 00 00 90  	adrp	x1, 0x1000 <bpf_get_map_info_from_fdinfo+0x1ac>
    17a0: e2 03 14 aa  	mov	x2, x20
    17a4: 21 00 00 91  	add	x1, x1, #0
    17a8: e0 03 13 aa  	mov	x0, x19
    17ac: 00 00 00 94  	bl	0x17ac <bpf_get_map_info_from_fdinfo+0x1bc>
    17b0: 1f 04 00 71  	cmp	w0, #1
    17b4: 21 f7 ff 54  	b.ne	0x1698 <bpf_get_map_info_from_fdinfo+0xa8>
    17b8: e0 47 40 b9  	ldr	w0, [sp, #68]
    17bc: a0 16 00 b9  	str	w0, [x21, #20]
    17c0: b6 ff ff 17  	b	0x1698 <bpf_get_map_info_from_fdinfo+0xa8>
    17c4: 00 00 00 94  	bl	0x17c4 <bpf_get_map_info_from_fdinfo+0x1d4>
    17c8: e3 03 00 aa  	mov	x3, x0
    17cc: e2 03 14 aa  	mov	x2, x20
    17d0: 01 00 00 90  	adrp	x1, 0x1000 <bpf_get_map_info_from_fdinfo+0x1e0>
    17d4: 00 00 80 52  	mov	w0, #0
    17d8: 21 00 00 91  	add	x1, x1, #0
    17dc: 73 00 40 b9  	ldr	w19, [x3]
    17e0: f3 03 13 4b  	neg	w19, w19
    17e4: e3 03 13 2a  	mov	w3, w19
    17e8: 00 00 00 94  	bl	0x17e8 <bpf_get_map_info_from_fdinfo+0x1f8>
    17ec: c1 ff ff 17  	b	0x16f0 <bpf_get_map_info_from_fdinfo+0x100>
    17f0: f7 63 03 a9  	stp	x23, x24, [sp, #48]
    17f4: 00 00 00 94  	bl	0x17f4 <bpf_get_map_info_from_fdinfo+0x204>
    17f8: 1f 20 03 d5  	nop
    17fc: 1f 20 03 d5  	nop

0000000000001800 <kernel_supports.part.0>:
    1800: fd 7b bc a9  	stp	x29, x30, [sp, #-64]!
    1804: fd 03 00 91  	mov	x29, sp
    1808: f3 53 01 a9  	stp	x19, x20, [sp, #16]
    180c: f3 03 00 2a  	mov	w19, w0
    1810: 60 46 20 8b  	add	x0, x19, w0, uxtw #1
    1814: f5 5b 02 a9  	stp	x21, x22, [sp, #32]
    1818: 15 00 00 90  	adrp	x21, 0x1000 <kernel_supports.part.0+0x18>
    181c: b6 02 00 91  	add	x22, x21, #0
    1820: 14 f0 7d d3  	lsl	x20, x0, #3
    1824: d6 22 00 91  	add	x22, x22, #8
    1828: f7 1b 00 f9  	str	x23, [sp, #48]
    182c: d7 02 14 8b  	add	x23, x22, x20
    1830: e0 12 40 b9  	ldr	w0, [x23, #16]
    1834: e0 00 00 35  	cbnz	w0, 0x1850 <kernel_supports.part.0+0x50>
    1838: e0 06 40 f9  	ldr	x0, [x23, #8]
    183c: 00 00 3f d6  	blr	x0
    1840: 1f 00 00 71  	cmp	w0, #0
    1844: ed 01 00 54  	b.le	0x1880 <kernel_supports.part.0+0x80>
    1848: 20 00 80 52  	mov	w0, #1
    184c: e0 12 00 b9  	str	w0, [x23, #16]
    1850: b5 02 00 91  	add	x21, x21, #0
    1854: 73 06 13 8b  	add	x19, x19, x19, lsl #1
    1858: b5 22 00 91  	add	x21, x21, #8
    185c: b3 0e 13 8b  	add	x19, x21, x19, lsl #3
    1860: f5 5b 42 a9  	ldp	x21, x22, [sp, #32]
    1864: 60 12 40 b9  	ldr	w0, [x19, #16]
    1868: f3 53 41 a9  	ldp	x19, x20, [sp, #16]
    186c: 1f 04 00 71  	cmp	w0, #1
    1870: e0 17 9f 1a  	cset	w0, eq
    1874: f7 1b 40 f9  	ldr	x23, [sp, #48]
    1878: fd 7b c4 a8  	ldp	x29, x30, [sp], #64
    187c: c0 03 5f d6  	ret
    1880: 81 00 00 54  	b.ne	0x1890 <kernel_supports.part.0+0x90>
    1884: 40 00 80 52  	mov	w0, #2
    1888: e0 12 00 b9  	str	w0, [x23, #16]
    188c: f1 ff ff 17  	b	0x1850 <kernel_supports.part.0+0x50>
    1890: c2 6a 74 f8  	ldr	x2, [x22, x20]
    1894: e3 03 00 2a  	mov	w3, w0
    1898: 01 00 00 90  	adrp	x1, 0x1000 <kernel_supports.part.0+0x98>
    189c: 00 00 80 52  	mov	w0, #0
    18a0: 21 00 00 91  	add	x1, x1, #0
    18a4: 00 00 00 94  	bl	0x18a4 <kernel_supports.part.0+0xa4>
    18a8: f7 ff ff 17  	b	0x1884 <kernel_supports.part.0+0x84>
    18ac: 1f 20 03 d5  	nop

00000000000018b0 <probe_prog_bind_map>:
    18b0: fd 7b aa a9  	stp	x29, x30, [sp, #-352]!
    18b4: 01 00 00 90  	adrp	x1, 0x1000 <probe_prog_bind_map+0x4>
    18b8: e3 16 80 d2  	mov	x3, #183
    18bc: fd 03 00 91  	mov	x29, sp
    18c0: 21 00 40 f9  	ldr	x1, [x1]
    18c4: e0 c3 00 91  	add	x0, sp, #48
    18c8: 00 04 00 4f  	movi	v0.4s, #0
    18cc: f3 53 01 a9  	stp	x19, x20, [sp, #16]
    18d0: a2 12 80 d2  	mov	x2, #149
    18d4: 25 00 40 f9  	ldr	x5, [x1]
    18d8: e5 af 00 f9  	str	x5, [sp, #344]
    18dc: 05 00 80 d2  	mov	x5, #0
    18e0: 81 00 80 d2  	mov	x1, #4
    18e4: 44 00 80 52  	mov	w4, #2
    18e8: 01 04 c0 f2  	movk	x1, #32, lsl #32
    18ec: 1f 18 00 f9  	str	xzr, [x0, #48]
    18f0: 33 00 80 52  	mov	w19, #1
    18f4: 00 00 00 ad  	stp	q0, q0, [x0]
    18f8: 00 08 80 3d  	str	q0, [x0, #32]
    18fc: e4 3b 00 b9  	str	w4, [sp, #56]
    1900: e1 23 00 f9  	str	x1, [sp, #64]
    1904: f3 4b 00 b9  	str	w19, [sp, #72]
    1908: e3 8b 0c a9  	stp	x3, x2, [sp, #200]
    190c: 00 00 00 94  	bl	0x190c <probe_prog_bind_map+0x5c>
    1910: 40 05 f8 37  	tbnz	w0, #31, 0x19b8 <probe_prog_bind_map+0x108>
    1914: 00 04 00 4f  	movi	v0.4s, #0
    1918: f4 03 00 2a  	mov	w20, w0
    191c: e0 a3 01 91  	add	x0, sp, #104
    1920: e4 23 03 91  	add	x4, sp, #200
    1924: 03 00 00 90  	adrp	x3, 0x1000 <probe_prog_bind_map+0x74>
    1928: 63 00 00 91  	add	x3, x3, #0
    192c: f5 13 00 f9  	str	x21, [sp, #32]
    1930: 45 00 80 d2  	mov	x5, #2
    1934: 02 00 80 d2  	mov	x2, #0
    1938: 01 00 80 d2  	mov	x1, #0
    193c: 00 00 00 ad  	stp	q0, q0, [x0]
    1940: 00 00 01 ad  	stp	q0, q0, [x0, #32]
    1944: 00 00 02 ad  	stp	q0, q0, [x0, #64]
    1948: f3 6b 00 b9  	str	w19, [sp, #104]
    194c: e4 97 07 a9  	stp	x4, x5, [sp, #120]
    1950: e3 47 00 f9  	str	x3, [sp, #136]
    1954: 00 00 00 94  	bl	0x1954 <probe_prog_bind_map+0xa4>
    1958: f5 03 00 2a  	mov	w21, w0
    195c: 00 05 f8 37  	tbnz	w0, #31, 0x19fc <probe_prog_bind_map+0x14c>
    1960: e1 03 14 2a  	mov	w1, w20
    1964: 02 00 80 d2  	mov	x2, #0
    1968: 00 00 00 94  	bl	0x1968 <probe_prog_bind_map+0xb8>
    196c: f3 03 00 2a  	mov	w19, w0
    1970: f3 03 33 2a  	mvn	w19, w19
    1974: e0 03 14 2a  	mov	w0, w20
    1978: 00 00 00 94  	bl	0x1978 <probe_prog_bind_map+0xc8>
    197c: e0 03 15 2a  	mov	w0, w21
    1980: 00 00 00 94  	bl	0x1980 <probe_prog_bind_map+0xd0>
    1984: f5 13 40 f9  	ldr	x21, [sp, #32]
    1988: 73 7e 1f 53  	lsr	w19, w19, #31
    198c: 00 00 00 90  	adrp	x0, 0x1000 <probe_prog_bind_map+0xdc>
    1990: 00 00 40 f9  	ldr	x0, [x0]
    1994: e2 af 40 f9  	ldr	x2, [sp, #344]
    1998: 01 00 40 f9  	ldr	x1, [x0]
    199c: 42 00 01 eb  	subs	x2, x2, x1
    19a0: 01 00 80 d2  	mov	x1, #0
    19a4: 61 03 00 54  	b.ne	0x1a10 <probe_prog_bind_map+0x160>
    19a8: e0 03 13 2a  	mov	w0, w19
    19ac: f3 53 41 a9  	ldp	x19, x20, [sp, #16]
    19b0: fd 7b d6 a8  	ldp	x29, x30, [sp], #352
    19b4: c0 03 5f d6  	ret
    19b8: 00 00 00 94  	bl	0x19b8 <probe_prog_bind_map+0x108>
    19bc: 14 00 40 b9  	ldr	w20, [x0]
    19c0: e1 63 03 91  	add	x1, sp, #216
    19c4: 02 10 80 52  	mov	w2, #128
    19c8: f3 03 14 4b  	neg	w19, w20
    19cc: e0 03 13 2a  	mov	w0, w19
    19d0: 00 00 00 94  	bl	0x19d0 <probe_prog_bind_map+0x120>
    19d4: 02 00 00 90  	adrp	x2, 0x1000 <probe_prog_bind_map+0x124>
    19d8: 42 00 00 91  	add	x2, x2, #0
    19dc: e3 03 00 aa  	mov	x3, x0
    19e0: e4 03 14 2a  	mov	w4, w20
    19e4: 42 c0 03 91  	add	x2, x2, #240
    19e8: 01 00 00 90  	adrp	x1, 0x1000 <probe_prog_bind_map+0x138>
    19ec: 00 00 80 52  	mov	w0, #0
    19f0: 21 00 00 91  	add	x1, x1, #0
    19f4: 00 00 00 94  	bl	0x19f4 <probe_prog_bind_map+0x144>
    19f8: e5 ff ff 17  	b	0x198c <probe_prog_bind_map+0xdc>
    19fc: e0 03 14 2a  	mov	w0, w20
    1a00: 13 00 80 52  	mov	w19, #0
    1a04: 00 00 00 94  	bl	0x1a04 <probe_prog_bind_map+0x154>
    1a08: f5 13 40 f9  	ldr	x21, [sp, #32]
    1a0c: e0 ff ff 17  	b	0x198c <probe_prog_bind_map+0xdc>
    1a10: f5 13 00 f9  	str	x21, [sp, #32]
    1a14: 00 00 00 94  	bl	0x1a14 <probe_prog_bind_map+0x164>
    1a18: 1f 20 03 d5  	nop
    1a1c: 1f 20 03 d5  	nop

0000000000001a20 <probe_kern_global_data>:
    1a20: fd 7b a9 a9  	stp	x29, x30, [sp, #-368]!
    1a24: 01 00 00 90  	adrp	x1, 0x1000 <probe_kern_global_data+0x4>
    1a28: 43 2f 80 d2  	mov	x3, #378
    1a2c: fd 03 00 91  	mov	x29, sp
    1a30: 21 00 40 f9  	ldr	x1, [x1]
    1a34: e0 a3 00 91  	add	x0, sp, #40
    1a38: 00 04 00 4f  	movi	v0.4s, #0
    1a3c: f3 53 01 a9  	stp	x19, x20, [sp, #16]
    1a40: 86 00 80 d2  	mov	x6, #4
    1a44: 22 00 40 f9  	ldr	x2, [x1]
    1a48: e2 b7 00 f9  	str	x2, [sp, #360]
    1a4c: 02 00 80 d2  	mov	x2, #0
    1a50: 05 23 84 d2  	mov	x5, #8472
    1a54: 04 02 c0 d2  	mov	x4, #68719476736
    1a58: 43 05 c0 f2  	movk	x3, #42, lsl #32
    1a5c: e2 16 80 d2  	mov	x2, #183
    1a60: a1 12 80 d2  	mov	x1, #149
    1a64: 47 00 80 52  	mov	w7, #2
    1a68: 06 04 c0 f2  	movk	x6, #32, lsl #32
    1a6c: 1f 18 00 f9  	str	xzr, [x0, #48]
    1a70: 33 00 80 52  	mov	w19, #1
    1a74: 00 00 00 ad  	stp	q0, q0, [x0]
    1a78: 00 08 80 3d  	str	q0, [x0, #32]
    1a7c: e7 33 00 b9  	str	w7, [sp, #48]
    1a80: e6 1f 00 f9  	str	x6, [sp, #56]
    1a84: f3 43 00 b9  	str	w19, [sp, #64]
    1a88: e5 13 0c a9  	stp	x5, x4, [sp, #192]
    1a8c: e3 0b 0d a9  	stp	x3, x2, [sp, #208]
    1a90: e1 73 00 f9  	str	x1, [sp, #224]
    1a94: 00 00 00 94  	bl	0x1a94 <probe_kern_global_data+0x74>
    1a98: c0 04 f8 37  	tbnz	w0, #31, 0x1b30 <probe_kern_global_data+0x110>
    1a9c: 00 04 00 4f  	movi	v0.4s, #0
    1aa0: f4 03 00 2a  	mov	w20, w0
    1aa4: e0 83 01 91  	add	x0, sp, #96
    1aa8: e4 03 03 91  	add	x4, sp, #192
    1aac: 03 00 00 90  	adrp	x3, 0x1000 <probe_kern_global_data+0x8c>
    1ab0: 63 00 00 91  	add	x3, x3, #0
    1ab4: a5 00 80 d2  	mov	x5, #5
    1ab8: 02 00 80 d2  	mov	x2, #0
    1abc: 01 00 80 d2  	mov	x1, #0
    1ac0: 00 00 00 ad  	stp	q0, q0, [x0]
    1ac4: 00 00 01 ad  	stp	q0, q0, [x0, #32]
    1ac8: 00 00 02 ad  	stp	q0, q0, [x0, #64]
    1acc: f3 63 00 b9  	str	w19, [sp, #96]
    1ad0: e4 17 07 a9  	stp	x4, x5, [sp, #112]
    1ad4: e3 43 00 f9  	str	x3, [sp, #128]
    1ad8: f4 c7 00 b9  	str	w20, [sp, #196]
    1adc: 00 00 00 94  	bl	0x1adc <probe_kern_global_data+0xbc>
    1ae0: f3 03 00 2a  	mov	w19, w0
    1ae4: e0 03 14 2a  	mov	w0, w20
    1ae8: 00 00 00 94  	bl	0x1ae8 <probe_kern_global_data+0xc8>
    1aec: d3 01 f8 36  	tbz	w19, #31, 0x1b24 <probe_kern_global_data+0x104>
    1af0: f3 03 33 2a  	mvn	w19, w19
    1af4: 73 7e 1f 53  	lsr	w19, w19, #31
    1af8: 00 00 00 90  	adrp	x0, 0x1000 <probe_kern_global_data+0xd8>
    1afc: 00 00 40 f9  	ldr	x0, [x0]
    1b00: e2 b7 40 f9  	ldr	x2, [sp, #360]
    1b04: 01 00 40 f9  	ldr	x1, [x0]
    1b08: 42 00 01 eb  	subs	x2, x2, x1
    1b0c: 01 00 80 d2  	mov	x1, #0
    1b10: 21 03 00 54  	b.ne	0x1b74 <probe_kern_global_data+0x154>
    1b14: e0 03 13 2a  	mov	w0, w19
    1b18: f3 53 41 a9  	ldp	x19, x20, [sp, #16]
    1b1c: fd 7b d7 a8  	ldp	x29, x30, [sp], #368
    1b20: c0 03 5f d6  	ret
    1b24: e0 03 13 2a  	mov	w0, w19
    1b28: 00 00 00 94  	bl	0x1b28 <probe_kern_global_data+0x108>
    1b2c: f1 ff ff 17  	b	0x1af0 <probe_kern_global_data+0xd0>
    1b30: 00 00 00 94  	bl	0x1b30 <probe_kern_global_data+0x110>
    1b34: 14 00 40 b9  	ldr	w20, [x0]
    1b38: e1 a3 03 91  	add	x1, sp, #232
    1b3c: 02 10 80 52  	mov	w2, #128
    1b40: f3 03 14 4b  	neg	w19, w20
    1b44: e0 03 13 2a  	mov	w0, w19
    1b48: 00 00 00 94  	bl	0x1b48 <probe_kern_global_data+0x128>
    1b4c: 02 00 00 90  	adrp	x2, 0x1000 <probe_kern_global_data+0x12c>
    1b50: 42 00 00 91  	add	x2, x2, #0
    1b54: e3 03 00 aa  	mov	x3, x0
    1b58: e4 03 14 2a  	mov	w4, w20
    1b5c: 42 20 04 91  	add	x2, x2, #264
    1b60: 01 00 00 90  	adrp	x1, 0x1000 <probe_kern_global_data+0x140>
    1b64: 00 00 80 52  	mov	w0, #0
    1b68: 21 00 00 91  	add	x1, x1, #0
    1b6c: 00 00 00 94  	bl	0x1b6c <probe_kern_global_data+0x14c>
    1b70: e2 ff ff 17  	b	0x1af8 <probe_kern_global_data+0xd8>
    1b74: 00 00 00 94  	bl	0x1b74 <probe_kern_global_data+0x154>
    1b78: 1f 20 03 d5  	nop
    1b7c: 1f 20 03 d5  	nop

0000000000001b80 <pr_perm_msg>:
    1b80: fd 7b b6 a9  	stp	x29, x30, [sp, #-160]!
    1b84: 01 00 00 90  	adrp	x1, 0x1000 <pr_perm_msg+0x4>
    1b88: fd 03 00 91  	mov	x29, sp
    1b8c: 21 00 40 f9  	ldr	x1, [x1]
    1b90: 22 00 40 f9  	ldr	x2, [x1]
    1b94: e2 4f 00 f9  	str	x2, [sp, #152]
    1b98: 02 00 80 d2  	mov	x2, #0
    1b9c: 1f 04 00 31  	cmn	w0, #1
    1ba0: 40 01 00 54  	b.eq	0x1bc8 <pr_perm_msg+0x48>
    1ba4: 00 00 00 90  	adrp	x0, 0x1000 <pr_perm_msg+0x24>
    1ba8: 00 00 40 f9  	ldr	x0, [x0]
    1bac: e2 4f 40 f9  	ldr	x2, [sp, #152]
    1bb0: 01 00 40 f9  	ldr	x1, [x0]
    1bb4: 42 00 01 eb  	subs	x2, x2, x1
    1bb8: 01 00 80 d2  	mov	x1, #0
    1bbc: a1 06 00 54  	b.ne	0x1c90 <pr_perm_msg+0x110>
    1bc0: fd 7b ca a8  	ldp	x29, x30, [sp], #160
    1bc4: c0 03 5f d6  	ret
    1bc8: 00 00 00 94  	bl	0x1bc8 <pr_perm_msg+0x48>
    1bcc: c0 fe ff 35  	cbnz	w0, 0x1ba4 <pr_perm_msg+0x24>
    1bd0: e1 83 00 91  	add	x1, sp, #32
    1bd4: 00 01 80 52  	mov	w0, #8
    1bd8: 00 00 00 94  	bl	0x1bd8 <pr_perm_msg+0x58>
    1bdc: 40 fe ff 35  	cbnz	w0, 0x1ba4 <pr_perm_msg+0x24>
    1be0: e5 13 40 f9  	ldr	x5, [sp, #32]
    1be4: bf 04 00 b1  	cmn	x5, #1
    1be8: e0 fd ff 54  	b.eq	0x1ba4 <pr_perm_msg+0x24>
    1bec: f3 0b 00 f9  	str	x19, [sp, #16]
    1bf0: bf fc 0f f1  	cmp	x5, #1023
    1bf4: c9 03 00 54  	b.ls	0x1c6c <pr_perm_msg+0xec>
    1bf8: e0 4f 40 b2  	mov	x0, #1048575
    1bfc: bf 00 00 eb  	cmp	x5, x0
    1c00: 29 02 00 54  	b.ls	0x1c44 <pr_perm_msg+0xc4>
    1c04: a0 b0 43 9e  	ucvtf	d0, x5, #20
    1c08: f3 c3 00 91  	add	x19, sp, #48
    1c0c: 04 00 00 90  	adrp	x4, 0x1000 <pr_perm_msg+0x8c>
    1c10: 83 0c 80 d2  	mov	x3, #100
    1c14: e0 03 13 aa  	mov	x0, x19
    1c18: 84 00 00 91  	add	x4, x4, #0
    1c1c: e1 03 03 aa  	mov	x1, x3
    1c20: 22 00 80 52  	mov	w2, #1
    1c24: 00 00 00 94  	bl	0x1c24 <pr_perm_msg+0xa4>
    1c28: e2 03 13 aa  	mov	x2, x19
    1c2c: 01 00 00 90  	adrp	x1, 0x1000 <pr_perm_msg+0xac>
    1c30: 00 00 80 52  	mov	w0, #0
    1c34: 21 00 00 91  	add	x1, x1, #0
    1c38: 00 00 00 94  	bl	0x1c38 <pr_perm_msg+0xb8>
    1c3c: f3 0b 40 f9  	ldr	x19, [sp, #16]
    1c40: d9 ff ff 17  	b	0x1ba4 <pr_perm_msg+0x24>
    1c44: a0 d8 42 9e  	scvtf	d0, x5, #10
    1c48: f3 c3 00 91  	add	x19, sp, #48
    1c4c: 83 0c 80 d2  	mov	x3, #100
    1c50: e0 03 13 aa  	mov	x0, x19
    1c54: e1 03 03 aa  	mov	x1, x3
    1c58: 04 00 00 90  	adrp	x4, 0x1000 <pr_perm_msg+0xd8>
    1c5c: 22 00 80 52  	mov	w2, #1
    1c60: 84 00 00 91  	add	x4, x4, #0
    1c64: 00 00 00 94  	bl	0x1c64 <pr_perm_msg+0xe4>
    1c68: f0 ff ff 17  	b	0x1c28 <pr_perm_msg+0xa8>
    1c6c: f3 c3 00 91  	add	x19, sp, #48
    1c70: 83 0c 80 d2  	mov	x3, #100
    1c74: e0 03 13 aa  	mov	x0, x19
    1c78: e1 03 03 aa  	mov	x1, x3
    1c7c: 04 00 00 90  	adrp	x4, 0x1000 <pr_perm_msg+0xfc>
    1c80: 22 00 80 52  	mov	w2, #1
    1c84: 84 00 00 91  	add	x4, x4, #0
    1c88: 00 00 00 94  	bl	0x1c88 <pr_perm_msg+0x108>
    1c8c: e7 ff ff 17  	b	0x1c28 <pr_perm_msg+0xa8>
    1c90: f3 0b 00 f9  	str	x19, [sp, #16]
    1c94: 00 00 00 94  	bl	0x1c94 <pr_perm_msg+0x114>
    1c98: 1f 20 03 d5  	nop
    1c9c: 1f 20 03 d5  	nop

0000000000001ca0 <bpf_object__elf_init>:
    1ca0: fd 7b b4 a9  	stp	x29, x30, [sp, #-192]!
    1ca4: 01 00 00 90  	adrp	x1, 0x1000 <bpf_object__elf_init+0x4>
    1ca8: fd 03 00 91  	mov	x29, sp
    1cac: 21 00 40 f9  	ldr	x1, [x1]
    1cb0: f3 53 01 a9  	stp	x19, x20, [sp, #16]
    1cb4: f3 03 00 aa  	mov	x19, x0
    1cb8: 00 60 40 f9  	ldr	x0, [x0, #192]
    1cbc: 22 00 40 f9  	ldr	x2, [x1]
    1cc0: e2 5f 00 f9  	str	x2, [sp, #184]
    1cc4: 02 00 80 d2  	mov	x2, #0
    1cc8: c0 0e 00 b5  	cbnz	x0, 0x1ea0 <bpf_object__elf_init+0x200>
    1ccc: 61 5e 40 f9  	ldr	x1, [x19, #184]
    1cd0: f5 13 00 f9  	str	x21, [sp, #32]
    1cd4: c1 05 00 b5  	cbnz	x1, 0x1d8c <bpf_object__elf_init+0xec>
    1cd8: 75 62 07 91  	add	x21, x19, #472
    1cdc: 01 00 80 52  	mov	w1, #0
    1ce0: e0 03 15 aa  	mov	x0, x21
    1ce4: 00 00 00 94  	bl	0x1ce4 <bpf_object__elf_init+0x44>
    1ce8: 60 aa 00 b9  	str	w0, [x19, #168]
    1cec: 40 09 f8 37  	tbnz	w0, #31, 0x1e14 <bpf_object__elf_init+0x174>
    1cf0: 02 00 80 d2  	mov	x2, #0
    1cf4: 21 00 80 52  	mov	w1, #1
    1cf8: 00 00 00 94  	bl	0x1cf8 <bpf_object__elf_init+0x58>
    1cfc: 60 62 00 f9  	str	x0, [x19, #192]
    1d00: e0 04 00 b4  	cbz	x0, 0x1d9c <bpf_object__elf_init+0xfc>
    1d04: 75 22 03 91  	add	x21, x19, #200
    1d08: e1 03 15 aa  	mov	x1, x21
    1d0c: 00 00 00 94  	bl	0x1d0c <bpf_object__elf_init+0x6c>
    1d10: 00 0a 00 b4  	cbz	x0, 0x1e50 <bpf_object__elf_init+0x1b0>
    1d14: 60 62 40 f9  	ldr	x0, [x19, #192]
    1d18: 61 c2 04 91  	add	x1, x19, #304
    1d1c: 00 00 00 94  	bl	0x1d1c <bpf_object__elf_init+0x7c>
    1d20: f4 03 00 2a  	mov	w20, w0
    1d24: 40 06 00 35  	cbnz	w0, 0x1dec <bpf_object__elf_init+0x14c>
    1d28: 60 62 40 f9  	ldr	x0, [x19, #192]
    1d2c: 61 9a 40 f9  	ldr	x1, [x19, #304]
    1d30: 00 00 00 94  	bl	0x1d30 <bpf_object__elf_init+0x90>
    1d34: 01 00 80 d2  	mov	x1, #0
    1d38: 00 00 00 94  	bl	0x1d38 <bpf_object__elf_init+0x98>
    1d3c: e0 09 00 b4  	cbz	x0, 0x1e78 <bpf_object__elf_init+0x1d8>
    1d40: a0 22 40 79  	ldrh	w0, [x21, #16]
    1d44: 1f 04 00 71  	cmp	w0, #1
    1d48: e1 03 00 54  	b.ne	0x1dc4 <bpf_object__elf_init+0x124>
    1d4c: a0 26 40 79  	ldrh	w0, [x21, #18]
    1d50: 1f dc 03 71  	cmp	w0, #247
    1d54: 04 18 40 7a  	ccmp	w0, #0, #4, ne
    1d58: 61 03 00 54  	b.ne	0x1dc4 <bpf_object__elf_init+0x124>
    1d5c: f5 13 40 f9  	ldr	x21, [sp, #32]
    1d60: 00 00 00 90  	adrp	x0, 0x1000 <bpf_object__elf_init+0xc0>
    1d64: 00 00 40 f9  	ldr	x0, [x0]
    1d68: e2 5f 40 f9  	ldr	x2, [sp, #184]
    1d6c: 01 00 40 f9  	ldr	x1, [x0]
    1d70: 42 00 01 eb  	subs	x2, x2, x1
    1d74: 01 00 80 d2  	mov	x1, #0
    1d78: 01 0a 00 54  	b.ne	0x1eb8 <bpf_object__elf_init+0x218>
    1d7c: e0 03 14 2a  	mov	w0, w20
    1d80: f3 53 41 a9  	ldp	x19, x20, [sp, #16]
    1d84: fd 7b cc a8  	ldp	x29, x30, [sp], #192
    1d88: c0 03 5f d6  	ret
    1d8c: 60 5a 40 f9  	ldr	x0, [x19, #176]
    1d90: 00 00 00 94  	bl	0x1d90 <bpf_object__elf_init+0xf0>
    1d94: 60 62 00 f9  	str	x0, [x19, #192]
    1d98: 60 fb ff b5  	cbnz	x0, 0x1d04 <bpf_object__elf_init+0x64>
    1d9c: 00 00 80 12  	mov	w0, #-1
    1da0: 00 00 00 94  	bl	0x1da0 <bpf_object__elf_init+0x100>
    1da4: 62 62 07 91  	add	x2, x19, #472
    1da8: e3 03 00 aa  	mov	x3, x0
    1dac: 01 00 00 90  	adrp	x1, 0x1000 <bpf_object__elf_init+0x10c>
    1db0: 00 00 80 52  	mov	w0, #0
    1db4: 21 00 00 91  	add	x1, x1, #0
    1db8: f4 f3 81 12  	mov	w20, #-4000
    1dbc: 00 00 00 94  	bl	0x1dbc <bpf_object__elf_init+0x11c>
    1dc0: 07 00 00 14  	b	0x1ddc <bpf_object__elf_init+0x13c>
    1dc4: 01 00 00 90  	adrp	x1, 0x1000 <bpf_object__elf_init+0x124>
    1dc8: 62 62 07 91  	add	x2, x19, #472
    1dcc: 21 00 00 91  	add	x1, x1, #0
    1dd0: 14 f4 81 12  	mov	w20, #-4001
    1dd4: 00 00 80 52  	mov	w0, #0
    1dd8: 00 00 00 94  	bl	0x1dd8 <bpf_object__elf_init+0x138>
    1ddc: e0 03 13 aa  	mov	x0, x19
    1de0: e4 fa ff 97  	bl	0x970 <bpf_object__elf_finish>
    1de4: f5 13 40 f9  	ldr	x21, [sp, #32]
    1de8: de ff ff 17  	b	0x1d60 <bpf_object__elf_init+0xc0>
    1dec: 00 00 80 12  	mov	w0, #-1
    1df0: 00 00 00 94  	bl	0x1df0 <bpf_object__elf_init+0x150>
    1df4: 62 62 07 91  	add	x2, x19, #472
    1df8: e3 03 00 aa  	mov	x3, x0
    1dfc: 01 00 00 90  	adrp	x1, 0x1000 <bpf_object__elf_init+0x15c>
    1e00: 00 00 80 52  	mov	w0, #0
    1e04: 21 00 00 91  	add	x1, x1, #0
    1e08: 14 f4 81 12  	mov	w20, #-4001
    1e0c: 00 00 00 94  	bl	0x1e0c <bpf_object__elf_init+0x16c>
    1e10: f3 ff ff 17  	b	0x1ddc <bpf_object__elf_init+0x13c>
    1e14: 00 00 00 94  	bl	0x1e14 <bpf_object__elf_init+0x174>
    1e18: 14 00 40 b9  	ldr	w20, [x0]
    1e1c: e1 e3 00 91  	add	x1, sp, #56
    1e20: 02 10 80 52  	mov	w2, #128
    1e24: f4 03 14 4b  	neg	w20, w20
    1e28: e0 03 14 2a  	mov	w0, w20
    1e2c: 00 00 00 94  	bl	0x1e2c <bpf_object__elf_init+0x18c>
    1e30: e2 03 15 aa  	mov	x2, x21
    1e34: e3 03 00 aa  	mov	x3, x0
    1e38: 01 00 00 90  	adrp	x1, 0x1000 <bpf_object__elf_init+0x198>
    1e3c: 00 00 80 52  	mov	w0, #0
    1e40: 21 00 00 91  	add	x1, x1, #0
    1e44: 00 00 00 94  	bl	0x1e44 <bpf_object__elf_init+0x1a4>
    1e48: f5 13 40 f9  	ldr	x21, [sp, #32]
    1e4c: c5 ff ff 17  	b	0x1d60 <bpf_object__elf_init+0xc0>
    1e50: 00 00 80 12  	mov	w0, #-1
    1e54: 00 00 00 94  	bl	0x1e54 <bpf_object__elf_init+0x1b4>
    1e58: 62 62 07 91  	add	x2, x19, #472
    1e5c: e3 03 00 aa  	mov	x3, x0
    1e60: 01 00 00 90  	adrp	x1, 0x1000 <bpf_object__elf_init+0x1c0>
    1e64: 00 00 80 52  	mov	w0, #0
    1e68: 21 00 00 91  	add	x1, x1, #0
    1e6c: 14 f4 81 12  	mov	w20, #-4001
    1e70: 00 00 00 94  	bl	0x1e70 <bpf_object__elf_init+0x1d0>
    1e74: da ff ff 17  	b	0x1ddc <bpf_object__elf_init+0x13c>
    1e78: 00 00 80 12  	mov	w0, #-1
    1e7c: 00 00 00 94  	bl	0x1e7c <bpf_object__elf_init+0x1dc>
    1e80: 62 62 07 91  	add	x2, x19, #472
    1e84: e3 03 00 aa  	mov	x3, x0
    1e88: 01 00 00 90  	adrp	x1, 0x1000 <bpf_object__elf_init+0x1e8>
    1e8c: 00 00 80 52  	mov	w0, #0
    1e90: 21 00 00 91  	add	x1, x1, #0
    1e94: 14 f4 81 12  	mov	w20, #-4001
    1e98: 00 00 00 94  	bl	0x1e98 <bpf_object__elf_init+0x1f8>
    1e9c: d0 ff ff 17  	b	0x1ddc <bpf_object__elf_init+0x13c>
    1ea0: 01 00 00 90  	adrp	x1, 0x1000 <bpf_object__elf_init+0x200>
    1ea4: 00 00 80 52  	mov	w0, #0
    1ea8: 21 00 00 91  	add	x1, x1, #0
    1eac: f4 f3 81 12  	mov	w20, #-4000
    1eb0: 00 00 00 94  	bl	0x1eb0 <bpf_object__elf_init+0x210>
    1eb4: ab ff ff 17  	b	0x1d60 <bpf_object__elf_init+0xc0>
    1eb8: f5 13 00 f9  	str	x21, [sp, #32]
    1ebc: 00 00 00 94  	bl	0x1ebc <bpf_object__elf_init+0x21c>

0000000000001ec0 <bpf_object__add_map>:
    1ec0: fd 7b bd a9  	stp	x29, x30, [sp, #-48]!
    1ec4: fd 03 00 91  	mov	x29, sp
    1ec8: f3 53 01 a9  	stp	x19, x20, [sp, #16]
    1ecc: 02 50 47 a9  	ldp	x2, x20, [x0, #112]
    1ed0: f5 13 00 f9  	str	x21, [sp, #32]
    1ed4: f5 03 00 aa  	mov	x21, x0
    1ed8: 00 34 40 f9  	ldr	x0, [x0, #104]
    1edc: 5f 00 14 eb  	cmp	x2, x20
    1ee0: 63 06 00 54  	b.lo	0x1fac <bpf_object__add_map+0xec>
    1ee4: 94 06 14 8b  	add	x20, x20, x20, lsl #1
    1ee8: 81 00 80 d2  	mov	x1, #4
    1eec: 9f 1e 00 f1  	cmp	x20, #7
    1ef0: 13 13 80 d2  	mov	x19, #152
    1ef4: 94 fe 41 d3  	lsr	x20, x20, #1
    1ef8: 94 82 81 9a  	csel	x20, x20, x1, hi
    1efc: 82 7e d3 9b  	umulh	x2, x20, x19
    1f00: 81 7e 13 9b  	mul	x1, x20, x19
    1f04: 82 06 00 b5  	cbnz	x2, 0x1fd4 <bpf_object__add_map+0x114>
    1f08: 00 00 00 94  	bl	0x1f08 <bpf_object__add_map+0x48>
    1f0c: 40 06 00 b4  	cbz	x0, 0x1fd4 <bpf_object__add_map+0x114>
    1f10: a4 3a 40 f9  	ldr	x4, [x21, #112]
    1f14: b4 3e 00 f9  	str	x20, [x21, #120]
    1f18: a0 36 00 f9  	str	x0, [x21, #104]
    1f1c: 01 00 80 52  	mov	w1, #0
    1f20: 94 02 04 cb  	sub	x20, x20, x4
    1f24: 83 08 04 8b  	add	x3, x4, x4, lsl #2
    1f28: 82 0a 14 8b  	add	x2, x20, x20, lsl #2
    1f2c: 63 f4 7e d3  	lsl	x3, x3, #2
    1f30: 63 00 04 cb  	sub	x3, x3, x4
    1f34: 42 f4 7e d3  	lsl	x2, x2, #2
    1f38: 42 00 14 cb  	sub	x2, x2, x20
    1f3c: 00 0c 03 8b  	add	x0, x0, x3, lsl #3
    1f40: 42 f0 7d d3  	lsl	x2, x2, #3
    1f44: 00 00 00 94  	bl	0x1f44 <bpf_object__add_map+0x84>
    1f48: a4 02 47 a9  	ldp	x4, x0, [x21, #112]
    1f4c: 1f c0 24 eb  	cmp	x0, w4, sxtw
    1f50: e9 04 00 54  	b.ls	0x1fec <bpf_object__add_map+0x12c>
    1f54: 03 08 00 8b  	add	x3, x0, x0, lsl #2
    1f58: 02 00 80 12  	mov	w2, #-1
    1f5c: a5 36 40 f9  	ldr	x5, [x21, #104]
    1f60: 63 f4 7e d3  	lsl	x3, x3, #2
    1f64: 63 00 00 cb  	sub	x3, x3, x0
    1f68: 81 14 33 9b  	smaddl	x1, w4, w19, x5
    1f6c: a3 0c 03 8b  	add	x3, x5, x3, lsl #3
    1f70: 21 60 02 91  	add	x1, x1, #152
    1f74: 22 00 17 b8  	stur	w2, [x1, #-144]
    1f78: 22 40 18 b8  	stur	w2, [x1, #-124]
    1f7c: 3f 00 03 eb  	cmp	x1, x3
    1f80: 81 ff ff 54  	b.ne	0x1f70 <bpf_object__add_map+0xb0>
    1f84: 80 08 04 8b  	add	x0, x4, x4, lsl #2
    1f88: 81 04 00 91  	add	x1, x4, #1
    1f8c: a1 3a 00 f9  	str	x1, [x21, #112]
    1f90: 00 f4 7e d3  	lsl	x0, x0, #2
    1f94: 00 00 04 cb  	sub	x0, x0, x4
    1f98: a0 0c 00 8b  	add	x0, x5, x0, lsl #3
    1f9c: f3 53 41 a9  	ldp	x19, x20, [sp, #16]
    1fa0: f5 13 40 f9  	ldr	x21, [sp, #32]
    1fa4: fd 7b c3 a8  	ldp	x29, x30, [sp], #48
    1fa8: c0 03 5f d6  	ret
    1fac: 41 08 02 8b  	add	x1, x2, x2, lsl #2
    1fb0: 43 04 00 91  	add	x3, x2, #1
    1fb4: a3 3a 00 f9  	str	x3, [x21, #112]
    1fb8: 21 f4 7e d3  	lsl	x1, x1, #2
    1fbc: 21 00 02 cb  	sub	x1, x1, x2
    1fc0: f3 53 41 a9  	ldp	x19, x20, [sp, #16]
    1fc4: 00 0c 01 8b  	add	x0, x0, x1, lsl #3
    1fc8: f5 13 40 f9  	ldr	x21, [sp, #32]
    1fcc: fd 7b c3 a8  	ldp	x29, x30, [sp], #48
    1fd0: c0 03 5f d6  	ret
    1fd4: 00 00 80 52  	mov	w0, #0
    1fd8: 01 00 00 90  	adrp	x1, 0x1000 <bpf_object__add_map+0x118>
    1fdc: 21 00 00 91  	add	x1, x1, #0
    1fe0: 00 00 00 94  	bl	0x1fe0 <bpf_object__add_map+0x120>
    1fe4: 60 01 80 92  	mov	x0, #-12
    1fe8: ed ff ff 17  	b	0x1f9c <bpf_object__add_map+0xdc>
    1fec: a5 36 40 f9  	ldr	x5, [x21, #104]
    1ff0: e5 ff ff 17  	b	0x1f84 <bpf_object__add_map+0xc4>

0000000000001ff4 <fill_map_from_def>:
    1ff4: fd 7b be a9  	stp	x29, x30, [sp, #-32]!
    1ff8: fd 03 00 91  	mov	x29, sp
    1ffc: f3 53 01 a9  	stp	x19, x20, [sp, #16]
    2000: f3 03 01 aa  	mov	x19, x1
    2004: f4 03 00 aa  	mov	x20, x0
    2008: 20 0c 40 29  	ldp	w0, w3, [x1]
    200c: 22 20 41 29  	ldp	w2, w8, [x1, #8]
    2010: 67 9a 42 29  	ldp	w7, w6, [x19, #20]
    2014: 21 10 40 b9  	ldr	w1, [x1, #16]
    2018: 65 92 43 29  	ldp	w5, w4, [x19, #28]
    201c: 83 22 04 29  	stp	w3, w8, [x20, #32]
    2020: 87 1a 05 29  	stp	w7, w6, [x20, #40]
    2024: 85 12 06 29  	stp	w5, w4, [x20, #48]
    2028: 82 86 07 29  	stp	w2, w1, [x20, #60]
    202c: e0 06 00 37  	tbnz	w0, #0, 0x2108 <fill_map_from_def+0x114>
    2030: a0 07 08 37  	tbnz	w0, #1, 0x2124 <fill_map_from_def+0x130>
    2034: c0 0a 10 37  	tbnz	w0, #2, 0x218c <fill_map_from_def+0x198>
    2038: 60 08 18 37  	tbnz	w0, #3, 0x2144 <fill_map_from_def+0x150>
    203c: 60 09 20 37  	tbnz	w0, #4, 0x2168 <fill_map_from_def+0x174>
    2040: 20 05 28 37  	tbnz	w0, #5, 0x20e4 <fill_map_from_def+0xf0>
    2044: e0 03 30 37  	tbnz	w0, #6, 0x20c0 <fill_map_from_def+0xcc>
    2048: a0 02 40 37  	tbnz	w0, #8, 0x209c <fill_map_from_def+0xa8>
    204c: a0 00 38 37  	tbnz	w0, #7, 0x2060 <fill_map_from_def+0x6c>
    2050: 80 01 48 37  	tbnz	w0, #9, 0x2080 <fill_map_from_def+0x8c>
    2054: f3 53 41 a9  	ldp	x19, x20, [sp, #16]
    2058: fd 7b c2 a8  	ldp	x29, x30, [sp], #32
    205c: c0 03 5f d6  	ret
    2060: 63 22 40 b9  	ldr	w3, [x19, #32]
    2064: 40 00 80 52  	mov	w0, #2
    2068: 82 02 40 f9  	ldr	x2, [x20]
    206c: 01 00 00 90  	adrp	x1, 0x2000 <fill_map_from_def+0x78>
    2070: 21 00 00 91  	add	x1, x1, #0
    2074: 00 00 00 94  	bl	0x2074 <fill_map_from_def+0x80>
    2078: 60 02 40 b9  	ldr	w0, [x19]
    207c: c0 fe 4f 36  	tbz	w0, #9, 0x2054 <fill_map_from_def+0x60>
    2080: 82 02 40 f9  	ldr	x2, [x20]
    2084: 01 00 00 90  	adrp	x1, 0x2000 <fill_map_from_def+0x90>
    2088: f3 53 41 a9  	ldp	x19, x20, [sp, #16]
    208c: 21 00 00 91  	add	x1, x1, #0
    2090: fd 7b c2 a8  	ldp	x29, x30, [sp], #32
    2094: 40 00 80 52  	mov	w0, #2
    2098: 00 00 00 14  	b	0x2098 <fill_map_from_def+0xa4>
    209c: 63 26 40 b9  	ldr	w3, [x19, #36]
    20a0: 40 00 80 52  	mov	w0, #2
    20a4: 82 02 40 f9  	ldr	x2, [x20]
    20a8: 01 00 00 90  	adrp	x1, 0x2000 <fill_map_from_def+0xb4>
    20ac: 21 00 00 91  	add	x1, x1, #0
    20b0: 00 00 00 94  	bl	0x20b0 <fill_map_from_def+0xbc>
    20b4: 60 02 40 b9  	ldr	w0, [x19]
    20b8: c0 fc 3f 36  	tbz	w0, #7, 0x2050 <fill_map_from_def+0x5c>
    20bc: e9 ff ff 17  	b	0x2060 <fill_map_from_def+0x6c>
    20c0: 63 1e 40 b9  	ldr	w3, [x19, #28]
    20c4: 40 00 80 52  	mov	w0, #2
    20c8: 82 02 40 f9  	ldr	x2, [x20]
    20cc: 01 00 00 90  	adrp	x1, 0x2000 <fill_map_from_def+0xd8>
    20d0: 21 00 00 91  	add	x1, x1, #0
    20d4: 00 00 00 94  	bl	0x20d4 <fill_map_from_def+0xe0>
    20d8: 60 02 40 b9  	ldr	w0, [x19]
    20dc: 80 fb 47 36  	tbz	w0, #8, 0x204c <fill_map_from_def+0x58>
    20e0: ef ff ff 17  	b	0x209c <fill_map_from_def+0xa8>
    20e4: 63 1a 40 b9  	ldr	w3, [x19, #24]
    20e8: 40 00 80 52  	mov	w0, #2
    20ec: 82 02 40 f9  	ldr	x2, [x20]
    20f0: 01 00 00 90  	adrp	x1, 0x2000 <fill_map_from_def+0xfc>
    20f4: 21 00 00 91  	add	x1, x1, #0
    20f8: 00 00 00 94  	bl	0x20f8 <fill_map_from_def+0x104>
    20fc: 60 02 40 b9  	ldr	w0, [x19]
    2100: 40 fa 37 36  	tbz	w0, #6, 0x2048 <fill_map_from_def+0x54>
    2104: ef ff ff 17  	b	0x20c0 <fill_map_from_def+0xcc>
    2108: 82 02 40 f9  	ldr	x2, [x20]
    210c: 40 00 80 52  	mov	w0, #2
    2110: 01 00 00 90  	adrp	x1, 0x2000 <fill_map_from_def+0x11c>
    2114: 21 00 00 91  	add	x1, x1, #0
    2118: 00 00 00 94  	bl	0x2118 <fill_map_from_def+0x124>
    211c: 60 02 40 b9  	ldr	w0, [x19]
    2120: a0 f8 0f 36  	tbz	w0, #1, 0x2034 <fill_map_from_def+0x40>
    2124: 63 12 41 29  	ldp	w3, w4, [x19, #8]
    2128: 40 00 80 52  	mov	w0, #2
    212c: 82 02 40 f9  	ldr	x2, [x20]
    2130: 01 00 00 90  	adrp	x1, 0x2000 <fill_map_from_def+0x13c>
    2134: 21 00 00 91  	add	x1, x1, #0
    2138: 00 00 00 94  	bl	0x2138 <fill_map_from_def+0x144>
    213c: 60 02 40 b9  	ldr	w0, [x19]
    2140: e0 f7 1f 36  	tbz	w0, #3, 0x203c <fill_map_from_def+0x48>
    2144: 63 12 42 29  	ldp	w3, w4, [x19, #16]
    2148: 40 00 80 52  	mov	w0, #2
    214c: 82 02 40 f9  	ldr	x2, [x20]
    2150: 01 00 00 90  	adrp	x1, 0x2000 <fill_map_from_def+0x15c>
    2154: 21 00 00 91  	add	x1, x1, #0
    2158: 00 00 00 94  	bl	0x2158 <fill_map_from_def+0x164>
    215c: 60 02 40 b9  	ldr	w0, [x19]
    2160: 20 f7 2f 36  	tbz	w0, #5, 0x2044 <fill_map_from_def+0x50>
    2164: e0 ff ff 17  	b	0x20e4 <fill_map_from_def+0xf0>
    2168: 63 16 40 b9  	ldr	w3, [x19, #20]
    216c: 40 00 80 52  	mov	w0, #2
    2170: 82 02 40 f9  	ldr	x2, [x20]
    2174: 01 00 00 90  	adrp	x1, 0x2000 <fill_map_from_def+0x180>
    2178: 21 00 00 91  	add	x1, x1, #0
    217c: 00 00 00 94  	bl	0x217c <fill_map_from_def+0x188>
    2180: 60 02 40 b9  	ldr	w0, [x19]
    2184: 00 f6 2f 36  	tbz	w0, #5, 0x2044 <fill_map_from_def+0x50>
    2188: d7 ff ff 17  	b	0x20e4 <fill_map_from_def+0xf0>
    218c: 63 0e 40 b9  	ldr	w3, [x19, #12]
    2190: 40 00 80 52  	mov	w0, #2
    2194: 82 02 40 f9  	ldr	x2, [x20]
    2198: 01 00 00 90  	adrp	x1, 0x2000 <fill_map_from_def+0x1a4>
    219c: 21 00 00 91  	add	x1, x1, #0
    21a0: 00 00 00 94  	bl	0x21a0 <fill_map_from_def+0x1ac>
    21a4: 60 02 40 b9  	ldr	w0, [x19]
    21a8: a4 ff ff 17  	b	0x2038 <fill_map_from_def+0x44>
    21ac: 1f 20 03 d5  	nop

00000000000021b0 <bpf_object__init_internal_map>:
    21b0: ff 03 02 d1  	sub	sp, sp, #128
    21b4: 05 00 00 90  	adrp	x5, 0x2000 <bpf_object__init_internal_map+0x4>
    21b8: fd 7b 01 a9  	stp	x29, x30, [sp, #16]
    21bc: fd 43 00 91  	add	x29, sp, #16
    21c0: a5 00 40 f9  	ldr	x5, [x5]
    21c4: f3 53 02 a9  	stp	x19, x20, [sp, #32]
    21c8: f3 03 02 2a  	mov	w19, w2
    21cc: f5 5b 03 a9  	stp	x21, x22, [sp, #48]
    21d0: f5 03 01 2a  	mov	w21, w1
    21d4: f6 03 00 aa  	mov	x22, x0
    21d8: f7 63 04 a9  	stp	x23, x24, [sp, #64]
    21dc: f8 03 03 aa  	mov	x24, x3
    21e0: f7 03 04 aa  	mov	x23, x4
    21e4: a1 00 40 f9  	ldr	x1, [x5]
    21e8: e1 3f 00 f9  	str	x1, [sp, #120]
    21ec: 01 00 80 d2  	mov	x1, #0
    21f0: 34 ff ff 97  	bl	0x1ec0 <bpf_object__add_map>
    21f4: f4 03 00 aa  	mov	x20, x0
    21f8: 1f 04 40 b1  	cmn	x0, #1, lsl #12         // =4096
    21fc: a8 10 00 54  	b.hi	0x2410 <bpf_object__init_internal_map+0x260>
    2200: 00 00 00 90  	adrp	x0, 0x2000 <bpf_object__init_internal_map+0x50>
    2204: 00 00 00 91  	add	x0, x0, #0
    2208: 00 40 29 91  	add	x0, x0, #2640
    220c: f9 6b 05 a9  	stp	x25, x26, [sp, #80]
    2210: f9 a3 01 91  	add	x25, sp, #104
    2214: 93 0e 00 b9  	str	w19, [x20, #12]
    2218: 1a 58 75 f8  	ldr	x26, [x0, w21, uxtw #3]
    221c: 9f 0a 00 f9  	str	xzr, [x20, #16]
    2220: 95 5a 00 b9  	str	w21, [x20, #88]
    2224: e0 03 1a aa  	mov	x0, x26
    2228: 00 00 00 94  	bl	0x2228 <bpf_object__init_internal_map+0x78>
    222c: f3 03 00 aa  	mov	x19, x0
    2230: e1 00 80 d2  	mov	x1, #7
    2234: 7f 02 01 eb  	cmp	x19, x1
    2238: 73 22 81 9a  	csel	x19, x19, x1, hs
    223c: e0 03 16 aa  	mov	x0, x22
    2240: 00 00 00 94  	bl	0x2240 <bpf_object__init_internal_map+0x90>
    2244: fa 03 00 f9  	str	x26, [sp]
    2248: e5 01 80 d2  	mov	x5, #15
    224c: e7 03 13 2a  	mov	w7, w19
    2250: a5 c0 33 cb  	sub	x5, x5, w19, sxtw
    2254: 03 02 80 d2  	mov	x3, #16
    2258: bf 00 00 eb  	cmp	x5, x0
    225c: e1 03 03 aa  	mov	x1, x3
    2260: a5 90 80 9a  	csel	x5, x5, x0, ls
    2264: e6 03 16 aa  	mov	x6, x22
    2268: e0 03 19 aa  	mov	x0, x25
    226c: 04 00 00 90  	adrp	x4, 0x2000 <bpf_object__init_internal_map+0xbc>
    2270: 22 00 80 52  	mov	w2, #1
    2274: 84 00 00 91  	add	x4, x4, #0
    2278: 00 00 00 94  	bl	0x2278 <bpf_object__init_internal_map+0xc8>
    227c: f3 a3 41 39  	ldrb	w19, [sp, #104]
    2280: 13 03 00 34  	cbz	w19, 0x22e0 <bpf_object__init_internal_map+0x130>
    2284: 00 00 00 94  	bl	0x2284 <bpf_object__init_internal_map+0xd4>
    2288: e7 03 19 aa  	mov	x7, x25
    228c: e3 e3 01 91  	add	x3, sp, #120
    2290: c2 05 80 52  	mov	w2, #46
    2294: e4 0b 80 52  	mov	w4, #95
    2298: 01 00 40 f9  	ldr	x1, [x0]
    229c: 05 00 00 14  	b	0x22b0 <bpf_object__init_internal_map+0x100>
    22a0: f3 1c 40 38  	ldrb	w19, [x7, #1]!
    22a4: 7f 02 00 71  	cmp	w19, #0
    22a8: 60 10 47 fa  	ccmp	x3, x7, #0, ne
    22ac: a9 01 00 54  	b.ls	0x22e0 <bpf_object__init_internal_map+0x130>
    22b0: 60 1e 7f d3  	ubfiz	x0, x19, #1, #8
    22b4: 7f 7e 01 71  	cmp	w19, #95
    22b8: 64 12 42 7a  	ccmp	w19, w2, #4, ne
    22bc: 25 68 60 78  	ldrh	w5, [x1, x0]
    22c0: a5 00 1d 12  	and	w5, w5, #0x8
    22c4: a0 18 40 7a  	ccmp	w5, #0, #0, ne
    22c8: c1 fe ff 54  	b.ne	0x22a0 <bpf_object__init_internal_map+0xf0>
    22cc: e4 00 00 39  	strb	w4, [x7]
    22d0: f3 1c 40 38  	ldrb	w19, [x7, #1]!
    22d4: 7f 02 00 71  	cmp	w19, #0
    22d8: 60 10 47 fa  	ccmp	x3, x7, #0, ne
    22dc: a8 fe ff 54  	b.hi	0x22b0 <bpf_object__init_internal_map+0x100>
    22e0: e0 03 19 aa  	mov	x0, x25
    22e4: 00 00 00 94  	bl	0x22e4 <bpf_object__init_internal_map+0x134>
    22e8: 80 02 00 f9  	str	x0, [x20]
    22ec: e2 03 00 aa  	mov	x2, x0
    22f0: 20 0b 00 b4  	cbz	x0, 0x2454 <bpf_object__init_internal_map+0x2a4>
    22f4: e6 03 14 aa  	mov	x6, x20
    22f8: b5 0e 00 51  	sub	w21, w21, #3
    22fc: 40 00 80 d2  	mov	x0, #2
    2300: bf 06 00 71  	cmp	w21, #1
    2304: 80 00 c0 f2  	movk	x0, #4, lsl #32
    2308: e5 87 9f 1a  	cset	w5, ls
    230c: c0 0c 02 f8  	str	x0, [x6, #32]!
    2310: 01 00 00 90  	adrp	x1, 0x2000 <bpf_object__init_internal_map+0x160>
    2314: 84 0a 40 f9  	ldr	x4, [x20, #16]
    2318: a5 60 19 53  	lsl	w5, w5, #7
    231c: 83 0e 40 b9  	ldr	w3, [x20, #12]
    2320: a5 00 16 32  	orr	w5, w5, #0x400
    2324: 21 00 00 91  	add	x1, x1, #0
    2328: 20 00 80 52  	mov	w0, #1
    232c: d7 00 01 29  	stp	w23, w0, [x6, #8]
    2330: 40 00 80 52  	mov	w0, #2
    2334: c5 10 00 b9  	str	w5, [x6, #16]
    2338: 00 00 00 94  	bl	0x2338 <bpf_object__init_internal_map+0x188>
    233c: c0 03 80 52  	mov	w0, #30
    2340: 00 00 00 94  	bl	0x2340 <bpf_object__init_internal_map+0x190>
    2344: 86 22 45 29  	ldp	w6, w8, [x20, #40]
    2348: 07 00 80 92  	mov	x7, #-1
    234c: e1 03 00 aa  	mov	x1, x0
    2350: e4 03 07 2a  	mov	w4, w7
    2354: c6 1c 00 11  	add	w6, w6, #7
    2358: 05 00 80 d2  	mov	x5, #0
    235c: c6 70 1d 12  	and	w6, w6, #0xfffffff8
    2360: 23 04 80 52  	mov	w3, #33
    2364: 62 00 80 52  	mov	w2, #3
    2368: 00 00 80 d2  	mov	x0, #0
    236c: c6 1c a8 9b  	umaddl	x6, w6, w8, x7
    2370: c6 00 01 8b  	add	x6, x6, x1
    2374: c6 08 c1 9a  	udiv	x6, x6, x1
    2378: c1 7c 01 9b  	mul	x1, x6, x1
    237c: 00 00 00 94  	bl	0x237c <bpf_object__init_internal_map+0x1cc>
    2380: 80 32 00 f9  	str	x0, [x20, #96]
    2384: 1f 04 00 b1  	cmn	x0, #1
    2388: 80 04 00 54  	b.eq	0x2418 <bpf_object__init_internal_map+0x268>
    238c: 98 00 00 b4  	cbz	x24, 0x239c <bpf_object__init_internal_map+0x1ec>
    2390: e2 03 17 aa  	mov	x2, x23
    2394: e1 03 18 aa  	mov	x1, x24
    2398: 00 00 00 94  	bl	0x2398 <bpf_object__init_internal_map+0x1e8>
    239c: c0 36 40 f9  	ldr	x0, [x22, #104]
    23a0: 62 43 99 d2  	mov	x2, #51739
    23a4: 83 02 40 f9  	ldr	x3, [x20]
    23a8: 94 02 00 cb  	sub	x20, x20, x0
    23ac: 62 0d a5 f2  	movk	x2, #10347, lsl #16
    23b0: 01 00 00 90  	adrp	x1, 0x2000 <bpf_object__init_internal_map+0x200>
    23b4: 94 fe 43 93  	asr	x20, x20, #3
    23b8: e2 35 d4 f2  	movk	x2, #41391, lsl #32
    23bc: 82 d7 f0 f2  	movk	x2, #34492, lsl #48
    23c0: 21 00 00 91  	add	x1, x1, #0
    23c4: 40 00 80 52  	mov	w0, #2
    23c8: 13 00 80 52  	mov	w19, #0
    23cc: 82 7e 02 9b  	mul	x2, x20, x2
    23d0: 00 00 00 94  	bl	0x23d0 <bpf_object__init_internal_map+0x220>
    23d4: f9 6b 45 a9  	ldp	x25, x26, [sp, #80]
    23d8: 00 00 00 90  	adrp	x0, 0x2000 <bpf_object__init_internal_map+0x228>
    23dc: 00 00 40 f9  	ldr	x0, [x0]
    23e0: e2 3f 40 f9  	ldr	x2, [sp, #120]
    23e4: 01 00 40 f9  	ldr	x1, [x0]
    23e8: 42 00 01 eb  	subs	x2, x2, x1
    23ec: 01 00 80 d2  	mov	x1, #0
    23f0: 01 04 00 54  	b.ne	0x2470 <bpf_object__init_internal_map+0x2c0>
    23f4: e0 03 13 2a  	mov	w0, w19
    23f8: fd 7b 41 a9  	ldp	x29, x30, [sp, #16]
    23fc: f3 53 42 a9  	ldp	x19, x20, [sp, #32]
    2400: f5 5b 43 a9  	ldp	x21, x22, [sp, #48]
    2404: f7 63 44 a9  	ldp	x23, x24, [sp, #64]
    2408: ff 03 02 91  	add	sp, sp, #128
    240c: c0 03 5f d6  	ret
    2410: f3 03 00 2a  	mov	w19, w0
    2414: f1 ff ff 17  	b	0x23d8 <bpf_object__init_internal_map+0x228>
    2418: 00 00 00 94  	bl	0x2418 <bpf_object__init_internal_map+0x268>
    241c: 13 00 40 b9  	ldr	w19, [x0]
    2420: 82 02 40 f9  	ldr	x2, [x20]
    2424: 9f 32 00 f9  	str	xzr, [x20, #96]
    2428: f3 03 13 4b  	neg	w19, w19
    242c: 00 00 80 52  	mov	w0, #0
    2430: e3 03 13 2a  	mov	w3, w19
    2434: 01 00 00 90  	adrp	x1, 0x2000 <bpf_object__init_internal_map+0x284>
    2438: 21 00 00 91  	add	x1, x1, #0
    243c: 00 00 00 94  	bl	0x243c <bpf_object__init_internal_map+0x28c>
    2440: 80 02 40 f9  	ldr	x0, [x20]
    2444: 00 00 00 94  	bl	0x2444 <bpf_object__init_internal_map+0x294>
    2448: f9 6b 45 a9  	ldp	x25, x26, [sp, #80]
    244c: 9f 02 00 f9  	str	xzr, [x20]
    2450: e2 ff ff 17  	b	0x23d8 <bpf_object__init_internal_map+0x228>
    2454: 01 00 00 90  	adrp	x1, 0x2000 <bpf_object__init_internal_map+0x2a4>
    2458: 00 00 80 52  	mov	w0, #0
    245c: 21 00 00 91  	add	x1, x1, #0
    2460: 73 01 80 12  	mov	w19, #-12
    2464: 00 00 00 94  	bl	0x2464 <bpf_object__init_internal_map+0x2b4>
    2468: f9 6b 45 a9  	ldp	x25, x26, [sp, #80]
    246c: db ff ff 17  	b	0x23d8 <bpf_object__init_internal_map+0x228>
    2470: f9 6b 05 a9  	stp	x25, x26, [sp, #80]
    2474: 00 00 00 94  	bl	0x2474 <bpf_object__init_internal_map+0x2c4>
    2478: 1f 20 03 d5  	nop
    247c: 1f 20 03 d5  	nop

0000000000002480 <bpf_object__init_struct_ops_maps>:
    2480: fd 7b b7 a9  	stp	x29, x30, [sp, #-144]!
    2484: fd 03 00 91  	mov	x29, sp
    2488: f3 53 01 a9  	stp	x19, x20, [sp, #16]
    248c: f3 03 00 aa  	mov	x19, x0
    2490: 00 6c 41 b9  	ldr	w0, [x0, #364]
    2494: 1f 04 00 31  	cmn	w0, #1
    2498: 40 12 00 54  	b.eq	0x26e0 <bpf_object__init_struct_ops_maps+0x260>
    249c: 74 c2 40 f9  	ldr	x20, [x19, #384]
    24a0: 00 00 00 90  	adrp	x0, 0x2000 <bpf_object__init_struct_ops_maps+0x20>
    24a4: f5 5b 02 a9  	stp	x21, x22, [sp, #32]
    24a8: 15 00 00 91  	add	x21, x0, #0
    24ac: e1 03 15 aa  	mov	x1, x21
    24b0: e0 03 14 aa  	mov	x0, x20
    24b4: e2 01 80 52  	mov	w2, #15
    24b8: 00 00 00 94  	bl	0x24b8 <bpf_object__init_struct_ops_maps+0x38>
    24bc: e1 03 00 2a  	mov	w1, w0
    24c0: a0 17 f8 37  	tbnz	w0, #31, 0x27b4 <bpf_object__init_struct_ops_maps+0x334>
    24c4: e0 03 14 aa  	mov	x0, x20
    24c8: f7 63 03 a9  	stp	x23, x24, [sp, #48]
    24cc: 00 00 00 94  	bl	0x24cc <bpf_object__init_struct_ops_maps+0x4c>
    24d0: 17 30 00 91  	add	x23, x0, #12
    24d4: e0 43 00 f9  	str	x0, [sp, #128]
    24d8: 00 08 40 79  	ldrh	w0, [x0, #4]
    24dc: 80 15 00 34  	cbz	w0, 0x278c <bpf_object__init_struct_ops_maps+0x30c>
    24e0: f9 6b 04 a9  	stp	x25, x26, [sp, #64]
    24e4: 1a 00 80 52  	mov	w26, #0
    24e8: fb 73 05 a9  	stp	x27, x28, [sp, #80]
    24ec: 1c 00 00 90  	adrp	x28, 0x2000 <bpf_object__init_struct_ops_maps+0x6c>
    24f0: 80 03 00 91  	add	x0, x28, #0
    24f4: e0 47 00 f9  	str	x0, [sp, #136]
    24f8: 4c 00 00 14  	b	0x2628 <bpf_object__init_struct_ops_maps+0x1a8>
    24fc: 61 6e 41 b9  	ldr	w1, [x19, #364]
    2500: 81 0f 00 b9  	str	w1, [x28, #12]
    2504: e1 06 40 b9  	ldr	w1, [x23, #4]
    2508: e1 67 00 b9  	str	w1, [sp, #100]
    250c: e1 03 01 2a  	mov	w1, w1
    2510: 81 0b 00 f9  	str	x1, [x28, #16]
    2514: e1 3f 00 f9  	str	x1, [sp, #120]
    2518: 00 00 00 94  	bl	0x2518 <bpf_object__init_struct_ops_maps+0x98>
    251c: e2 03 00 aa  	mov	x2, x0
    2520: 82 03 00 f9  	str	x2, [x28]
    2524: 01 07 80 d2  	mov	x1, #56
    2528: 20 00 80 d2  	mov	x0, #1
    252c: 82 13 00 b4  	cbz	x2, 0x279c <bpf_object__init_struct_ops_maps+0x31c>
    2530: 42 03 80 d2  	mov	x2, #26
    2534: 82 00 c0 f2  	movk	x2, #4, lsl #32
    2538: 82 13 00 f9  	str	x2, [x28, #32]
    253c: 99 0a 40 b9  	ldr	w25, [x20, #8]
    2540: 99 2b 00 b9  	str	w25, [x28, #40]
    2544: e2 03 19 2a  	mov	w2, w25
    2548: e2 37 00 f9  	str	x2, [sp, #104]
    254c: 22 00 80 52  	mov	w2, #1
    2550: 82 2f 00 b9  	str	w2, [x28, #44]
    2554: 00 00 00 94  	bl	0x2554 <bpf_object__init_struct_ops_maps+0xd4>
    2558: fb 03 00 aa  	mov	x27, x0
    255c: e2 37 40 f9  	ldr	x2, [sp, #104]
    2560: 9b 37 00 f9  	str	x27, [x28, #104]
    2564: e2 3b 00 f9  	str	x2, [sp, #112]
    2568: e0 03 02 aa  	mov	x0, x2
    256c: 9b 11 00 b4  	cbz	x27, 0x279c <bpf_object__init_struct_ops_maps+0x31c>
    2570: 00 00 00 94  	bl	0x2570 <bpf_object__init_struct_ops_maps+0xf0>
    2574: fc 03 00 aa  	mov	x28, x0
    2578: 87 0a 40 79  	ldrh	w7, [x20, #4]
    257c: 01 01 80 d2  	mov	x1, #8
    2580: 7c 13 00 f9  	str	x28, [x27, #32]
    2584: e0 3c 40 92  	and	x0, x7, #0xffff
    2588: e7 6b 00 b9  	str	w7, [sp, #104]
    258c: 00 00 00 94  	bl	0x258c <bpf_object__init_struct_ops_maps+0x10c>
    2590: e4 03 00 aa  	mov	x4, x0
    2594: e7 6b 40 b9  	ldr	w7, [sp, #104]
    2598: 64 0b 00 f9  	str	x4, [x27, #16]
    259c: e4 37 00 f9  	str	x4, [sp, #104]
    25a0: e0 3c 7e d3  	ubfiz	x0, x7, #2, #16
    25a4: 00 00 00 94  	bl	0x25a4 <bpf_object__init_struct_ops_maps+0x124>
    25a8: e1 03 00 aa  	mov	x1, x0
    25ac: e4 8b 46 a9  	ldp	x4, x2, [sp, #104]
    25b0: 61 0f 00 f9  	str	x1, [x27, #24]
    25b4: e3 67 40 b9  	ldr	w3, [sp, #100]
    25b8: e0 03 1c aa  	mov	x0, x28
    25bc: 79 00 19 0b  	add	w25, w3, w25
    25c0: 9f 00 00 f1  	cmp	x4, #0
    25c4: 84 1b 40 fa  	ccmp	x28, #0, #4, ne
    25c8: 24 18 40 fa  	ccmp	x1, #0, #4, ne
    25cc: 80 0e 00 54  	b.eq	0x279c <bpf_object__init_struct_ops_maps+0x31c>
    25d0: 61 96 40 f9  	ldr	x1, [x19, #296]
    25d4: 23 08 40 f9  	ldr	x3, [x1, #16]
    25d8: 3f 03 03 eb  	cmp	x25, x3
    25dc: 88 0c 00 54  	b.hi	0x276c <bpf_object__init_struct_ops_maps+0x2ec>
    25e0: e3 3f 40 f9  	ldr	x3, [sp, #120]
    25e4: f7 32 00 91  	add	x23, x23, #12
    25e8: 21 00 40 f9  	ldr	x1, [x1]
    25ec: 21 00 03 8b  	add	x1, x1, x3
    25f0: 00 00 00 94  	bl	0x25f0 <bpf_object__init_struct_ops_maps+0x170>
    25f4: 75 33 00 b9  	str	w21, [x27, #48]
    25f8: 40 00 80 52  	mov	w0, #2
    25fc: e1 47 40 f9  	ldr	x1, [sp, #136]
    2600: e4 03 18 aa  	mov	x4, x24
    2604: e5 82 5f b8  	ldur	w5, [x23, #-8]
    2608: e3 03 15 2a  	mov	w3, w21
    260c: 76 53 00 a9  	stp	x22, x20, [x27]
    2610: e2 03 16 aa  	mov	x2, x22
    2614: 00 00 00 94  	bl	0x2614 <bpf_object__init_struct_ops_maps+0x194>
    2618: e0 43 40 f9  	ldr	x0, [sp, #128]
    261c: 00 08 40 79  	ldrh	w0, [x0, #4]
    2620: 5f 03 00 6b  	cmp	w26, w0
    2624: 42 05 00 54  	b.hs	0x26cc <bpf_object__init_struct_ops_maps+0x24c>
    2628: e1 02 40 b9  	ldr	w1, [x23]
    262c: 5a 07 00 11  	add	w26, w26, #1
    2630: 60 c2 40 f9  	ldr	x0, [x19, #384]
    2634: 00 00 00 94  	bl	0x2634 <bpf_object__init_struct_ops_maps+0x1b4>
    2638: 01 00 40 b9  	ldr	w1, [x0]
    263c: 60 c2 40 f9  	ldr	x0, [x19, #384]
    2640: 00 00 00 94  	bl	0x2640 <bpf_object__init_struct_ops_maps+0x1c0>
    2644: f8 03 00 aa  	mov	x24, x0
    2648: e1 02 40 b9  	ldr	w1, [x23]
    264c: 60 c2 40 f9  	ldr	x0, [x19, #384]
    2650: 00 00 00 94  	bl	0x2650 <bpf_object__init_struct_ops_maps+0x1d0>
    2654: f5 03 00 2a  	mov	w21, w0
    2658: c0 04 f8 37  	tbnz	w0, #31, 0x26f0 <bpf_object__init_struct_ops_maps+0x270>
    265c: e1 03 00 2a  	mov	w1, w0
    2660: 60 c2 40 f9  	ldr	x0, [x19, #384]
    2664: 00 00 00 94  	bl	0x2664 <bpf_object__init_struct_ops_maps+0x1e4>
    2668: 01 00 40 b9  	ldr	w1, [x0]
    266c: f4 03 00 aa  	mov	x20, x0
    2670: 60 c2 40 f9  	ldr	x0, [x19, #384]
    2674: 00 00 00 94  	bl	0x2674 <bpf_object__init_struct_ops_maps+0x1f4>
    2678: f6 03 00 aa  	mov	x22, x0
    267c: e0 03 13 aa  	mov	x0, x19
    2680: c1 02 40 39  	ldrb	w1, [x22]
    2684: 41 05 00 34  	cbz	w1, 0x272c <bpf_object__init_struct_ops_maps+0x2ac>
    2688: 81 1e 40 39  	ldrb	w1, [x20, #7]
    268c: 21 10 00 12  	and	w1, w1, #0x1f
    2690: 3f 10 00 71  	cmp	w1, #4
    2694: 01 06 00 54  	b.ne	0x2754 <bpf_object__init_struct_ops_maps+0x2d4>
    2698: 0a fe ff 97  	bl	0x1ec0 <bpf_object__add_map>
    269c: fc 03 00 aa  	mov	x28, x0
    26a0: e0 03 18 aa  	mov	x0, x24
    26a4: 9f 07 40 b1  	cmn	x28, #1, lsl #12        // =4096
    26a8: a9 f2 ff 54  	b.ls	0x24fc <bpf_object__init_struct_ops_maps+0x7c>
    26ac: e0 03 1c 2a  	mov	w0, w28
    26b0: f5 5b 42 a9  	ldp	x21, x22, [sp, #32]
    26b4: f7 63 43 a9  	ldp	x23, x24, [sp, #48]
    26b8: f9 6b 44 a9  	ldp	x25, x26, [sp, #64]
    26bc: fb 73 45 a9  	ldp	x27, x28, [sp, #80]
    26c0: f3 53 41 a9  	ldp	x19, x20, [sp, #16]
    26c4: fd 7b c9 a8  	ldp	x29, x30, [sp], #144
    26c8: c0 03 5f d6  	ret
    26cc: f5 5b 42 a9  	ldp	x21, x22, [sp, #32]
    26d0: f7 63 43 a9  	ldp	x23, x24, [sp, #48]
    26d4: f9 6b 44 a9  	ldp	x25, x26, [sp, #64]
    26d8: fb 73 45 a9  	ldp	x27, x28, [sp, #80]
    26dc: 1f 20 03 d5  	nop
    26e0: 00 00 80 52  	mov	w0, #0
    26e4: f3 53 41 a9  	ldp	x19, x20, [sp, #16]
    26e8: fd 7b c9 a8  	ldp	x29, x30, [sp], #144
    26ec: c0 03 5f d6  	ret
    26f0: e2 02 40 b9  	ldr	w2, [x23]
    26f4: 00 00 00 90  	adrp	x0, 0x2000 <bpf_object__init_struct_ops_maps+0x274>
    26f8: 01 00 00 90  	adrp	x1, 0x2000 <bpf_object__init_struct_ops_maps+0x278>
    26fc: 03 00 00 91  	add	x3, x0, #0
    2700: 21 00 00 91  	add	x1, x1, #0
    2704: 00 00 80 52  	mov	w0, #0
    2708: 00 00 00 94  	bl	0x2708 <bpf_object__init_struct_ops_maps+0x288>
    270c: a0 02 80 12  	mov	w0, #-22
    2710: f3 53 41 a9  	ldp	x19, x20, [sp, #16]
    2714: f5 5b 42 a9  	ldp	x21, x22, [sp, #32]
    2718: f7 63 43 a9  	ldp	x23, x24, [sp, #48]
    271c: f9 6b 44 a9  	ldp	x25, x26, [sp, #64]
    2720: fb 73 45 a9  	ldp	x27, x28, [sp, #80]
    2724: fd 7b c9 a8  	ldp	x29, x30, [sp], #144
    2728: c0 03 5f d6  	ret
    272c: 00 00 80 52  	mov	w0, #0
    2730: 01 00 00 90  	adrp	x1, 0x2000 <bpf_object__init_struct_ops_maps+0x2b0>
    2734: 21 00 00 91  	add	x1, x1, #0
    2738: 00 00 00 94  	bl	0x2738 <bpf_object__init_struct_ops_maps+0x2b8>
    273c: c0 0b 80 12  	mov	w0, #-95
    2740: f5 5b 42 a9  	ldp	x21, x22, [sp, #32]
    2744: f7 63 43 a9  	ldp	x23, x24, [sp, #48]
    2748: f9 6b 44 a9  	ldp	x25, x26, [sp, #64]
    274c: fb 73 45 a9  	ldp	x27, x28, [sp, #80]
    2750: dc ff ff 17  	b	0x26c0 <bpf_object__init_struct_ops_maps+0x240>
    2754: e2 03 16 aa  	mov	x2, x22
    2758: 01 00 00 90  	adrp	x1, 0x2000 <bpf_object__init_struct_ops_maps+0x2d8>
    275c: 00 00 80 52  	mov	w0, #0
    2760: 21 00 00 91  	add	x1, x1, #0
    2764: 00 00 00 94  	bl	0x2764 <bpf_object__init_struct_ops_maps+0x2e4>
    2768: e9 ff ff 17  	b	0x270c <bpf_object__init_struct_ops_maps+0x28c>
    276c: 00 00 00 90  	adrp	x0, 0x2000 <bpf_object__init_struct_ops_maps+0x2ec>
    2770: e2 03 18 aa  	mov	x2, x24
    2774: 03 00 00 91  	add	x3, x0, #0
    2778: 01 00 00 90  	adrp	x1, 0x2000 <bpf_object__init_struct_ops_maps+0x2f8>
    277c: 00 00 80 52  	mov	w0, #0
    2780: 21 00 00 91  	add	x1, x1, #0
    2784: 00 00 00 94  	bl	0x2784 <bpf_object__init_struct_ops_maps+0x304>
    2788: e1 ff ff 17  	b	0x270c <bpf_object__init_struct_ops_maps+0x28c>
    278c: 00 00 80 52  	mov	w0, #0
    2790: f5 5b 42 a9  	ldp	x21, x22, [sp, #32]
    2794: f7 63 43 a9  	ldp	x23, x24, [sp, #48]
    2798: d3 ff ff 17  	b	0x26e4 <bpf_object__init_struct_ops_maps+0x264>
    279c: 60 01 80 12  	mov	w0, #-12
    27a0: f5 5b 42 a9  	ldp	x21, x22, [sp, #32]
    27a4: f7 63 43 a9  	ldp	x23, x24, [sp, #48]
    27a8: f9 6b 44 a9  	ldp	x25, x26, [sp, #64]
    27ac: fb 73 45 a9  	ldp	x27, x28, [sp, #80]
    27b0: c4 ff ff 17  	b	0x26c0 <bpf_object__init_struct_ops_maps+0x240>
    27b4: e2 03 15 aa  	mov	x2, x21
    27b8: 00 00 80 52  	mov	w0, #0
    27bc: 01 00 00 90  	adrp	x1, 0x2000 <bpf_object__init_struct_ops_maps+0x33c>
    27c0: 21 00 00 91  	add	x1, x1, #0
    27c4: 00 00 00 94  	bl	0x27c4 <bpf_object__init_struct_ops_maps+0x344>
    27c8: a0 02 80 12  	mov	w0, #-22
    27cc: f5 5b 42 a9  	ldp	x21, x22, [sp, #32]
    27d0: bc ff ff 17  	b	0x26c0 <bpf_object__init_struct_ops_maps+0x240>

00000000000027d4 <set_kcfg_value_num>:
    27d4: fd 7b bf a9  	stp	x29, x30, [sp, #-16]!
    27d8: e5 03 00 aa  	mov	x5, x0
    27dc: e3 03 02 aa  	mov	x3, x2
    27e0: fd 03 00 91  	mov	x29, sp
    27e4: 00 20 40 b9  	ldr	w0, [x0, #32]
    27e8: 00 78 1e 12  	and	w0, w0, #0xfffffffd
    27ec: 1f 04 00 71  	cmp	w0, #1
    27f0: 81 05 00 54  	b.ne	0x28a0 <set_kcfg_value_num+0xcc>
    27f4: a4 24 40 b9  	ldr	w4, [x5, #36]
    27f8: 82 70 1d 53  	lsl	w2, w4, #3
    27fc: 9f 20 00 71  	cmp	w4, #8
    2800: 80 04 00 54  	b.eq	0x2890 <set_kcfg_value_num+0xbc>
    2804: a0 c0 40 39  	ldrb	w0, [x5, #48]
    2808: c0 01 00 35  	cbnz	w0, 0x2840 <set_kcfg_value_num+0x6c>
    280c: 62 24 c2 9a  	lsr	x2, x3, x2
    2810: 42 02 00 b5  	cbnz	x2, 0x2858 <set_kcfg_value_num+0x84>
    2814: 9f 08 00 71  	cmp	w4, #2
    2818: 00 04 00 54  	b.eq	0x2898 <set_kcfg_value_num+0xc4>
    281c: cc 02 00 54  	b.gt	0x2874 <set_kcfg_value_num+0xa0>
    2820: 9f 04 00 71  	cmp	w4, #1
    2824: 01 03 00 54  	b.ne	0x2884 <set_kcfg_value_num+0xb0>
    2828: 23 00 00 39  	strb	w3, [x1]
    282c: 21 00 80 52  	mov	w1, #1
    2830: 00 00 80 52  	mov	w0, #0
    2834: a1 60 00 39  	strb	w1, [x5, #24]
    2838: fd 7b c1 a8  	ldp	x29, x30, [sp], #16
    283c: c0 03 5f d6  	ret
    2840: 46 04 00 51  	sub	w6, w2, #1
    2844: 20 00 80 d2  	mov	x0, #1
    2848: 00 20 c6 9a  	lsl	x0, x0, x6
    284c: 00 00 03 8b  	add	x0, x0, x3
    2850: 00 24 c2 9a  	lsr	x0, x0, x2
    2854: 00 fe ff b4  	cbz	x0, 0x2814 <set_kcfg_value_num+0x40>
    2858: a2 08 40 f9  	ldr	x2, [x5, #16]
    285c: 00 00 80 52  	mov	w0, #0
    2860: 01 00 00 90  	adrp	x1, 0x2000 <set_kcfg_value_num+0x8c>
    2864: 21 00 00 91  	add	x1, x1, #0
    2868: 00 00 00 94  	bl	0x2868 <set_kcfg_value_num+0x94>
    286c: 20 04 80 12  	mov	w0, #-34
    2870: f2 ff ff 17  	b	0x2838 <set_kcfg_value_num+0x64>
    2874: 9f 10 00 71  	cmp	w4, #4
    2878: 61 00 00 54  	b.ne	0x2884 <set_kcfg_value_num+0xb0>
    287c: 23 00 00 b9  	str	w3, [x1]
    2880: eb ff ff 17  	b	0x282c <set_kcfg_value_num+0x58>
    2884: a0 02 80 12  	mov	w0, #-22
    2888: fd 7b c1 a8  	ldp	x29, x30, [sp], #16
    288c: c0 03 5f d6  	ret
    2890: 23 00 00 f9  	str	x3, [x1]
    2894: e6 ff ff 17  	b	0x282c <set_kcfg_value_num+0x58>
    2898: 23 00 00 79  	strh	w3, [x1]
    289c: e4 ff ff 17  	b	0x282c <set_kcfg_value_num+0x58>
    28a0: a2 08 40 f9  	ldr	x2, [x5, #16]
    28a4: 00 00 80 52  	mov	w0, #0
    28a8: 01 00 00 90  	adrp	x1, 0x2000 <set_kcfg_value_num+0xd4>
    28ac: 21 00 00 91  	add	x1, x1, #0
    28b0: 00 00 00 94  	bl	0x28b0 <set_kcfg_value_num+0xdc>
    28b4: a0 02 80 12  	mov	w0, #-22
    28b8: e0 ff ff 17  	b	0x2838 <set_kcfg_value_num+0x64>
    28bc: 1f 20 03 d5  	nop

00000000000028c0 <bpf_object__process_kconfig_line.part.0>:
    28c0: fd 7b b9 a9  	stp	x29, x30, [sp, #-112]!
    28c4: 03 00 00 90  	adrp	x3, 0x2000 <bpf_object__process_kconfig_line.part.0+0x4>
    28c8: fd 03 00 91  	mov	x29, sp
    28cc: 63 00 40 f9  	ldr	x3, [x3]
    28d0: f3 53 01 a9  	stp	x19, x20, [sp, #16]
    28d4: f3 03 00 aa  	mov	x19, x0
    28d8: f5 5b 02 a9  	stp	x21, x22, [sp, #32]
    28dc: e0 03 01 aa  	mov	x0, x1
    28e0: f6 03 01 aa  	mov	x22, x1
    28e4: f9 6b 04 a9  	stp	x25, x26, [sp, #64]
    28e8: fa 03 02 aa  	mov	x26, x2
    28ec: 61 00 40 f9  	ldr	x1, [x3]
    28f0: e1 37 00 f9  	str	x1, [sp, #104]
    28f4: 01 00 80 d2  	mov	x1, #0
    28f8: a1 07 80 52  	mov	w1, #61
    28fc: 00 00 00 94  	bl	0x28fc <bpf_object__process_kconfig_line.part.0+0x3c>
    2900: 60 19 00 b4  	cbz	x0, 0x2c2c <bpf_object__process_kconfig_line.part.0+0x36c>
    2904: f7 63 03 a9  	stp	x23, x24, [sp, #48]
    2908: f8 03 00 aa  	mov	x24, x0
    290c: e0 03 16 aa  	mov	x0, x22
    2910: 00 00 00 94  	bl	0x2910 <bpf_object__process_kconfig_line.part.0+0x50>
    2914: 01 7c 40 93  	sxtw	x1, w0
    2918: 21 04 00 d1  	sub	x1, x1, #1
    291c: c0 6a 61 38  	ldrb	w0, [x22, x1]
    2920: 1f 28 00 71  	cmp	w0, #10
    2924: 41 00 00 54  	b.ne	0x292c <bpf_object__process_kconfig_line.part.0+0x6c>
    2928: df 6a 21 38  	strb	wzr, [x22, x1]
    292c: 19 07 40 39  	ldrb	w25, [x24, #1]
    2930: 1f 03 00 39  	strb	wzr, [x24]
    2934: 99 16 00 34  	cbz	w25, 0x2c04 <bpf_object__process_kconfig_line.part.0+0x344>
    2938: 77 92 40 b9  	ldr	w23, [x19, #144]
    293c: ff 02 00 71  	cmp	w23, #0
    2940: 0d 0a 00 54  	b.le	0x2a80 <bpf_object__process_kconfig_line.part.0+0x1c0>
    2944: 73 46 40 f9  	ldr	x19, [x19, #136]
    2948: f7 06 00 51  	sub	w23, w23, #1
    294c: 01 07 80 52  	mov	w1, #56
    2950: 60 e2 00 91  	add	x0, x19, #56
    2954: f7 02 a1 9b  	umaddl	x23, w23, w1, x0
    2958: 04 00 00 14  	b	0x2968 <bpf_object__process_kconfig_line.part.0+0xa8>
    295c: 73 e2 00 91  	add	x19, x19, #56
    2960: 7f 02 17 eb  	cmp	x19, x23
    2964: e0 08 00 54  	b.eq	0x2a80 <bpf_object__process_kconfig_line.part.0+0x1c0>
    2968: 75 0a 40 f9  	ldr	x21, [x19, #16]
    296c: e1 03 16 aa  	mov	x1, x22
    2970: e0 03 15 aa  	mov	x0, x21
    2974: 00 00 00 94  	bl	0x2974 <bpf_object__process_kconfig_line.part.0+0xb4>
    2978: f4 03 00 2a  	mov	w20, w0
    297c: 00 ff ff 35  	cbnz	w0, 0x295c <bpf_object__process_kconfig_line.part.0+0x9c>
    2980: 61 62 40 39  	ldrb	w1, [x19, #24]
    2984: c1 09 00 35  	cbnz	w1, 0x2abc <bpf_object__process_kconfig_line.part.0+0x1fc>
    2988: 61 2e 80 b9  	ldrsw	x1, [x19, #44]
    298c: 17 07 00 91  	add	x23, x24, #1
    2990: fb 2b 00 f9  	str	x27, [sp, #80]
    2994: 5b 03 01 8b  	add	x27, x26, x1
    2998: 3f bb 01 71  	cmp	w25, #110
    299c: 48 04 00 54  	b.hi	0x2a24 <bpf_object__process_kconfig_line.part.0+0x164>
    29a0: 3f b3 01 71  	cmp	w25, #108
    29a4: a8 0c 00 54  	b.hi	0x2b38 <bpf_object__process_kconfig_line.part.0+0x278>
    29a8: 3f 8b 00 71  	cmp	w25, #34
    29ac: 01 04 00 54  	b.ne	0x2a2c <bpf_object__process_kconfig_line.part.0+0x16c>
    29b0: 61 22 40 b9  	ldr	w1, [x19, #32]
    29b4: 3f 14 00 71  	cmp	w1, #5
    29b8: c1 15 00 54  	b.ne	0x2c70 <bpf_object__process_kconfig_line.part.0+0x3b0>
    29bc: e0 03 17 aa  	mov	x0, x23
    29c0: 00 00 00 94  	bl	0x29c0 <bpf_object__process_kconfig_line.part.0+0x100>
    29c4: 01 6b 60 38  	ldrb	w1, [x24, x0]
    29c8: 3f 88 00 71  	cmp	w1, #34
    29cc: e1 13 00 54  	b.ne	0x2c48 <bpf_object__process_kconfig_line.part.0+0x388>
    29d0: 65 26 40 b9  	ldr	w5, [x19, #36]
    29d4: 16 08 00 d1  	sub	x22, x0, #2
    29d8: df c2 25 eb  	cmp	x22, w5, sxtw
    29dc: 62 09 00 54  	b.hs	0x2b08 <bpf_object__process_kconfig_line.part.0+0x248>
    29e0: 01 0b 00 91  	add	x1, x24, #2
    29e4: e2 03 16 aa  	mov	x2, x22
    29e8: e0 03 1b aa  	mov	x0, x27
    29ec: 00 00 00 94  	bl	0x29ec <bpf_object__process_kconfig_line.part.0+0x12c>
    29f0: 7f 6b 36 38  	strb	wzr, [x27, x22]
    29f4: 20 00 80 52  	mov	w0, #1
    29f8: 60 62 00 39  	strb	w0, [x19, #24]
    29fc: 75 0a 40 f9  	ldr	x21, [x19, #16]
    2a00: e3 03 17 aa  	mov	x3, x23
    2a04: e2 03 15 aa  	mov	x2, x21
    2a08: 01 00 00 90  	adrp	x1, 0x2000 <bpf_object__process_kconfig_line.part.0+0x148>
    2a0c: 40 00 80 52  	mov	w0, #2
    2a10: 21 00 00 91  	add	x1, x1, #0
    2a14: 00 00 00 94  	bl	0x2a14 <bpf_object__process_kconfig_line.part.0+0x154>
    2a18: f7 63 43 a9  	ldp	x23, x24, [sp, #48]
    2a1c: fb 2b 40 f9  	ldr	x27, [sp, #80]
    2a20: 1a 00 00 14  	b	0x2a88 <bpf_object__process_kconfig_line.part.0+0x1c8>
    2a24: 3f e7 01 71  	cmp	w25, #121
    2a28: e0 04 00 54  	b.eq	0x2ac4 <bpf_object__process_kconfig_line.part.0+0x204>
    2a2c: 00 00 00 94  	bl	0x2a2c <bpf_object__process_kconfig_line.part.0+0x16c>
    2a30: f5 03 00 aa  	mov	x21, x0
    2a34: e1 83 01 91  	add	x1, sp, #96
    2a38: 02 00 80 52  	mov	w2, #0
    2a3c: e0 03 17 aa  	mov	x0, x23
    2a40: bf 02 00 b9  	str	wzr, [x21]
    2a44: 00 00 00 94  	bl	0x2a44 <bpf_object__process_kconfig_line.part.0+0x184>
    2a48: e2 03 00 aa  	mov	x2, x0
    2a4c: a1 02 40 b9  	ldr	w1, [x21]
    2a50: 01 0b 00 35  	cbnz	w1, 0x2bb0 <bpf_object__process_kconfig_line.part.0+0x2f0>
    2a54: e0 33 40 f9  	ldr	x0, [sp, #96]
    2a58: 00 00 40 39  	ldrb	w0, [x0]
    2a5c: c0 11 00 35  	cbnz	w0, 0x2c94 <bpf_object__process_kconfig_line.part.0+0x3d4>
    2a60: e1 03 1b aa  	mov	x1, x27
    2a64: e0 03 13 aa  	mov	x0, x19
    2a68: 5b ff ff 97  	bl	0x27d4 <set_kcfg_value_num>
    2a6c: 80 0c 00 34  	cbz	w0, 0x2bfc <bpf_object__process_kconfig_line.part.0+0x33c>
    2a70: f4 03 00 2a  	mov	w20, w0
    2a74: f7 63 43 a9  	ldp	x23, x24, [sp, #48]
    2a78: fb 2b 40 f9  	ldr	x27, [sp, #80]
    2a7c: 03 00 00 14  	b	0x2a88 <bpf_object__process_kconfig_line.part.0+0x1c8>
    2a80: f7 63 43 a9  	ldp	x23, x24, [sp, #48]
    2a84: 14 00 80 52  	mov	w20, #0
    2a88: 00 00 00 90  	adrp	x0, 0x2000 <bpf_object__process_kconfig_line.part.0+0x1c8>
    2a8c: 00 00 40 f9  	ldr	x0, [x0]
    2a90: e2 37 40 f9  	ldr	x2, [sp, #104]
    2a94: 01 00 40 f9  	ldr	x1, [x0]
    2a98: 42 00 01 eb  	subs	x2, x2, x1
    2a9c: 01 00 80 d2  	mov	x1, #0
    2aa0: 81 10 00 54  	b.ne	0x2cb0 <bpf_object__process_kconfig_line.part.0+0x3f0>
    2aa4: e0 03 14 2a  	mov	w0, w20
    2aa8: f3 53 41 a9  	ldp	x19, x20, [sp, #16]
    2aac: f5 5b 42 a9  	ldp	x21, x22, [sp, #32]
    2ab0: f9 6b 44 a9  	ldp	x25, x26, [sp, #64]
    2ab4: fd 7b c7 a8  	ldp	x29, x30, [sp], #112
    2ab8: c0 03 5f d6  	ret
    2abc: f7 63 43 a9  	ldp	x23, x24, [sp, #48]
    2ac0: f2 ff ff 17  	b	0x2a88 <bpf_object__process_kconfig_line.part.0+0x1c8>
    2ac4: 62 22 40 b9  	ldr	w2, [x19, #32]
    2ac8: 5f 08 00 71  	cmp	w2, #2
    2acc: 20 05 00 54  	b.eq	0x2b70 <bpf_object__process_kconfig_line.part.0+0x2b0>
    2ad0: 5f 10 00 71  	cmp	w2, #4
    2ad4: a0 05 00 54  	b.eq	0x2b88 <bpf_object__process_kconfig_line.part.0+0x2c8>
    2ad8: 5f 04 00 71  	cmp	w2, #1
    2adc: 40 06 00 54  	b.eq	0x2ba4 <bpf_object__process_kconfig_line.part.0+0x2e4>
    2ae0: e3 03 19 2a  	mov	w3, w25
    2ae4: e2 03 15 aa  	mov	x2, x21
    2ae8: 01 00 00 90  	adrp	x1, 0x2000 <bpf_object__process_kconfig_line.part.0+0x228>
    2aec: 00 00 80 52  	mov	w0, #0
    2af0: 21 00 00 91  	add	x1, x1, #0
    2af4: b4 02 80 12  	mov	w20, #-22
    2af8: 00 00 00 94  	bl	0x2af8 <bpf_object__process_kconfig_line.part.0+0x238>
    2afc: f7 63 43 a9  	ldp	x23, x24, [sp, #48]
    2b00: fb 2b 40 f9  	ldr	x27, [sp, #80]
    2b04: e1 ff ff 17  	b	0x2a88 <bpf_object__process_kconfig_line.part.0+0x1c8>
    2b08: e4 03 16 aa  	mov	x4, x22
    2b0c: a5 04 00 51  	sub	w5, w5, #1
    2b10: e2 03 15 aa  	mov	x2, x21
    2b14: e3 03 17 aa  	mov	x3, x23
    2b18: 01 00 00 90  	adrp	x1, 0x2000 <bpf_object__process_kconfig_line.part.0+0x258>
    2b1c: 00 00 80 52  	mov	w0, #0
    2b20: 21 00 00 91  	add	x1, x1, #0
    2b24: 00 00 00 94  	bl	0x2b24 <bpf_object__process_kconfig_line.part.0+0x264>
    2b28: 76 26 40 b9  	ldr	w22, [x19, #36]
    2b2c: d6 06 00 51  	sub	w22, w22, #1
    2b30: d6 7e 40 93  	sxtw	x22, w22
    2b34: ab ff ff 17  	b	0x29e0 <bpf_object__process_kconfig_line.part.0+0x120>
    2b38: 62 22 40 b9  	ldr	w2, [x19, #32]
    2b3c: 5f 08 00 71  	cmp	w2, #2
    2b40: 81 fc ff 54  	b.ne	0x2ad0 <bpf_object__process_kconfig_line.part.0+0x210>
    2b44: 3f b7 01 71  	cmp	w25, #109
    2b48: 41 01 00 54  	b.ne	0x2b70 <bpf_object__process_kconfig_line.part.0+0x2b0>
    2b4c: e3 03 19 2a  	mov	w3, w25
    2b50: e2 03 15 aa  	mov	x2, x21
    2b54: 01 00 00 90  	adrp	x1, 0x2000 <bpf_object__process_kconfig_line.part.0+0x294>
    2b58: b4 02 80 12  	mov	w20, #-22
    2b5c: 21 00 00 91  	add	x1, x1, #0
    2b60: 00 00 00 94  	bl	0x2b60 <bpf_object__process_kconfig_line.part.0+0x2a0>
    2b64: f7 63 43 a9  	ldp	x23, x24, [sp, #48]
    2b68: fb 2b 40 f9  	ldr	x27, [sp, #80]
    2b6c: c7 ff ff 17  	b	0x2a88 <bpf_object__process_kconfig_line.part.0+0x1c8>
    2b70: 3f e7 01 71  	cmp	w25, #121
    2b74: e0 17 9f 1a  	cset	w0, eq
    2b78: 40 6b 21 38  	strb	w0, [x26, x1]
    2b7c: 20 00 80 52  	mov	w0, #1
    2b80: 60 62 00 39  	strb	w0, [x19, #24]
    2b84: 9f ff ff 17  	b	0x2a00 <bpf_object__process_kconfig_line.part.0+0x140>
    2b88: 3f e7 01 71  	cmp	w25, #121
    2b8c: 20 03 00 54  	b.eq	0x2bf0 <bpf_object__process_kconfig_line.part.0+0x330>
    2b90: 3f b7 01 71  	cmp	w25, #109
    2b94: 40 00 80 52  	mov	w0, #2
    2b98: 00 00 9f 1a  	csel	w0, w0, wzr, eq
    2b9c: 40 6b 21 b8  	str	w0, [x26, x1]
    2ba0: f7 ff ff 17  	b	0x2b7c <bpf_object__process_kconfig_line.part.0+0x2bc>
    2ba4: 59 6b 21 38  	strb	w25, [x26, x1]
    2ba8: 75 0a 40 f9  	ldr	x21, [x19, #16]
    2bac: f4 ff ff 17  	b	0x2b7c <bpf_object__process_kconfig_line.part.0+0x2bc>
    2bb0: f4 03 01 4b  	neg	w20, w1
    2bb4: e2 03 17 aa  	mov	x2, x23
    2bb8: 01 00 00 90  	adrp	x1, 0x2000 <bpf_object__process_kconfig_line.part.0+0x2f8>
    2bbc: e3 03 14 2a  	mov	w3, w20
    2bc0: 21 00 00 91  	add	x1, x1, #0
    2bc4: 00 00 80 52  	mov	w0, #0
    2bc8: 00 00 00 94  	bl	0x2bc8 <bpf_object__process_kconfig_line.part.0+0x308>
    2bcc: 62 0a 40 f9  	ldr	x2, [x19, #16]
    2bd0: e3 03 17 aa  	mov	x3, x23
    2bd4: 01 00 00 90  	adrp	x1, 0x2000 <bpf_object__process_kconfig_line.part.0+0x314>
    2bd8: 00 00 80 52  	mov	w0, #0
    2bdc: 21 00 00 91  	add	x1, x1, #0
    2be0: 00 00 00 94  	bl	0x2be0 <bpf_object__process_kconfig_line.part.0+0x320>
    2be4: f7 63 43 a9  	ldp	x23, x24, [sp, #48]
    2be8: fb 2b 40 f9  	ldr	x27, [sp, #80]
    2bec: a7 ff ff 17  	b	0x2a88 <bpf_object__process_kconfig_line.part.0+0x1c8>
    2bf0: 20 00 80 52  	mov	w0, #1
    2bf4: 40 6b 21 b8  	str	w0, [x26, x1]
    2bf8: e1 ff ff 17  	b	0x2b7c <bpf_object__process_kconfig_line.part.0+0x2bc>
    2bfc: 75 0a 40 f9  	ldr	x21, [x19, #16]
    2c00: 80 ff ff 17  	b	0x2a00 <bpf_object__process_kconfig_line.part.0+0x140>
    2c04: a0 07 80 52  	mov	w0, #61
    2c08: 00 03 00 39  	strb	w0, [x24]
    2c0c: e2 03 16 aa  	mov	x2, x22
    2c10: 01 00 00 90  	adrp	x1, 0x2000 <bpf_object__process_kconfig_line.part.0+0x350>
    2c14: 00 00 80 52  	mov	w0, #0
    2c18: 21 00 00 91  	add	x1, x1, #0
    2c1c: b4 02 80 12  	mov	w20, #-22
    2c20: 00 00 00 94  	bl	0x2c20 <bpf_object__process_kconfig_line.part.0+0x360>
    2c24: f7 63 43 a9  	ldp	x23, x24, [sp, #48]
    2c28: 98 ff ff 17  	b	0x2a88 <bpf_object__process_kconfig_line.part.0+0x1c8>
    2c2c: e2 03 16 aa  	mov	x2, x22
    2c30: 01 00 00 90  	adrp	x1, 0x2000 <bpf_object__process_kconfig_line.part.0+0x370>
    2c34: 00 00 80 52  	mov	w0, #0
    2c38: 21 00 00 91  	add	x1, x1, #0
    2c3c: b4 02 80 12  	mov	w20, #-22
    2c40: 00 00 00 94  	bl	0x2c40 <bpf_object__process_kconfig_line.part.0+0x380>
    2c44: 91 ff ff 17  	b	0x2a88 <bpf_object__process_kconfig_line.part.0+0x1c8>
    2c48: e3 03 17 aa  	mov	x3, x23
    2c4c: e2 03 15 aa  	mov	x2, x21
    2c50: 01 00 00 90  	adrp	x1, 0x2000 <bpf_object__process_kconfig_line.part.0+0x390>
    2c54: 00 00 80 52  	mov	w0, #0
    2c58: 21 00 00 91  	add	x1, x1, #0
    2c5c: b4 02 80 12  	mov	w20, #-22
    2c60: 00 00 00 94  	bl	0x2c60 <bpf_object__process_kconfig_line.part.0+0x3a0>
    2c64: f7 63 43 a9  	ldp	x23, x24, [sp, #48]
    2c68: fb 2b 40 f9  	ldr	x27, [sp, #80]
    2c6c: 87 ff ff 17  	b	0x2a88 <bpf_object__process_kconfig_line.part.0+0x1c8>
    2c70: e3 03 17 aa  	mov	x3, x23
    2c74: e2 03 15 aa  	mov	x2, x21
    2c78: 01 00 00 90  	adrp	x1, 0x2000 <bpf_object__process_kconfig_line.part.0+0x3b8>
    2c7c: b4 02 80 12  	mov	w20, #-22
    2c80: 21 00 00 91  	add	x1, x1, #0
    2c84: 00 00 00 94  	bl	0x2c84 <bpf_object__process_kconfig_line.part.0+0x3c4>
    2c88: f7 63 43 a9  	ldp	x23, x24, [sp, #48]
    2c8c: fb 2b 40 f9  	ldr	x27, [sp, #80]
    2c90: 7e ff ff 17  	b	0x2a88 <bpf_object__process_kconfig_line.part.0+0x1c8>
    2c94: e2 03 17 aa  	mov	x2, x23
    2c98: b4 02 80 12  	mov	w20, #-22
    2c9c: 01 00 00 90  	adrp	x1, 0x2000 <bpf_object__process_kconfig_line.part.0+0x3dc>
    2ca0: 00 00 80 52  	mov	w0, #0
    2ca4: 21 00 00 91  	add	x1, x1, #0
    2ca8: 00 00 00 94  	bl	0x2ca8 <bpf_object__process_kconfig_line.part.0+0x3e8>
    2cac: c8 ff ff 17  	b	0x2bcc <bpf_object__process_kconfig_line.part.0+0x30c>
    2cb0: f7 63 03 a9  	stp	x23, x24, [sp, #48]
    2cb4: fb 2b 00 f9  	str	x27, [sp, #80]
    2cb8: 00 00 00 94  	bl	0x2cb8 <bpf_object__process_kconfig_line.part.0+0x3f8>
    2cbc: 1f 20 03 d5  	nop

0000000000002cc0 <bpf_object__read_kconfig_mem>:
    2cc0: 0c 0c 82 d2  	mov	x12, #4192
    2cc4: ff 63 2c cb  	sub	sp, sp, x12
    2cc8: 03 00 00 90  	adrp	x3, 0x2000 <bpf_object__read_kconfig_mem+0x8>
    2ccc: fd 7b 00 a9  	stp	x29, x30, [sp]
    2cd0: fd 03 00 91  	mov	x29, sp
    2cd4: 63 00 40 f9  	ldr	x3, [x3]
    2cd8: f3 53 01 a9  	stp	x19, x20, [sp, #16]
    2cdc: f3 03 01 aa  	mov	x19, x1
    2ce0: f7 63 03 a9  	stp	x23, x24, [sp, #48]
    2ce4: f7 03 00 aa  	mov	x23, x0
    2ce8: e0 03 01 aa  	mov	x0, x1
    2cec: f9 23 00 f9  	str	x25, [sp, #64]
    2cf0: f8 03 02 aa  	mov	x24, x2
    2cf4: 61 00 40 f9  	ldr	x1, [x3]
    2cf8: e1 2f 08 f9  	str	x1, [sp, #4184]
    2cfc: 01 00 80 d2  	mov	x1, #0
    2d00: 00 00 00 94  	bl	0x2d00 <bpf_object__read_kconfig_mem+0x40>
    2d04: e1 03 00 aa  	mov	x1, x0
    2d08: 02 00 00 90  	adrp	x2, 0x2000 <bpf_object__read_kconfig_mem+0x48>
    2d0c: e0 03 13 aa  	mov	x0, x19
    2d10: 42 00 00 91  	add	x2, x2, #0
    2d14: 00 00 00 94  	bl	0x2d14 <bpf_object__read_kconfig_mem+0x54>
    2d18: c0 06 00 b4  	cbz	x0, 0x2df0 <bpf_object__read_kconfig_mem+0x130>
    2d1c: f4 03 00 aa  	mov	x20, x0
    2d20: f3 63 01 91  	add	x19, sp, #88
    2d24: f5 5b 02 a9  	stp	x21, x22, [sp, #32]
    2d28: 75 e8 89 52  	mov	w21, #20291
    2d2c: d5 c9 a8 72  	movk	w21, #17998, lsl #16
    2d30: 36 e9 88 52  	mov	w22, #18249
    2d34: 1f 20 03 d5  	nop
    2d38: e2 03 14 aa  	mov	x2, x20
    2d3c: e0 03 13 aa  	mov	x0, x19
    2d40: 01 00 82 52  	mov	w1, #4096
    2d44: 00 00 00 94  	bl	0x2d44 <bpf_object__read_kconfig_mem+0x84>
    2d48: e0 02 00 b4  	cbz	x0, 0x2da4 <bpf_object__read_kconfig_mem+0xe4>
    2d4c: 61 02 40 b9  	ldr	w1, [x19]
    2d50: 3f 00 15 6b  	cmp	w1, w21
    2d54: 21 ff ff 54  	b.ne	0x2d38 <bpf_object__read_kconfig_mem+0x78>
    2d58: 61 0a 40 79  	ldrh	w1, [x19, #4]
    2d5c: 3f 00 16 6b  	cmp	w1, w22
    2d60: c1 fe ff 54  	b.ne	0x2d38 <bpf_object__read_kconfig_mem+0x78>
    2d64: 60 1a 40 39  	ldrb	w0, [x19, #6]
    2d68: 1f 7c 01 71  	cmp	w0, #95
    2d6c: 61 fe ff 54  	b.ne	0x2d38 <bpf_object__read_kconfig_mem+0x78>
    2d70: e2 03 18 aa  	mov	x2, x24
    2d74: e1 03 13 aa  	mov	x1, x19
    2d78: e0 03 17 aa  	mov	x0, x23
    2d7c: d1 fe ff 97  	bl	0x28c0 <bpf_object__process_kconfig_line.part.0>
    2d80: f9 03 00 2a  	mov	w25, w0
    2d84: a0 fd ff 34  	cbz	w0, 0x2d38 <bpf_object__read_kconfig_mem+0x78>
    2d88: e3 03 00 2a  	mov	w3, w0
    2d8c: e2 03 13 aa  	mov	x2, x19
    2d90: 01 00 00 90  	adrp	x1, 0x2000 <bpf_object__read_kconfig_mem+0xd0>
    2d94: 00 00 80 52  	mov	w0, #0
    2d98: 21 00 00 91  	add	x1, x1, #0
    2d9c: 00 00 00 94  	bl	0x2d9c <bpf_object__read_kconfig_mem+0xdc>
    2da0: 02 00 00 14  	b	0x2da8 <bpf_object__read_kconfig_mem+0xe8>
    2da4: 19 00 80 52  	mov	w25, #0
    2da8: e0 03 14 aa  	mov	x0, x20
    2dac: 00 00 00 94  	bl	0x2dac <bpf_object__read_kconfig_mem+0xec>
    2db0: f5 5b 42 a9  	ldp	x21, x22, [sp, #32]
    2db4: 01 00 00 90  	adrp	x1, 0x2000 <bpf_object__read_kconfig_mem+0xf4>
    2db8: 21 00 40 f9  	ldr	x1, [x1]
    2dbc: e0 2f 48 f9  	ldr	x0, [sp, #4184]
    2dc0: 22 00 40 f9  	ldr	x2, [x1]
    2dc4: 00 00 02 eb  	subs	x0, x0, x2
    2dc8: 02 00 80 d2  	mov	x2, #0
    2dcc: 61 02 00 54  	b.ne	0x2e18 <bpf_object__read_kconfig_mem+0x158>
    2dd0: e0 03 19 2a  	mov	w0, w25
    2dd4: 0c 0c 82 d2  	mov	x12, #4192
    2dd8: fd 7b 40 a9  	ldp	x29, x30, [sp]
    2ddc: f3 53 41 a9  	ldp	x19, x20, [sp, #16]
    2de0: f7 63 43 a9  	ldp	x23, x24, [sp, #48]
    2de4: f9 23 40 f9  	ldr	x25, [sp, #64]
    2de8: ff 63 2c 8b  	add	sp, sp, x12
    2dec: c0 03 5f d6  	ret
    2df0: 00 00 00 94  	bl	0x2df0 <bpf_object__read_kconfig_mem+0x130>
    2df4: e2 03 00 aa  	mov	x2, x0
    2df8: 01 00 00 90  	adrp	x1, 0x2000 <bpf_object__read_kconfig_mem+0x138>
    2dfc: 00 00 80 52  	mov	w0, #0
    2e00: 21 00 00 91  	add	x1, x1, #0
    2e04: 59 00 40 b9  	ldr	w25, [x2]
    2e08: f9 03 19 4b  	neg	w25, w25
    2e0c: e2 03 19 2a  	mov	w2, w25
    2e10: 00 00 00 94  	bl	0x2e10 <bpf_object__read_kconfig_mem+0x150>
    2e14: e8 ff ff 17  	b	0x2db4 <bpf_object__read_kconfig_mem+0xf4>
    2e18: f5 5b 02 a9  	stp	x21, x22, [sp, #32]
    2e1c: 00 00 00 94  	bl	0x2e1c <bpf_object__read_kconfig_mem+0x15c>

0000000000002e20 <bpf_object__read_kconfig_file>:
    2e20: 0c 3c 82 d2  	mov	x12, #4576
    2e24: ff 63 2c cb  	sub	sp, sp, x12
    2e28: 02 00 00 90  	adrp	x2, 0x2000 <bpf_object__read_kconfig_file+0x8>
    2e2c: fd 7b 00 a9  	stp	x29, x30, [sp]
    2e30: fd 03 00 91  	mov	x29, sp
    2e34: 42 00 40 f9  	ldr	x2, [x2]
    2e38: f3 53 01 a9  	stp	x19, x20, [sp, #16]
    2e3c: f3 43 01 91  	add	x19, sp, #80
    2e40: f5 5b 02 a9  	stp	x21, x22, [sp, #32]
    2e44: f6 03 00 aa  	mov	x22, x0
    2e48: e0 03 13 aa  	mov	x0, x19
    2e4c: f7 63 03 a9  	stp	x23, x24, [sp, #48]
    2e50: f7 03 01 aa  	mov	x23, x1
    2e54: f3 63 07 91  	add	x19, sp, #472
    2e58: f9 23 00 f9  	str	x25, [sp, #64]
    2e5c: 15 00 00 90  	adrp	x21, 0x2000 <bpf_object__read_kconfig_file+0x3c>
    2e60: b5 02 00 91  	add	x21, x21, #0
    2e64: 41 00 40 f9  	ldr	x1, [x2]
    2e68: e1 ef 08 f9  	str	x1, [sp, #4568]
    2e6c: 01 00 80 d2  	mov	x1, #0
    2e70: 00 00 00 94  	bl	0x2e70 <bpf_object__read_kconfig_file+0x50>
    2e74: e5 4b 03 91  	add	x5, sp, #210
    2e78: 04 00 00 90  	adrp	x4, 0x2000 <bpf_object__read_kconfig_file+0x58>
    2e7c: 84 00 00 91  	add	x4, x4, #0
    2e80: 03 00 82 d2  	mov	x3, #4096
    2e84: 22 00 80 52  	mov	w2, #1
    2e88: e1 03 03 aa  	mov	x1, x3
    2e8c: e0 03 13 aa  	mov	x0, x19
    2e90: 00 00 00 94  	bl	0x2e90 <bpf_object__read_kconfig_file+0x70>
    2e94: e0 03 13 aa  	mov	x0, x19
    2e98: e1 03 15 aa  	mov	x1, x21
    2e9c: 00 00 00 94  	bl	0x2e9c <bpf_object__read_kconfig_file+0x7c>
    2ea0: f4 03 00 aa  	mov	x20, x0
    2ea4: 60 06 00 b4  	cbz	x0, 0x2f70 <bpf_object__read_kconfig_file+0x150>
    2ea8: 75 e8 89 52  	mov	w21, #20291
    2eac: 38 e9 88 52  	mov	w24, #18249
    2eb0: d5 c9 a8 72  	movk	w21, #17998, lsl #16
    2eb4: 1f 20 03 d5  	nop
    2eb8: e1 03 13 aa  	mov	x1, x19
    2ebc: e0 03 14 aa  	mov	x0, x20
    2ec0: 02 00 82 52  	mov	w2, #4096
    2ec4: 00 00 00 94  	bl	0x2ec4 <bpf_object__read_kconfig_file+0xa4>
    2ec8: 00 05 00 b4  	cbz	x0, 0x2f68 <bpf_object__read_kconfig_file+0x148>
    2ecc: 63 02 40 b9  	ldr	w3, [x19]
    2ed0: 7f 00 15 6b  	cmp	w3, w21
    2ed4: 21 ff ff 54  	b.ne	0x2eb8 <bpf_object__read_kconfig_file+0x98>
    2ed8: 63 0a 40 79  	ldrh	w3, [x19, #4]
    2edc: 7f 00 18 6b  	cmp	w3, w24
    2ee0: c1 fe ff 54  	b.ne	0x2eb8 <bpf_object__read_kconfig_file+0x98>
    2ee4: 60 1a 40 39  	ldrb	w0, [x19, #6]
    2ee8: 1f 7c 01 71  	cmp	w0, #95
    2eec: 61 fe ff 54  	b.ne	0x2eb8 <bpf_object__read_kconfig_file+0x98>
    2ef0: e2 03 17 aa  	mov	x2, x23
    2ef4: e1 03 13 aa  	mov	x1, x19
    2ef8: e0 03 16 aa  	mov	x0, x22
    2efc: 71 fe ff 97  	bl	0x28c0 <bpf_object__process_kconfig_line.part.0>
    2f00: f9 03 00 2a  	mov	w25, w0
    2f04: a0 fd ff 34  	cbz	w0, 0x2eb8 <bpf_object__read_kconfig_file+0x98>
    2f08: e3 03 00 2a  	mov	w3, w0
    2f0c: 01 00 00 90  	adrp	x1, 0x2000 <bpf_object__read_kconfig_file+0xec>
    2f10: e2 03 13 aa  	mov	x2, x19
    2f14: 21 00 00 91  	add	x1, x1, #0
    2f18: 00 00 80 52  	mov	w0, #0
    2f1c: 00 00 00 94  	bl	0x2f1c <bpf_object__read_kconfig_file+0xfc>
    2f20: e0 03 14 aa  	mov	x0, x20
    2f24: 00 00 00 94  	bl	0x2f24 <bpf_object__read_kconfig_file+0x104>
    2f28: 01 00 00 90  	adrp	x1, 0x2000 <bpf_object__read_kconfig_file+0x108>
    2f2c: 21 00 40 f9  	ldr	x1, [x1]
    2f30: e0 ef 48 f9  	ldr	x0, [sp, #4568]
    2f34: 22 00 40 f9  	ldr	x2, [x1]
    2f38: 00 00 02 eb  	subs	x0, x0, x2
    2f3c: 02 00 80 d2  	mov	x2, #0
    2f40: 01 03 00 54  	b.ne	0x2fa0 <bpf_object__read_kconfig_file+0x180>
    2f44: e0 03 19 2a  	mov	w0, w25
    2f48: 0c 3c 82 d2  	mov	x12, #4576
    2f4c: fd 7b 40 a9  	ldp	x29, x30, [sp]
    2f50: f3 53 41 a9  	ldp	x19, x20, [sp, #16]
    2f54: f5 5b 42 a9  	ldp	x21, x22, [sp, #32]
    2f58: f7 63 43 a9  	ldp	x23, x24, [sp, #48]
    2f5c: f9 23 40 f9  	ldr	x25, [sp, #64]
    2f60: ff 63 2c 8b  	add	sp, sp, x12
    2f64: c0 03 5f d6  	ret
    2f68: 19 00 80 52  	mov	w25, #0
    2f6c: ed ff ff 17  	b	0x2f20 <bpf_object__read_kconfig_file+0x100>
    2f70: e1 03 15 aa  	mov	x1, x21
    2f74: 00 00 00 90  	adrp	x0, 0x2000 <bpf_object__read_kconfig_file+0x154>
    2f78: 00 00 00 91  	add	x0, x0, #0
    2f7c: 00 00 00 94  	bl	0x2f7c <bpf_object__read_kconfig_file+0x15c>
    2f80: f4 03 00 aa  	mov	x20, x0
    2f84: 20 f9 ff b5  	cbnz	x0, 0x2ea8 <bpf_object__read_kconfig_file+0x88>
    2f88: 01 00 00 90  	adrp	x1, 0x2000 <bpf_object__read_kconfig_file+0x168>
    2f8c: 00 00 80 52  	mov	w0, #0
    2f90: 21 00 00 91  	add	x1, x1, #0
    2f94: 39 00 80 12  	mov	w25, #-2
    2f98: 00 00 00 94  	bl	0x2f98 <bpf_object__read_kconfig_file+0x178>
    2f9c: e3 ff ff 17  	b	0x2f28 <bpf_object__read_kconfig_file+0x108>
    2fa0: 00 00 00 94  	bl	0x2fa0 <bpf_object__read_kconfig_file+0x180>

0000000000002fa4 <bpf_object__read_kallsyms_file>:
    2fa4: ff c3 09 d1  	sub	sp, sp, #624
    2fa8: 02 00 00 90  	adrp	x2, 0x2000 <bpf_object__read_kallsyms_file+0x4>
    2fac: 01 00 00 90  	adrp	x1, 0x2000 <bpf_object__read_kallsyms_file+0x8>
    2fb0: 21 00 00 91  	add	x1, x1, #0
    2fb4: fd 7b 00 a9  	stp	x29, x30, [sp]
    2fb8: fd 03 00 91  	mov	x29, sp
    2fbc: 42 00 40 f9  	ldr	x2, [x2]
    2fc0: f3 53 01 a9  	stp	x19, x20, [sp, #16]
    2fc4: f5 5b 02 a9  	stp	x21, x22, [sp, #32]
    2fc8: f5 03 00 aa  	mov	x21, x0
    2fcc: 00 00 00 90  	adrp	x0, 0x2000 <bpf_object__read_kallsyms_file+0x28>
    2fd0: 43 00 40 f9  	ldr	x3, [x2]
    2fd4: e3 37 01 f9  	str	x3, [sp, #616]
    2fd8: 03 00 80 d2  	mov	x3, #0
    2fdc: 00 00 00 91  	add	x0, x0, #0
    2fe0: 00 00 00 94  	bl	0x2fe0 <bpf_object__read_kallsyms_file+0x3c>
    2fe4: a0 0c 00 b4  	cbz	x0, 0x3178 <bpf_object__read_kallsyms_file+0x1d4>
    2fe8: f6 03 00 aa  	mov	x22, x0
    2fec: f4 c3 01 91  	add	x20, sp, #112
    2ff0: f7 63 03 a9  	stp	x23, x24, [sp, #48]
    2ff4: 17 00 00 90  	adrp	x23, 0x2000 <bpf_object__read_kallsyms_file+0x50>
    2ff8: f8 a3 01 91  	add	x24, sp, #104
    2ffc: f7 02 00 91  	add	x23, x23, #0
    3000: f9 6b 04 a9  	stp	x25, x26, [sp, #64]
    3004: f9 9f 01 91  	add	x25, sp, #103
    3008: fb 73 05 a9  	stp	x27, x28, [sp, #80]
    300c: 1b 00 00 90  	adrp	x27, 0x3000 <bpf_object__read_kallsyms_file+0x68>
    3010: 7b 03 00 91  	add	x27, x27, #0
    3014: 1a 07 80 52  	mov	w26, #56
    3018: e4 03 14 aa  	mov	x4, x20
    301c: e3 03 19 aa  	mov	x3, x25
    3020: e2 03 18 aa  	mov	x2, x24
    3024: e1 03 17 aa  	mov	x1, x23
    3028: e0 03 16 aa  	mov	x0, x22
    302c: 00 00 00 94  	bl	0x302c <bpf_object__read_kallsyms_file+0x88>
    3030: f3 03 00 2a  	mov	w19, w0
    3034: 1f 04 00 31  	cmn	w0, #1
    3038: e0 04 00 54  	b.eq	0x30d4 <bpf_object__read_kallsyms_file+0x130>
    303c: 1f 0c 00 71  	cmp	w0, #3
    3040: 01 05 00 54  	b.ne	0x30e0 <bpf_object__read_kallsyms_file+0x13c>
    3044: b3 92 40 b9  	ldr	w19, [x21, #144]
    3048: 7f 02 00 71  	cmp	w19, #0
    304c: 6d fe ff 54  	b.le	0x3018 <bpf_object__read_kallsyms_file+0x74>
    3050: bc 46 40 f9  	ldr	x28, [x21, #136]
    3054: 73 06 00 51  	sub	w19, w19, #1
    3058: 80 e3 00 91  	add	x0, x28, #56
    305c: 73 02 ba 9b  	umaddl	x19, w19, w26, x0
    3060: 04 00 00 14  	b	0x3070 <bpf_object__read_kallsyms_file+0xcc>
    3064: 9c e3 00 91  	add	x28, x28, #56
    3068: 9f 03 13 eb  	cmp	x28, x19
    306c: 60 fd ff 54  	b.eq	0x3018 <bpf_object__read_kallsyms_file+0x74>
    3070: 80 0b 40 f9  	ldr	x0, [x28, #16]
    3074: e1 03 14 aa  	mov	x1, x20
    3078: 00 00 00 94  	bl	0x3078 <bpf_object__read_kallsyms_file+0xd4>
    307c: 40 ff ff 35  	cbnz	w0, 0x3064 <bpf_object__read_kallsyms_file+0xc0>
    3080: 93 03 40 b9  	ldr	w19, [x28]
    3084: 7f 0a 00 71  	cmp	w19, #2
    3088: 81 fc ff 54  	b.ne	0x3018 <bpf_object__read_kallsyms_file+0x74>
    308c: 81 0b 40 b9  	ldr	w1, [x28, #8]
    3090: a0 c2 40 f9  	ldr	x0, [x21, #384]
    3094: 00 00 00 94  	bl	0x3094 <bpf_object__read_kallsyms_file+0xf0>
    3098: 00 1c 40 39  	ldrb	w0, [x0, #7]
    309c: 00 10 00 12  	and	w0, w0, #0x1f
    30a0: 1f 38 00 71  	cmp	w0, #14
    30a4: a1 fb ff 54  	b.ne	0x3018 <bpf_object__read_kallsyms_file+0x74>
    30a8: 80 63 40 39  	ldrb	w0, [x28, #24]
    30ac: e3 37 40 f9  	ldr	x3, [sp, #104]
    30b0: 80 04 00 35  	cbnz	w0, 0x3140 <bpf_object__read_kallsyms_file+0x19c>
    30b4: 20 00 80 52  	mov	w0, #1
    30b8: 80 63 00 39  	strb	w0, [x28, #24]
    30bc: 83 13 00 f9  	str	x3, [x28, #32]
    30c0: e0 03 13 2a  	mov	w0, w19
    30c4: e2 03 14 aa  	mov	x2, x20
    30c8: e1 03 1b aa  	mov	x1, x27
    30cc: 00 00 00 94  	bl	0x30cc <bpf_object__read_kallsyms_file+0x128>
    30d0: d2 ff ff 17  	b	0x3018 <bpf_object__read_kallsyms_file+0x74>
    30d4: e0 03 16 aa  	mov	x0, x22
    30d8: 00 00 00 94  	bl	0x30d8 <bpf_object__read_kallsyms_file+0x134>
    30dc: a0 04 00 35  	cbnz	w0, 0x3170 <bpf_object__read_kallsyms_file+0x1cc>
    30e0: e2 03 13 2a  	mov	w2, w19
    30e4: 01 00 00 90  	adrp	x1, 0x3000 <bpf_object__read_kallsyms_file+0x140>
    30e8: 00 00 80 52  	mov	w0, #0
    30ec: 21 00 00 91  	add	x1, x1, #0
    30f0: b3 02 80 12  	mov	w19, #-22
    30f4: 00 00 00 94  	bl	0x30f4 <bpf_object__read_kallsyms_file+0x150>
    30f8: e0 03 16 aa  	mov	x0, x22
    30fc: 00 00 00 94  	bl	0x30fc <bpf_object__read_kallsyms_file+0x158>
    3100: f7 63 43 a9  	ldp	x23, x24, [sp, #48]
    3104: f9 6b 44 a9  	ldp	x25, x26, [sp, #64]
    3108: fb 73 45 a9  	ldp	x27, x28, [sp, #80]
    310c: 00 00 00 90  	adrp	x0, 0x3000 <bpf_object__read_kallsyms_file+0x168>
    3110: 00 00 40 f9  	ldr	x0, [x0]
    3114: e2 37 41 f9  	ldr	x2, [sp, #616]
    3118: 01 00 40 f9  	ldr	x1, [x0]
    311c: 42 00 01 eb  	subs	x2, x2, x1
    3120: 01 00 80 d2  	mov	x1, #0
    3124: e1 03 00 54  	b.ne	0x31a0 <bpf_object__read_kallsyms_file+0x1fc>
    3128: e0 03 13 2a  	mov	w0, w19
    312c: fd 7b 40 a9  	ldp	x29, x30, [sp]
    3130: f3 53 41 a9  	ldp	x19, x20, [sp, #16]
    3134: f5 5b 42 a9  	ldp	x21, x22, [sp, #32]
    3138: ff c3 09 91  	add	sp, sp, #624
    313c: c0 03 5f d6  	ret
    3140: 80 13 40 f9  	ldr	x0, [x28, #32]
    3144: 1f 00 03 eb  	cmp	x0, x3
    3148: 80 f6 ff 54  	b.eq	0x3018 <bpf_object__read_kallsyms_file+0x74>
    314c: e4 03 03 aa  	mov	x4, x3
    3150: e2 03 14 aa  	mov	x2, x20
    3154: e3 03 00 aa  	mov	x3, x0
    3158: 01 00 00 90  	adrp	x1, 0x3000 <bpf_object__read_kallsyms_file+0x1b4>
    315c: 00 00 80 52  	mov	w0, #0
    3160: 21 00 00 91  	add	x1, x1, #0
    3164: b3 02 80 12  	mov	w19, #-22
    3168: 00 00 00 94  	bl	0x3168 <bpf_object__read_kallsyms_file+0x1c4>
    316c: e3 ff ff 17  	b	0x30f8 <bpf_object__read_kallsyms_file+0x154>
    3170: 13 00 80 52  	mov	w19, #0
    3174: e1 ff ff 17  	b	0x30f8 <bpf_object__read_kallsyms_file+0x154>
    3178: 00 00 00 94  	bl	0x3178 <bpf_object__read_kallsyms_file+0x1d4>
    317c: e2 03 00 aa  	mov	x2, x0
    3180: 01 00 00 90  	adrp	x1, 0x3000 <bpf_object__read_kallsyms_file+0x1dc>
    3184: 00 00 80 52  	mov	w0, #0
    3188: 21 00 00 91  	add	x1, x1, #0
    318c: 53 00 40 b9  	ldr	w19, [x2]
    3190: f3 03 13 4b  	neg	w19, w19
    3194: e2 03 13 2a  	mov	w2, w19
    3198: 00 00 00 94  	bl	0x3198 <bpf_object__read_kallsyms_file+0x1f4>
    319c: dc ff ff 17  	b	0x310c <bpf_object__read_kallsyms_file+0x168>
    31a0: f7 63 03 a9  	stp	x23, x24, [sp, #48]
    31a4: f9 6b 04 a9  	stp	x25, x26, [sp, #64]
    31a8: fb 73 05 a9  	stp	x27, x28, [sp, #80]
    31ac: 00 00 00 94  	bl	0x31ac <bpf_object__read_kallsyms_file+0x208>

00000000000031b0 <bpf_object__reloc_code>:
    31b0: fd 7b ba a9  	stp	x29, x30, [sp, #-96]!
    31b4: fd 03 00 91  	mov	x29, sp
    31b8: f3 53 01 a9  	stp	x19, x20, [sp, #16]
    31bc: f4 03 00 aa  	mov	x20, x0
    31c0: f3 03 02 aa  	mov	x19, x2
    31c4: 00 c4 40 f9  	ldr	x0, [x0, #392]
    31c8: f9 6b 04 a9  	stp	x25, x26, [sp, #64]
    31cc: f9 03 01 aa  	mov	x25, x1
    31d0: 00 07 00 b4  	cbz	x0, 0x32b0 <bpf_object__reloc_code+0x100>
    31d4: 80 52 40 f9  	ldr	x0, [x20, #160]
    31d8: 20 06 00 b4  	cbz	x0, 0x329c <bpf_object__reloc_code+0xec>
    31dc: 3f 03 13 eb  	cmp	x25, x19
    31e0: 60 23 00 54  	b.eq	0x364c <bpf_object__reloc_code+0x49c>
    31e4: 20 5b 40 f9  	ldr	x0, [x25, #176]
    31e8: c0 02 00 b4  	cbz	x0, 0x3240 <bpf_object__reloc_code+0x90>
    31ec: 82 c6 40 f9  	ldr	x2, [x20, #392]
    31f0: 25 e3 02 91  	add	x5, x25, #184
    31f4: 24 f3 02 91  	add	x4, x25, #188
    31f8: 23 c3 02 91  	add	x3, x25, #176
    31fc: e1 03 13 aa  	mov	x1, x19
    3200: e0 03 14 aa  	mov	x0, x20
    3204: 42 20 00 91  	add	x2, x2, #8
    3208: 36 f5 ff 97  	bl	0x6e0 <adjust_prog_btf_ext_info>
    320c: fa 03 00 2a  	mov	w26, w0
    3210: 80 01 00 34  	cbz	w0, 0x3240 <bpf_object__reloc_code+0x90>
    3214: 5f 0b 00 31  	cmn	w26, #2
    3218: e1 1e 00 54  	b.ne	0x35f4 <bpf_object__reloc_code+0x444>
    321c: 20 5b 40 f9  	ldr	x0, [x25, #176]
    3220: 62 1a 40 f9  	ldr	x2, [x19, #48]
    3224: 60 26 00 b5  	cbnz	x0, 0x36f0 <bpf_object__reloc_code+0x540>
    3228: 01 00 00 90  	adrp	x1, 0x3000 <bpf_object__reloc_code+0x78>
    322c: 00 00 80 52  	mov	w0, #0
    3230: 21 00 00 91  	add	x1, x1, #0
    3234: 00 00 00 94  	bl	0x3234 <bpf_object__reloc_code+0x84>
    3238: 3f 03 13 eb  	cmp	x25, x19
    323c: 60 00 00 54  	b.eq	0x3248 <bpf_object__reloc_code+0x98>
    3240: 20 63 40 f9  	ldr	x0, [x25, #192]
    3244: 60 03 00 b4  	cbz	x0, 0x32b0 <bpf_object__reloc_code+0x100>
    3248: 82 c6 40 f9  	ldr	x2, [x20, #392]
    324c: 25 23 03 91  	add	x5, x25, #200
    3250: 24 33 03 91  	add	x4, x25, #204
    3254: 23 03 03 91  	add	x3, x25, #192
    3258: e1 03 13 aa  	mov	x1, x19
    325c: e0 03 14 aa  	mov	x0, x20
    3260: 42 60 00 91  	add	x2, x2, #24
    3264: 1f f5 ff 97  	bl	0x6e0 <adjust_prog_btf_ext_info>
    3268: fa 03 00 2a  	mov	w26, w0
    326c: 20 02 00 34  	cbz	w0, 0x32b0 <bpf_object__reloc_code+0x100>
    3270: 62 1a 40 f9  	ldr	x2, [x19, #48]
    3274: 1f 08 00 31  	cmn	w0, #2
    3278: c1 1c 00 54  	b.ne	0x3610 <bpf_object__reloc_code+0x460>
    327c: 20 63 40 f9  	ldr	x0, [x25, #192]
    3280: e0 22 00 b5  	cbnz	x0, 0x36dc <bpf_object__reloc_code+0x52c>
    3284: 01 00 00 90  	adrp	x1, 0x3000 <bpf_object__reloc_code+0xd4>
    3288: 00 00 80 52  	mov	w0, #0
    328c: 21 00 00 91  	add	x1, x1, #0
    3290: f7 63 03 a9  	stp	x23, x24, [sp, #48]
    3294: 00 00 00 94  	bl	0x3294 <bpf_object__reloc_code+0xe4>
    3298: 07 00 00 14  	b	0x32b4 <bpf_object__reloc_code+0x104>
    329c: 60 00 80 52  	mov	w0, #3
    32a0: 58 f9 ff 97  	bl	0x1800 <kernel_supports.part.0>
    32a4: 1f 1c 00 72  	tst	w0, #0xff
    32a8: a1 f9 ff 54  	b.ne	0x31dc <bpf_object__reloc_code+0x2c>
    32ac: 1f 20 03 d5  	nop
    32b0: f7 63 03 a9  	stp	x23, x24, [sp, #48]
    32b4: 17 00 80 d2  	mov	x23, #0
    32b8: 68 12 40 f9  	ldr	x8, [x19, #32]
    32bc: a8 12 00 b4  	cbz	x8, 0x3510 <bpf_object__reloc_code+0x360>
    32c0: f5 5b 02 a9  	stp	x21, x22, [sp, #32]
    32c4: 15 00 00 90  	adrp	x21, 0x3000 <bpf_object__reloc_code+0x114>
    32c8: 16 00 00 90  	adrp	x22, 0x3000 <bpf_object__reloc_code+0x118>
    32cc: b5 02 00 91  	add	x21, x21, #0
    32d0: d6 02 00 91  	add	x22, x22, #0
    32d4: fb 2b 00 f9  	str	x27, [sp, #80]
    32d8: 0b 00 00 14  	b	0x3304 <bpf_object__reloc_code+0x154>
    32dc: 3f 60 00 71  	cmp	w1, #24
    32e0: c1 00 00 54  	b.ne	0x32f8 <bpf_object__reloc_code+0x148>
    32e4: 40 05 40 39  	ldrb	w0, [x10, #1]
    32e8: 00 0c 1c 12  	and	w0, w0, #0xf0
    32ec: 1f 00 01 71  	cmp	w0, #64
    32f0: 60 02 00 54  	b.eq	0x333c <bpf_object__reloc_code+0x18c>
    32f4: 1f 20 03 d5  	nop
    32f8: f7 06 00 91  	add	x23, x23, #1
    32fc: 1f 01 17 eb  	cmp	x8, x23
    3300: 49 10 00 54  	b.ls	0x3508 <bpf_object__reloc_code+0x358>
    3304: 69 16 40 f9  	ldr	x9, [x19, #40]
    3308: 2b 23 40 f9  	ldr	x11, [x25, #64]
    330c: 20 01 17 8b  	add	x0, x9, x23
    3310: 00 f0 7d d3  	lsl	x0, x0, #3
    3314: 6a 01 00 8b  	add	x10, x11, x0
    3318: 61 69 60 38  	ldrb	w1, [x11, x0]
    331c: 22 78 1c 12  	and	w2, w1, #0xfffffff7
    3320: 5f 14 02 71  	cmp	w2, #133
    3324: c1 fd ff 54  	b.ne	0x32dc <bpf_object__reloc_code+0x12c>
    3328: 81 fe 1f 37  	tbnz	w1, #3, 0x32f8 <bpf_object__reloc_code+0x148>
    332c: 60 69 60 b8  	ldr	w0, [x11, x0]
    3330: 00 5c 18 12  	and	w0, w0, #0xffffff00
    3334: 1f 04 40 71  	cmp	w0, #1, lsl #12         // =4096
    3338: 01 fe ff 54  	b.ne	0x32f8 <bpf_object__reloc_code+0x148>
    333c: 65 5a 80 b9  	ldrsw	x5, [x19, #88]
    3340: 04 00 80 d2  	mov	x4, #0
    3344: 60 2a 40 f9  	ldr	x0, [x19, #80]
    3348: a3 00 04 8b  	add	x3, x5, x4
    334c: bf 00 04 eb  	cmp	x5, x4
    3350: 69 01 00 54  	b.ls	0x337c <bpf_object__reloc_code+0x1cc>
    3354: 63 fc 41 d3  	lsr	x3, x3, #1
    3358: 06 10 03 8b  	add	x6, x0, x3, lsl #4
    335c: c7 04 80 b9  	ldrsw	x7, [x6, #4]
    3360: ff 02 07 eb  	cmp	x23, x7
    3364: 80 0e 00 54  	b.eq	0x3534 <bpf_object__reloc_code+0x384>
    3368: 22 0e 00 54  	b.hs	0x352c <bpf_object__reloc_code+0x37c>
    336c: e5 03 03 aa  	mov	x5, x3
    3370: a3 00 04 8b  	add	x3, x5, x4
    3374: bf 00 04 eb  	cmp	x5, x4
    3378: e8 fe ff 54  	b.hi	0x3354 <bpf_object__reloc_code+0x1a4>
    337c: 3f 60 00 71  	cmp	w1, #24
    3380: 00 10 00 54  	b.eq	0x3580 <bpf_object__reloc_code+0x3d0>
    3384: 62 0e 40 f9  	ldr	x2, [x19, #24]
    3388: 40 05 80 b9  	ldrsw	x0, [x10, #4]
    338c: 42 04 00 91  	add	x2, x2, #1
    3390: 00 00 17 8b  	add	x0, x0, x23
    3394: 42 00 00 8b  	add	x2, x2, x0
    3398: 81 5a 81 b9  	ldrsw	x1, [x20, #344]
    339c: e0 03 14 aa  	mov	x0, x20
    33a0: 65 f3 ff 97  	bl	0x134 <find_prog_by_sec_insn>
    33a4: f8 03 00 aa  	mov	x24, x0
    33a8: 80 16 00 b4  	cbz	x0, 0x3678 <bpf_object__reloc_code+0x4c8>
    33ac: 06 14 40 f9  	ldr	x6, [x0, #40]
    33b0: 06 09 00 b5  	cbnz	x6, 0x34d0 <bpf_object__reloc_code+0x320>
    33b4: 00 24 40 f9  	ldr	x0, [x0, #72]
    33b8: 3a 27 40 f9  	ldr	x26, [x25, #72]
    33bc: 1a 17 00 f9  	str	x26, [x24, #40]
    33c0: 5a 03 00 8b  	add	x26, x26, x0
    33c4: 41 f3 7d d3  	lsl	x1, x26, #3
    33c8: ff f7 5a eb  	cmp	xzr, x26, lsr #61
    33cc: 81 0f 00 54  	b.ne	0x35bc <bpf_object__reloc_code+0x40c>
    33d0: e0 03 0b aa  	mov	x0, x11
    33d4: 00 00 00 94  	bl	0x33d4 <bpf_object__reloc_code+0x224>
    33d8: 20 0f 00 b4  	cbz	x0, 0x35bc <bpf_object__reloc_code+0x40c>
    33dc: 03 17 40 f9  	ldr	x3, [x24, #40]
    33e0: 20 6b 04 a9  	stp	x0, x26, [x25, #64]
    33e4: 01 0b 44 a9  	ldp	x1, x2, [x24, #64]
    33e8: 00 0c 03 8b  	add	x0, x0, x3, lsl #3
    33ec: 42 f0 7d d3  	lsl	x2, x2, #3
    33f0: 00 00 00 94  	bl	0x33f0 <bpf_object__reloc_code+0x240>
    33f4: 04 1b 40 f9  	ldr	x4, [x24, #48]
    33f8: 40 00 80 52  	mov	w0, #2
    33fc: 22 1b 40 f9  	ldr	x2, [x25, #48]
    3400: e1 03 16 aa  	mov	x1, x22
    3404: 03 27 40 f9  	ldr	x3, [x24, #72]
    3408: 00 00 00 94  	bl	0x3408 <bpf_object__reloc_code+0x258>
    340c: 3a 5b 40 b9  	ldr	w26, [x25, #88]
    3410: 00 5b 40 b9  	ldr	w0, [x24, #88]
    3414: 5a 03 00 0b  	add	w26, w26, w0
    3418: 3f 03 18 eb  	cmp	x25, x24
    341c: 40 04 00 54  	b.eq	0x34a4 <bpf_object__reloc_code+0x2f4>
    3420: 42 7f 40 93  	sxtw	x2, w26
    3424: 41 7f 7c 93  	sbfiz	x1, x26, #4, #32
    3428: 20 2b 40 f9  	ldr	x0, [x25, #80]
    342c: ff f3 42 eb  	cmp	xzr, x2, lsr #60
    3430: c1 0f 00 54  	b.ne	0x3628 <bpf_object__reloc_code+0x478>
    3434: 00 00 00 94  	bl	0x3434 <bpf_object__reloc_code+0x284>
    3438: fb 03 00 aa  	mov	x27, x0
    343c: 60 0f 00 b4  	cbz	x0, 0x3628 <bpf_object__reloc_code+0x478>
    3440: 01 2b 40 f9  	ldr	x1, [x24, #80]
    3444: 02 5b 80 b9  	ldrsw	x2, [x24, #88]
    3448: 20 5b 80 b9  	ldrsw	x0, [x25, #88]
    344c: 42 ec 7c d3  	lsl	x2, x2, #4
    3450: 60 13 00 8b  	add	x0, x27, x0, lsl #4
    3454: 00 00 00 94  	bl	0x3454 <bpf_object__reloc_code+0x2a4>
    3458: 21 5b 40 b9  	ldr	w1, [x25, #88]
    345c: 5f 03 01 6b  	cmp	w26, w1
    3460: ed 01 00 54  	b.le	0x349c <bpf_object__reloc_code+0x2ec>
    3464: 40 03 01 4b  	sub	w0, w26, w1
    3468: 62 d3 21 8b  	add	x2, x27, w1, sxtw #4
    346c: 00 04 00 51  	sub	w0, w0, #1
    3470: 04 2b 40 b9  	ldr	w4, [x24, #40]
    3474: 01 c0 21 8b  	add	x1, x0, w1, sxtw
    3478: 42 10 00 91  	add	x2, x2, #4
    347c: 61 13 01 8b  	add	x1, x27, x1, lsl #4
    3480: 21 50 00 91  	add	x1, x1, #20
    3484: 1f 20 03 d5  	nop
    3488: 43 00 40 b9  	ldr	w3, [x2]
    348c: 63 00 04 0b  	add	w3, w3, w4
    3490: 43 04 01 b8  	str	w3, [x2], #16
    3494: 3f 00 02 eb  	cmp	x1, x2
    3498: 81 ff ff 54  	b.ne	0x3488 <bpf_object__reloc_code+0x2d8>
    349c: 3b 2b 00 f9  	str	x27, [x25, #80]
    34a0: 3a 5b 00 b9  	str	w26, [x25, #88]
    34a4: e2 03 18 aa  	mov	x2, x24
    34a8: e1 03 19 aa  	mov	x1, x25
    34ac: e0 03 14 aa  	mov	x0, x20
    34b0: 40 ff ff 97  	bl	0x31b0 <bpf_object__reloc_code>
    34b4: fa 03 00 2a  	mov	w26, w0
    34b8: a0 10 00 35  	cbnz	w0, 0x36cc <bpf_object__reloc_code+0x51c>
    34bc: 69 16 40 f9  	ldr	x9, [x19, #40]
    34c0: 20 23 40 f9  	ldr	x0, [x25, #64]
    34c4: ea 02 09 8b  	add	x10, x23, x9
    34c8: 06 17 40 f9  	ldr	x6, [x24, #40]
    34cc: 0a 0c 0a 8b  	add	x10, x0, x10, lsl #3
    34d0: c4 00 17 4b  	sub	w4, w6, w23
    34d4: e3 03 17 aa  	mov	x3, x23
    34d8: 62 1a 40 f9  	ldr	x2, [x19, #48]
    34dc: 84 00 09 4b  	sub	w4, w4, w9
    34e0: 05 1b 40 f9  	ldr	x5, [x24, #48]
    34e4: 84 04 00 51  	sub	w4, w4, #1
    34e8: 44 05 00 b9  	str	w4, [x10, #4]
    34ec: e1 03 15 aa  	mov	x1, x21
    34f0: 40 00 80 52  	mov	w0, #2
    34f4: f7 06 00 91  	add	x23, x23, #1
    34f8: 00 00 00 94  	bl	0x34f8 <bpf_object__reloc_code+0x348>
    34fc: 68 12 40 f9  	ldr	x8, [x19, #32]
    3500: 1f 01 17 eb  	cmp	x8, x23
    3504: 08 f0 ff 54  	b.hi	0x3304 <bpf_object__reloc_code+0x154>
    3508: f5 5b 42 a9  	ldp	x21, x22, [sp, #32]
    350c: fb 2b 40 f9  	ldr	x27, [sp, #80]
    3510: 1a 00 80 52  	mov	w26, #0
    3514: e0 03 1a 2a  	mov	w0, w26
    3518: f3 53 41 a9  	ldp	x19, x20, [sp, #16]
    351c: f7 63 43 a9  	ldp	x23, x24, [sp, #48]
    3520: f9 6b 44 a9  	ldp	x25, x26, [sp, #64]
    3524: fd 7b c6 a8  	ldp	x29, x30, [sp], #96
    3528: c0 03 5f d6  	ret
    352c: 64 04 00 91  	add	x4, x3, #1
    3530: 86 ff ff 17  	b	0x3348 <bpf_object__reloc_code+0x198>
    3534: c4 00 40 b9  	ldr	w4, [x6]
    3538: 9f 10 00 71  	cmp	w4, #4
    353c: e0 ed ff 54  	b.eq	0x32f8 <bpf_object__reloc_code+0x148>
    3540: 80 78 1d 12  	and	w0, w4, #0xfffffffb
    3544: 1f 04 00 71  	cmp	w0, #1
    3548: c1 0a 00 54  	b.ne	0x36a0 <bpf_object__reloc_code+0x4f0>
    354c: c1 0c 40 b9  	ldr	w1, [x6, #12]
    3550: 40 05 40 b9  	ldr	w0, [x10, #4]
    3554: 9f 04 00 71  	cmp	w4, #1
    3558: a0 00 00 54  	b.eq	0x356c <bpf_object__reloc_code+0x3bc>
    355c: 02 00 01 0b  	add	w2, w0, w1
    3560: 42 7c 40 93  	sxtw	x2, w2
    3564: 42 fc 43 d3  	lsr	x2, x2, #3
    3568: 8c ff ff 17  	b	0x3398 <bpf_object__reloc_code+0x1e8>
    356c: 02 7c 40 93  	sxtw	x2, w0
    3570: 21 7c 40 93  	sxtw	x1, w1
    3574: 42 04 00 91  	add	x2, x2, #1
    3578: 42 0c 41 8b  	add	x2, x2, x1, lsr #3
    357c: 87 ff ff 17  	b	0x3398 <bpf_object__reloc_code+0x1e8>
    3580: 40 05 40 39  	ldrb	w0, [x10, #1]
    3584: 00 0c 1c 12  	and	w0, w0, #0xf0
    3588: 1f 00 01 71  	cmp	w0, #64
    358c: c1 ef ff 54  	b.ne	0x3384 <bpf_object__reloc_code+0x1d4>
    3590: 62 1a 40 f9  	ldr	x2, [x19, #48]
    3594: e3 03 17 aa  	mov	x3, x23
    3598: 01 00 00 90  	adrp	x1, 0x3000 <bpf_object__reloc_code+0x3e8>
    359c: 00 00 80 52  	mov	w0, #0
    35a0: 21 00 00 91  	add	x1, x1, #0
    35a4: 9a f4 81 12  	mov	w26, #-4005
    35a8: 00 00 00 94  	bl	0x35a8 <bpf_object__reloc_code+0x3f8>
    35ac: f5 5b 42 a9  	ldp	x21, x22, [sp, #32]
    35b0: f7 63 43 a9  	ldp	x23, x24, [sp, #48]
    35b4: fb 2b 40 f9  	ldr	x27, [sp, #80]
    35b8: 0a 00 00 14  	b	0x35e0 <bpf_object__reloc_code+0x430>
    35bc: 22 1b 40 f9  	ldr	x2, [x25, #48]
    35c0: 01 00 00 90  	adrp	x1, 0x3000 <bpf_object__reloc_code+0x410>
    35c4: 00 00 80 52  	mov	w0, #0
    35c8: 21 00 00 91  	add	x1, x1, #0
    35cc: 7a 01 80 12  	mov	w26, #-12
    35d0: 00 00 00 94  	bl	0x35d0 <bpf_object__reloc_code+0x420>
    35d4: f5 5b 42 a9  	ldp	x21, x22, [sp, #32]
    35d8: f7 63 43 a9  	ldp	x23, x24, [sp, #48]
    35dc: fb 2b 40 f9  	ldr	x27, [sp, #80]
    35e0: e0 03 1a 2a  	mov	w0, w26
    35e4: f3 53 41 a9  	ldp	x19, x20, [sp, #16]
    35e8: f9 6b 44 a9  	ldp	x25, x26, [sp, #64]
    35ec: fd 7b c6 a8  	ldp	x29, x30, [sp], #96
    35f0: c0 03 5f d6  	ret
    35f4: 62 1a 40 f9  	ldr	x2, [x19, #48]
    35f8: e3 03 1a 2a  	mov	w3, w26
    35fc: 01 00 00 90  	adrp	x1, 0x3000 <bpf_object__reloc_code+0x44c>
    3600: 00 00 80 52  	mov	w0, #0
    3604: 21 00 00 91  	add	x1, x1, #0
    3608: 00 00 00 94  	bl	0x3608 <bpf_object__reloc_code+0x458>
    360c: f5 ff ff 17  	b	0x35e0 <bpf_object__reloc_code+0x430>
    3610: e3 03 00 2a  	mov	w3, w0
    3614: 01 00 00 90  	adrp	x1, 0x3000 <bpf_object__reloc_code+0x464>
    3618: 00 00 80 52  	mov	w0, #0
    361c: 21 00 00 91  	add	x1, x1, #0
    3620: 00 00 00 94  	bl	0x3620 <bpf_object__reloc_code+0x470>
    3624: ef ff ff 17  	b	0x35e0 <bpf_object__reloc_code+0x430>
    3628: 7a 01 80 12  	mov	w26, #-12
    362c: e0 03 1a 2a  	mov	w0, w26
    3630: f3 53 41 a9  	ldp	x19, x20, [sp, #16]
    3634: f5 5b 42 a9  	ldp	x21, x22, [sp, #32]
    3638: f7 63 43 a9  	ldp	x23, x24, [sp, #48]
    363c: f9 6b 44 a9  	ldp	x25, x26, [sp, #64]
    3640: fb 2b 40 f9  	ldr	x27, [sp, #80]
    3644: fd 7b c6 a8  	ldp	x29, x30, [sp], #96
    3648: c0 03 5f d6  	ret
    364c: 82 c6 40 f9  	ldr	x2, [x20, #392]
    3650: 25 e3 02 91  	add	x5, x25, #184
    3654: 24 f3 02 91  	add	x4, x25, #188
    3658: 23 c3 02 91  	add	x3, x25, #176
    365c: e1 03 19 aa  	mov	x1, x25
    3660: e0 03 14 aa  	mov	x0, x20
    3664: 42 20 00 91  	add	x2, x2, #8
    3668: 1e f4 ff 97  	bl	0x6e0 <adjust_prog_btf_ext_info>
    366c: fa 03 00 2a  	mov	w26, w0
    3670: c0 de ff 34  	cbz	w0, 0x3248 <bpf_object__reloc_code+0x98>
    3674: e8 fe ff 17  	b	0x3214 <bpf_object__reloc_code+0x64>
    3678: 62 1a 40 f9  	ldr	x2, [x19, #48]
    367c: 01 00 00 90  	adrp	x1, 0x3000 <bpf_object__reloc_code+0x4cc>
    3680: 00 00 80 52  	mov	w0, #0
    3684: 21 00 00 91  	add	x1, x1, #0
    3688: 9a f4 81 12  	mov	w26, #-4005
    368c: 00 00 00 94  	bl	0x368c <bpf_object__reloc_code+0x4dc>
    3690: f5 5b 42 a9  	ldp	x21, x22, [sp, #32]
    3694: f7 63 43 a9  	ldp	x23, x24, [sp, #48]
    3698: fb 2b 40 f9  	ldr	x27, [sp, #80]
    369c: d1 ff ff 17  	b	0x35e0 <bpf_object__reloc_code+0x430>
    36a0: 62 1a 40 f9  	ldr	x2, [x19, #48]
    36a4: e3 03 17 aa  	mov	x3, x23
    36a8: 01 00 00 90  	adrp	x1, 0x3000 <bpf_object__reloc_code+0x4f8>
    36ac: 00 00 80 52  	mov	w0, #0
    36b0: 21 00 00 91  	add	x1, x1, #0
    36b4: 9a f4 81 12  	mov	w26, #-4005
    36b8: 00 00 00 94  	bl	0x36b8 <bpf_object__reloc_code+0x508>
    36bc: f5 5b 42 a9  	ldp	x21, x22, [sp, #32]
    36c0: f7 63 43 a9  	ldp	x23, x24, [sp, #48]
    36c4: fb 2b 40 f9  	ldr	x27, [sp, #80]
    36c8: c6 ff ff 17  	b	0x35e0 <bpf_object__reloc_code+0x430>
    36cc: f5 5b 42 a9  	ldp	x21, x22, [sp, #32]
    36d0: f7 63 43 a9  	ldp	x23, x24, [sp, #48]
    36d4: fb 2b 40 f9  	ldr	x27, [sp, #80]
    36d8: c2 ff ff 17  	b	0x35e0 <bpf_object__reloc_code+0x430>
    36dc: 01 00 00 90  	adrp	x1, 0x3000 <bpf_object__reloc_code+0x52c>
    36e0: 00 00 80 52  	mov	w0, #0
    36e4: 21 00 00 91  	add	x1, x1, #0
    36e8: 00 00 00 94  	bl	0x36e8 <bpf_object__reloc_code+0x538>
    36ec: bd ff ff 17  	b	0x35e0 <bpf_object__reloc_code+0x430>
    36f0: 01 00 00 90  	adrp	x1, 0x3000 <bpf_object__reloc_code+0x540>
    36f4: 00 00 80 52  	mov	w0, #0
    36f8: 21 00 00 91  	add	x1, x1, #0
    36fc: 00 00 00 94  	bl	0x36fc <bpf_object__reloc_code+0x54c>
    3700: b8 ff ff 17  	b	0x35e0 <bpf_object__reloc_code+0x430>

0000000000003704 <make_parent_dir>:
    3704: fd 7b b4 a9  	stp	x29, x30, [sp, #-192]!
    3708: 01 00 00 90  	adrp	x1, 0x3000 <make_parent_dir+0x4>
    370c: fd 03 00 91  	mov	x29, sp
    3710: 21 00 40 f9  	ldr	x1, [x1]
    3714: f3 53 01 a9  	stp	x19, x20, [sp, #16]
    3718: f5 5b 02 a9  	stp	x21, x22, [sp, #32]
    371c: f5 03 00 aa  	mov	x21, x0
    3720: 22 00 40 f9  	ldr	x2, [x1]
    3724: e2 5f 00 f9  	str	x2, [sp, #184]
    3728: 02 00 80 d2  	mov	x2, #0
    372c: 00 00 00 94  	bl	0x372c <make_parent_dir+0x28>
    3730: a0 05 00 b4  	cbz	x0, 0x37e4 <make_parent_dir+0xe0>
    3734: f4 03 00 aa  	mov	x20, x0
    3738: 00 00 00 94  	bl	0x3738 <make_parent_dir+0x34>
    373c: 01 38 80 52  	mov	w1, #448
    3740: 00 00 00 94  	bl	0x3740 <make_parent_dir+0x3c>
    3744: f3 03 00 2a  	mov	w19, w0
    3748: 80 02 00 34  	cbz	w0, 0x3798 <make_parent_dir+0x94>
    374c: 00 00 00 94  	bl	0x374c <make_parent_dir+0x48>
    3750: 16 00 40 b9  	ldr	w22, [x0]
    3754: e0 03 14 aa  	mov	x0, x20
    3758: df 46 00 71  	cmp	w22, #17
    375c: a0 03 00 54  	b.eq	0x37d0 <make_parent_dir+0xcc>
    3760: f3 03 16 4b  	neg	w19, w22
    3764: 00 00 00 94  	bl	0x3764 <make_parent_dir+0x60>
    3768: b6 03 00 34  	cbz	w22, 0x37dc <make_parent_dir+0xd8>
    376c: e1 e3 00 91  	add	x1, sp, #56
    3770: e0 03 16 2a  	mov	w0, w22
    3774: 02 10 80 52  	mov	w2, #128
    3778: 00 00 00 94  	bl	0x3778 <make_parent_dir+0x74>
    377c: e2 03 15 aa  	mov	x2, x21
    3780: e3 03 00 aa  	mov	x3, x0
    3784: 01 00 00 90  	adrp	x1, 0x3000 <make_parent_dir+0x80>
    3788: 00 00 80 52  	mov	w0, #0
    378c: 21 00 00 91  	add	x1, x1, #0
    3790: 00 00 00 94  	bl	0x3790 <make_parent_dir+0x8c>
    3794: 03 00 00 14  	b	0x37a0 <make_parent_dir+0x9c>
    3798: e0 03 14 aa  	mov	x0, x20
    379c: 00 00 00 94  	bl	0x379c <make_parent_dir+0x98>
    37a0: 00 00 00 90  	adrp	x0, 0x3000 <make_parent_dir+0x9c>
    37a4: 00 00 40 f9  	ldr	x0, [x0]
    37a8: e2 5f 40 f9  	ldr	x2, [sp, #184]
    37ac: 01 00 40 f9  	ldr	x1, [x0]
    37b0: 42 00 01 eb  	subs	x2, x2, x1
    37b4: 01 00 80 d2  	mov	x1, #0
    37b8: a1 01 00 54  	b.ne	0x37ec <make_parent_dir+0xe8>
    37bc: e0 03 13 2a  	mov	w0, w19
    37c0: f3 53 41 a9  	ldp	x19, x20, [sp, #16]
    37c4: f5 5b 42 a9  	ldp	x21, x22, [sp, #32]
    37c8: fd 7b cc a8  	ldp	x29, x30, [sp], #192
    37cc: c0 03 5f d6  	ret
    37d0: 13 00 80 52  	mov	w19, #0
    37d4: 00 00 00 94  	bl	0x37d4 <make_parent_dir+0xd0>
    37d8: f2 ff ff 17  	b	0x37a0 <make_parent_dir+0x9c>
    37dc: 13 00 80 52  	mov	w19, #0
    37e0: f0 ff ff 17  	b	0x37a0 <make_parent_dir+0x9c>
    37e4: 73 01 80 12  	mov	w19, #-12
    37e8: ee ff ff 17  	b	0x37a0 <make_parent_dir+0x9c>
    37ec: 00 00 00 94  	bl	0x37ec <make_parent_dir+0xe8>

00000000000037f0 <check_path>:
    37f0: fd 7b ad a9  	stp	x29, x30, [sp, #-304]!
    37f4: 01 00 00 90  	adrp	x1, 0x3000 <check_path+0x4>
    37f8: fd 03 00 91  	mov	x29, sp
    37fc: 21 00 40 f9  	ldr	x1, [x1]
    3800: f3 53 01 a9  	stp	x19, x20, [sp, #16]
    3804: 22 00 40 f9  	ldr	x2, [x1]
    3808: e2 97 00 f9  	str	x2, [sp, #296]
    380c: 02 00 80 d2  	mov	x2, #0
    3810: 20 07 00 b4  	cbz	x0, 0x38f4 <check_path+0x104>
    3814: f4 03 00 aa  	mov	x20, x0
    3818: 00 00 00 94  	bl	0x3818 <check_path+0x28>
    381c: f3 03 00 aa  	mov	x19, x0
    3820: e0 06 00 b4  	cbz	x0, 0x38fc <check_path+0x10c>
    3824: f5 5b 02 a9  	stp	x21, x22, [sp, #32]
    3828: 00 00 00 94  	bl	0x3828 <check_path+0x38>
    382c: e1 c3 00 91  	add	x1, sp, #48
    3830: f5 03 00 aa  	mov	x21, x0
    3834: 00 00 00 94  	bl	0x3834 <check_path+0x44>
    3838: a0 02 00 35  	cbnz	w0, 0x388c <check_path+0x9c>
    383c: e0 03 13 aa  	mov	x0, x19
    3840: 00 00 00 94  	bl	0x3840 <check_path+0x50>
    3844: e1 1b 40 f9  	ldr	x1, [sp, #48]
    3848: 20 42 89 d2  	mov	x0, #18961
    384c: c0 5f b9 f2  	movk	x0, #51966, lsl #16
    3850: 13 00 80 52  	mov	w19, #0
    3854: 3f 00 00 eb  	cmp	x1, x0
    3858: e1 03 00 54  	b.ne	0x38d4 <check_path+0xe4>
    385c: f5 5b 42 a9  	ldp	x21, x22, [sp, #32]
    3860: 00 00 00 90  	adrp	x0, 0x3000 <check_path+0x70>
    3864: 00 00 40 f9  	ldr	x0, [x0]
    3868: e2 97 40 f9  	ldr	x2, [sp, #296]
    386c: 01 00 40 f9  	ldr	x1, [x0]
    3870: 42 00 01 eb  	subs	x2, x2, x1
    3874: 01 00 80 d2  	mov	x1, #0
    3878: 61 04 00 54  	b.ne	0x3904 <check_path+0x114>
    387c: e0 03 13 2a  	mov	w0, w19
    3880: f3 53 41 a9  	ldp	x19, x20, [sp, #16]
    3884: fd 7b d3 a8  	ldp	x29, x30, [sp], #304
    3888: c0 03 5f d6  	ret
    388c: 00 00 00 94  	bl	0x388c <check_path+0x9c>
    3890: f6 03 00 aa  	mov	x22, x0
    3894: 00 00 40 b9  	ldr	w0, [x0]
    3898: e1 a3 02 91  	add	x1, sp, #168
    389c: 02 10 80 52  	mov	w2, #128
    38a0: 00 00 00 94  	bl	0x38a0 <check_path+0xb0>
    38a4: e3 03 00 aa  	mov	x3, x0
    38a8: e2 03 15 aa  	mov	x2, x21
    38ac: 00 00 80 52  	mov	w0, #0
    38b0: 01 00 00 90  	adrp	x1, 0x3000 <check_path+0xc0>
    38b4: 21 00 00 91  	add	x1, x1, #0
    38b8: 00 00 00 94  	bl	0x38b8 <check_path+0xc8>
    38bc: d5 02 40 b9  	ldr	w21, [x22]
    38c0: e0 03 13 aa  	mov	x0, x19
    38c4: f3 03 15 4b  	neg	w19, w21
    38c8: 00 00 00 94  	bl	0x38c8 <check_path+0xd8>
    38cc: 95 fc ff 35  	cbnz	w21, 0x385c <check_path+0x6c>
    38d0: dd ff ff 17  	b	0x3844 <check_path+0x54>
    38d4: e2 03 14 aa  	mov	x2, x20
    38d8: 01 00 00 90  	adrp	x1, 0x3000 <check_path+0xe8>
    38dc: 00 00 80 52  	mov	w0, #0
    38e0: 21 00 00 91  	add	x1, x1, #0
    38e4: b3 02 80 12  	mov	w19, #-22
    38e8: 00 00 00 94  	bl	0x38e8 <check_path+0xf8>
    38ec: f5 5b 42 a9  	ldp	x21, x22, [sp, #32]
    38f0: dc ff ff 17  	b	0x3860 <check_path+0x70>
    38f4: b3 02 80 12  	mov	w19, #-22
    38f8: da ff ff 17  	b	0x3860 <check_path+0x70>
    38fc: 73 01 80 12  	mov	w19, #-12
    3900: d8 ff ff 17  	b	0x3860 <check_path+0x70>
    3904: f5 5b 02 a9  	stp	x21, x22, [sp, #32]
    3908: 00 00 00 94  	bl	0x3908 <check_path+0x118>
    390c: 1f 20 03 d5  	nop

0000000000003910 <__bpf_map__iter>:
    3910: fd 7b bf a9  	stp	x29, x30, [sp, #-16]!
    3914: fd 03 00 91  	mov	x29, sp
    3918: 61 04 00 b4  	cbz	x1, 0x39a4 <__bpf_map__iter+0x94>
    391c: 23 34 40 f9  	ldr	x3, [x1, #104]
    3920: 23 04 00 b4  	cbz	x3, 0x39a4 <__bpf_map__iter+0x94>
    3924: 24 38 40 f9  	ldr	x4, [x1, #112]
    3928: 81 08 04 8b  	add	x1, x4, x4, lsl #2
    392c: 21 f4 7e d3  	lsl	x1, x1, #2
    3930: 21 00 04 cb  	sub	x1, x1, x4
    3934: 61 0c 01 8b  	add	x1, x3, x1, lsl #3
    3938: 3f 00 00 eb  	cmp	x1, x0
    393c: 62 80 40 fa  	ccmp	x3, x0, #2, hi
    3940: 48 02 00 54  	b.hi	0x3988 <__bpf_map__iter+0x78>
    3944: 01 00 03 cb  	sub	x1, x0, x3
    3948: 60 43 99 d2  	mov	x0, #51739
    394c: 60 0d a5 f2  	movk	x0, #10347, lsl #16
    3950: 42 7c 40 93  	sxtw	x2, w2
    3954: 21 fc 43 93  	asr	x1, x1, #3
    3958: e0 35 d4 f2  	movk	x0, #41391, lsl #32
    395c: 80 d7 f0 f2  	movk	x0, #34492, lsl #48
    3960: fd 7b c1 a8  	ldp	x29, x30, [sp], #16
    3964: 21 08 00 9b  	madd	x1, x1, x0, x2
    3968: 3f 00 00 f1  	cmp	x1, #0
    396c: 20 08 01 8b  	add	x0, x1, x1, lsl #2
    3970: 80 a0 41 fa  	ccmp	x4, x1, #0, ge
    3974: 00 f4 7e d3  	lsl	x0, x0, #2
    3978: 00 00 01 cb  	sub	x0, x0, x1
    397c: 60 0c 00 8b  	add	x0, x3, x0, lsl #3
    3980: 00 80 9f 9a  	csel	x0, x0, xzr, hi
    3984: c0 03 5f d6  	ret
    3988: 02 00 00 90  	adrp	x2, 0x3000 <__bpf_map__iter+0x78>
    398c: 42 00 00 91  	add	x2, x2, #0
    3990: 01 00 00 90  	adrp	x1, 0x3000 <__bpf_map__iter+0x80>
    3994: 42 80 04 91  	add	x2, x2, #288
    3998: 21 00 00 91  	add	x1, x1, #0
    399c: 00 00 80 52  	mov	w0, #0
    39a0: 00 00 00 94  	bl	0x39a0 <__bpf_map__iter+0x90>
    39a4: 00 00 00 94  	bl	0x39a4 <__bpf_map__iter+0x94>
    39a8: e1 03 00 aa  	mov	x1, x0
    39ac: c2 02 80 52  	mov	w2, #22
    39b0: 00 00 80 d2  	mov	x0, #0
    39b4: 22 00 00 b9  	str	w2, [x1]
    39b8: fd 7b c1 a8  	ldp	x29, x30, [sp], #16
    39bc: c0 03 5f d6  	ret

00000000000039c0 <parse_uint_from_file>:
    39c0: fd 7b b4 a9  	stp	x29, x30, [sp, #-192]!
    39c4: 03 00 00 90  	adrp	x3, 0x3000 <parse_uint_from_file+0x4>
    39c8: fd 03 00 91  	mov	x29, sp
    39cc: 63 00 40 f9  	ldr	x3, [x3]
    39d0: f3 53 01 a9  	stp	x19, x20, [sp, #16]
    39d4: f4 03 01 aa  	mov	x20, x1
    39d8: f5 13 00 f9  	str	x21, [sp, #32]
    39dc: 01 00 00 90  	adrp	x1, 0x3000 <parse_uint_from_file+0x1c>
    39e0: f5 03 00 aa  	mov	x21, x0
    39e4: 21 00 00 91  	add	x1, x1, #0
    39e8: 62 00 40 f9  	ldr	x2, [x3]
    39ec: e2 5f 00 f9  	str	x2, [sp, #184]
    39f0: 02 00 80 d2  	mov	x2, #0
    39f4: 00 00 00 94  	bl	0x39f4 <parse_uint_from_file+0x34>
    39f8: 20 05 00 b4  	cbz	x0, 0x3a9c <parse_uint_from_file+0xdc>
    39fc: f3 03 00 aa  	mov	x19, x0
    3a00: e1 03 14 aa  	mov	x1, x20
    3a04: e2 d3 00 91  	add	x2, sp, #52
    3a08: 00 00 00 94  	bl	0x3a08 <parse_uint_from_file+0x48>
    3a0c: 1f 04 00 71  	cmp	w0, #1
    3a10: e0 03 00 54  	b.eq	0x3a8c <parse_uint_from_file+0xcc>
    3a14: 94 00 80 12  	mov	w20, #-5
    3a18: 1f 04 00 31  	cmn	w0, #1
    3a1c: 80 00 00 54  	b.eq	0x3a2c <parse_uint_from_file+0x6c>
    3a20: 00 00 00 94  	bl	0x3a20 <parse_uint_from_file+0x60>
    3a24: 14 00 40 b9  	ldr	w20, [x0]
    3a28: f4 03 14 4b  	neg	w20, w20
    3a2c: e1 e3 00 91  	add	x1, sp, #56
    3a30: 02 10 80 52  	mov	w2, #128
    3a34: e0 03 14 2a  	mov	w0, w20
    3a38: 00 00 00 94  	bl	0x3a38 <parse_uint_from_file+0x78>
    3a3c: e2 03 15 aa  	mov	x2, x21
    3a40: e3 03 00 aa  	mov	x3, x0
    3a44: 01 00 00 90  	adrp	x1, 0x3000 <parse_uint_from_file+0x84>
    3a48: 21 00 00 91  	add	x1, x1, #0
    3a4c: 40 00 80 52  	mov	w0, #2
    3a50: 00 00 00 94  	bl	0x3a50 <parse_uint_from_file+0x90>
    3a54: e0 03 13 aa  	mov	x0, x19
    3a58: 00 00 00 94  	bl	0x3a58 <parse_uint_from_file+0x98>
    3a5c: 01 00 00 90  	adrp	x1, 0x3000 <parse_uint_from_file+0x9c>
    3a60: 21 00 40 f9  	ldr	x1, [x1]
    3a64: e0 5f 40 f9  	ldr	x0, [sp, #184]
    3a68: 22 00 40 f9  	ldr	x2, [x1]
    3a6c: 00 00 02 eb  	subs	x0, x0, x2
    3a70: 02 00 80 d2  	mov	x2, #0
    3a74: 01 03 00 54  	b.ne	0x3ad4 <parse_uint_from_file+0x114>
    3a78: e0 03 14 2a  	mov	w0, w20
    3a7c: f3 53 41 a9  	ldp	x19, x20, [sp, #16]
    3a80: f5 13 40 f9  	ldr	x21, [sp, #32]
    3a84: fd 7b cc a8  	ldp	x29, x30, [sp], #192
    3a88: c0 03 5f d6  	ret
    3a8c: e0 03 13 aa  	mov	x0, x19
    3a90: 00 00 00 94  	bl	0x3a90 <parse_uint_from_file+0xd0>
    3a94: f4 37 40 b9  	ldr	w20, [sp, #52]
    3a98: f1 ff ff 17  	b	0x3a5c <parse_uint_from_file+0x9c>
    3a9c: 00 00 00 94  	bl	0x3a9c <parse_uint_from_file+0xdc>
    3aa0: 14 00 40 b9  	ldr	w20, [x0]
    3aa4: e1 e3 00 91  	add	x1, sp, #56
    3aa8: 02 10 80 52  	mov	w2, #128
    3aac: f4 03 14 4b  	neg	w20, w20
    3ab0: e0 03 14 2a  	mov	w0, w20
    3ab4: 00 00 00 94  	bl	0x3ab4 <parse_uint_from_file+0xf4>
    3ab8: e2 03 15 aa  	mov	x2, x21
    3abc: e3 03 00 aa  	mov	x3, x0
    3ac0: 01 00 00 90  	adrp	x1, 0x3000 <parse_uint_from_file+0x100>
    3ac4: 40 00 80 52  	mov	w0, #2
    3ac8: 21 00 00 91  	add	x1, x1, #0
    3acc: 00 00 00 94  	bl	0x3acc <parse_uint_from_file+0x10c>
    3ad0: e3 ff ff 17  	b	0x3a5c <parse_uint_from_file+0x9c>
    3ad4: 00 00 00 94  	bl	0x3ad4 <parse_uint_from_file+0x114>
    3ad8: 1f 20 03 d5  	nop
    3adc: 1f 20 03 d5  	nop

0000000000003ae0 <perf_event_open_probe>:
    3ae0: fd 7b aa a9  	stp	x29, x30, [sp, #-352]!
    3ae4: 06 00 00 90  	adrp	x6, 0x3000 <perf_event_open_probe+0x4>
    3ae8: 00 04 00 4f  	movi	v0.4s, #0
    3aec: fd 03 00 91  	mov	x29, sp
    3af0: c6 00 40 f9  	ldr	x6, [x6]
    3af4: f3 53 01 a9  	stp	x19, x20, [sp, #16]
    3af8: f3 63 01 91  	add	x19, sp, #88
    3afc: f5 5b 02 a9  	stp	x21, x22, [sp, #32]
    3b00: f6 03 05 aa  	mov	x22, x5
    3b04: f9 6b 04 a9  	stp	x25, x26, [sp, #64]
    3b08: 19 1c 00 12  	and	w25, w0, #0xff
    3b0c: e0 7f 40 b2  	mov	x0, #4294967295
    3b10: c5 00 40 f9  	ldr	x5, [x6]
    3b14: e5 af 00 f9  	str	x5, [sp, #344]
    3b18: 05 00 80 d2  	mov	x5, #0
    3b1c: 60 02 00 ad  	stp	q0, q0, [x19]
    3b20: 60 02 01 ad  	stp	q0, q0, [x19, #32]
    3b24: 60 02 02 ad  	stp	q0, q0, [x19, #64]
    3b28: 60 02 03 ad  	stp	q0, q0, [x19, #96]
    3b2c: df 02 00 eb  	cmp	x22, x0
    3b30: e8 0f 00 54  	b.hi	0x3d2c <perf_event_open_probe+0x24c>
    3b34: f7 63 03 a9  	stp	x23, x24, [sp, #48]
    3b38: 3a 1c 00 12  	and	w26, w1, #0xff
    3b3c: f7 03 02 aa  	mov	x23, x2
    3b40: f8 03 03 aa  	mov	x24, x3
    3b44: f5 03 04 2a  	mov	w21, w4
    3b48: 01 00 00 90  	adrp	x1, 0x3000 <perf_event_open_probe+0x68>
    3b4c: f9 04 00 34  	cbz	w25, 0x3be8 <perf_event_open_probe+0x108>
    3b50: 21 00 00 91  	add	x1, x1, #0
    3b54: 00 00 00 90  	adrp	x0, 0x3000 <perf_event_open_probe+0x74>
    3b58: 00 00 00 91  	add	x0, x0, #0
    3b5c: 99 ff ff 97  	bl	0x39c0 <parse_uint_from_file>
    3b60: f4 03 00 2a  	mov	w20, w0
    3b64: a0 0b f8 37  	tbnz	w0, #31, 0x3cd8 <perf_event_open_probe+0x1f8>
    3b68: 7a 07 00 35  	cbnz	w26, 0x3c54 <perf_event_open_probe+0x174>
    3b6c: e6 33 40 f9  	ldr	x6, [sp, #96]
    3b70: bf 06 00 31  	cmn	w21, #1
    3b74: c6 80 16 aa  	orr	x6, x6, x22, lsl #32
    3b78: e3 03 9f 5a  	csetm	w3, ne
    3b7c: bf 02 00 71  	cmp	w21, #0
    3b80: e1 03 13 aa  	mov	x1, x19
    3b84: 04 00 80 12  	mov	w4, #-1
    3b88: 13 10 80 52  	mov	w19, #128
    3b8c: a2 a2 84 1a  	csel	w2, w21, w4, ge
    3b90: 05 01 80 d2  	mov	x5, #8
    3b94: 20 1e 80 d2  	mov	x0, #241
    3b98: f4 4f 0b 29  	stp	w20, w19, [sp, #88]
    3b9c: e6 33 00 f9  	str	x6, [sp, #96]
    3ba0: f7 63 09 a9  	stp	x23, x24, [sp, #144]
    3ba4: 00 00 00 94  	bl	0x3ba4 <perf_event_open_probe+0xc4>
    3ba8: f4 03 00 2a  	mov	w20, w0
    3bac: c0 06 f8 37  	tbnz	w0, #31, 0x3c84 <perf_event_open_probe+0x1a4>
    3bb0: f7 63 43 a9  	ldp	x23, x24, [sp, #48]
    3bb4: 00 00 00 90  	adrp	x0, 0x3000 <perf_event_open_probe+0xd4>
    3bb8: 00 00 40 f9  	ldr	x0, [x0]
    3bbc: e2 af 40 f9  	ldr	x2, [sp, #344]
    3bc0: 01 00 40 f9  	ldr	x1, [x0]
    3bc4: 42 00 01 eb  	subs	x2, x2, x1
    3bc8: 01 00 80 d2  	mov	x1, #0
    3bcc: 41 0b 00 54  	b.ne	0x3d34 <perf_event_open_probe+0x254>
    3bd0: e0 03 14 2a  	mov	w0, w20
    3bd4: f3 53 41 a9  	ldp	x19, x20, [sp, #16]
    3bd8: f5 5b 42 a9  	ldp	x21, x22, [sp, #32]
    3bdc: f9 6b 44 a9  	ldp	x25, x26, [sp, #64]
    3be0: fd 7b d6 a8  	ldp	x29, x30, [sp], #352
    3be4: c0 03 5f d6  	ret
    3be8: 21 00 00 91  	add	x1, x1, #0
    3bec: 00 00 00 90  	adrp	x0, 0x3000 <perf_event_open_probe+0x10c>
    3bf0: 00 00 00 91  	add	x0, x0, #0
    3bf4: 73 ff ff 97  	bl	0x39c0 <parse_uint_from_file>
    3bf8: f4 03 00 2a  	mov	w20, w0
    3bfc: a0 08 f8 37  	tbnz	w0, #31, 0x3d10 <perf_event_open_probe+0x230>
    3c00: 7a fb ff 34  	cbz	w26, 0x3b6c <perf_event_open_probe+0x8c>
    3c04: 01 00 00 90  	adrp	x1, 0x3000 <perf_event_open_probe+0x124>
    3c08: 00 00 00 90  	adrp	x0, 0x3000 <perf_event_open_probe+0x128>
    3c0c: 21 00 00 91  	add	x1, x1, #0
    3c10: 00 00 00 91  	add	x0, x0, #0
    3c14: 6b ff ff 97  	bl	0x39c0 <parse_uint_from_file>
    3c18: a0 02 f8 36  	tbz	w0, #31, 0x3c6c <perf_event_open_probe+0x18c>
    3c1c: 13 00 00 90  	adrp	x19, 0x3000 <perf_event_open_probe+0x13c>
    3c20: f4 03 00 2a  	mov	w20, w0
    3c24: 73 02 00 91  	add	x19, x19, #0
    3c28: e1 63 03 91  	add	x1, sp, #216
    3c2c: 02 10 80 52  	mov	w2, #128
    3c30: 00 00 00 94  	bl	0x3c30 <perf_event_open_probe+0x150>
    3c34: e3 03 00 aa  	mov	x3, x0
    3c38: e2 03 13 aa  	mov	x2, x19
    3c3c: 01 00 00 90  	adrp	x1, 0x3000 <perf_event_open_probe+0x15c>
    3c40: 00 00 80 52  	mov	w0, #0
    3c44: 21 00 00 91  	add	x1, x1, #0
    3c48: 00 00 00 94  	bl	0x3c48 <perf_event_open_probe+0x168>
    3c4c: f7 63 43 a9  	ldp	x23, x24, [sp, #48]
    3c50: d9 ff ff 17  	b	0x3bb4 <perf_event_open_probe+0xd4>
    3c54: 01 00 00 90  	adrp	x1, 0x3000 <perf_event_open_probe+0x174>
    3c58: 00 00 00 90  	adrp	x0, 0x3000 <perf_event_open_probe+0x178>
    3c5c: 21 00 00 91  	add	x1, x1, #0
    3c60: 00 00 00 91  	add	x0, x0, #0
    3c64: 57 ff ff 97  	bl	0x39c0 <parse_uint_from_file>
    3c68: a0 05 f8 37  	tbnz	w0, #31, 0x3d1c <perf_event_open_probe+0x23c>
    3c6c: 26 00 80 52  	mov	w6, #1
    3c70: e1 33 40 f9  	ldr	x1, [sp, #96]
    3c74: c6 20 c0 1a  	lsl	w6, w6, w0
    3c78: c6 7c 40 93  	sxtw	x6, w6
    3c7c: c6 00 01 aa  	orr	x6, x6, x1
    3c80: bc ff ff 17  	b	0x3b70 <perf_event_open_probe+0x90>
    3c84: 00 00 00 94  	bl	0x3c84 <perf_event_open_probe+0x1a4>
    3c88: 14 00 40 b9  	ldr	w20, [x0]
    3c8c: 3f 03 00 71  	cmp	w25, #0
    3c90: 03 00 00 90  	adrp	x3, 0x3000 <perf_event_open_probe+0x1b0>
    3c94: 63 00 00 91  	add	x3, x3, #0
    3c98: 01 00 00 90  	adrp	x1, 0x3000 <perf_event_open_probe+0x1b8>
    3c9c: f4 03 14 4b  	neg	w20, w20
    3ca0: 20 00 00 91  	add	x0, x1, #0
    3ca4: e2 03 13 2a  	mov	w2, w19
    3ca8: e1 63 03 91  	add	x1, sp, #216
    3cac: 13 10 83 9a  	csel	x19, x0, x3, ne
    3cb0: e0 03 14 2a  	mov	w0, w20
    3cb4: 00 00 00 94  	bl	0x3cb4 <perf_event_open_probe+0x1d4>
    3cb8: e3 03 00 aa  	mov	x3, x0
    3cbc: e2 03 13 aa  	mov	x2, x19
    3cc0: 01 00 00 90  	adrp	x1, 0x3000 <perf_event_open_probe+0x1e0>
    3cc4: 00 00 80 52  	mov	w0, #0
    3cc8: 21 00 00 91  	add	x1, x1, #0
    3ccc: 00 00 00 94  	bl	0x3ccc <perf_event_open_probe+0x1ec>
    3cd0: f7 63 43 a9  	ldp	x23, x24, [sp, #48]
    3cd4: b8 ff ff 17  	b	0x3bb4 <perf_event_open_probe+0xd4>
    3cd8: 13 00 00 90  	adrp	x19, 0x3000 <perf_event_open_probe+0x1f8>
    3cdc: 73 02 00 91  	add	x19, x19, #0
    3ce0: e1 63 03 91  	add	x1, sp, #216
    3ce4: 02 10 80 52  	mov	w2, #128
    3ce8: e0 03 14 2a  	mov	w0, w20
    3cec: 00 00 00 94  	bl	0x3cec <perf_event_open_probe+0x20c>
    3cf0: e2 03 13 aa  	mov	x2, x19
    3cf4: e3 03 00 aa  	mov	x3, x0
    3cf8: 01 00 00 90  	adrp	x1, 0x3000 <perf_event_open_probe+0x218>
    3cfc: 00 00 80 52  	mov	w0, #0
    3d00: 21 00 00 91  	add	x1, x1, #0
    3d04: 00 00 00 94  	bl	0x3d04 <perf_event_open_probe+0x224>
    3d08: f7 63 43 a9  	ldp	x23, x24, [sp, #48]
    3d0c: aa ff ff 17  	b	0x3bb4 <perf_event_open_probe+0xd4>
    3d10: 13 00 00 90  	adrp	x19, 0x3000 <perf_event_open_probe+0x230>
    3d14: 73 02 00 91  	add	x19, x19, #0
    3d18: f2 ff ff 17  	b	0x3ce0 <perf_event_open_probe+0x200>
    3d1c: 13 00 00 90  	adrp	x19, 0x3000 <perf_event_open_probe+0x23c>
    3d20: f4 03 00 2a  	mov	w20, w0
    3d24: 73 02 00 91  	add	x19, x19, #0
    3d28: c0 ff ff 17  	b	0x3c28 <perf_event_open_probe+0x148>
    3d2c: b4 02 80 12  	mov	w20, #-22
    3d30: a1 ff ff 17  	b	0x3bb4 <perf_event_open_probe+0xd4>
    3d34: f7 63 03 a9  	stp	x23, x24, [sp, #48]
    3d38: 00 00 00 94  	bl	0x3d38 <perf_event_open_probe+0x258>
    3d3c: 1f 20 03 d5  	nop

0000000000003d40 <determine_tracepoint_id>:
    3d40: 0c 08 82 d2  	mov	x12, #4160
    3d44: ff 63 2c cb  	sub	sp, sp, x12
    3d48: 02 00 00 90  	adrp	x2, 0x3000 <determine_tracepoint_id+0x8>
    3d4c: e5 03 00 aa  	mov	x5, x0
    3d50: e6 03 01 aa  	mov	x6, x1
    3d54: 04 00 00 90  	adrp	x4, 0x3000 <determine_tracepoint_id+0x14>
    3d58: fd 7b 00 a9  	stp	x29, x30, [sp]
    3d5c: fd 03 00 91  	mov	x29, sp
    3d60: 03 00 82 d2  	mov	x3, #4096
    3d64: 42 00 40 f9  	ldr	x2, [x2]
    3d68: f3 53 01 a9  	stp	x19, x20, [sp, #16]
    3d6c: f3 03 00 aa  	mov	x19, x0
    3d70: f5 13 00 f9  	str	x21, [sp, #32]
    3d74: f5 e3 00 91  	add	x21, sp, #56
    3d78: f4 03 01 aa  	mov	x20, x1
    3d7c: 84 00 00 91  	add	x4, x4, #0
    3d80: 40 00 40 f9  	ldr	x0, [x2]
    3d84: e0 1f 08 f9  	str	x0, [sp, #4152]
    3d88: 00 00 80 d2  	mov	x0, #0
    3d8c: e1 03 03 aa  	mov	x1, x3
    3d90: e0 03 15 aa  	mov	x0, x21
    3d94: 22 00 80 52  	mov	w2, #1
    3d98: 00 00 00 94  	bl	0x3d98 <determine_tracepoint_id+0x58>
    3d9c: 80 02 f8 37  	tbnz	w0, #31, 0x3dec <determine_tracepoint_id+0xac>
    3da0: 1f fc 3f 71  	cmp	w0, #4095
    3da4: cc 02 00 54  	b.gt	0x3dfc <determine_tracepoint_id+0xbc>
    3da8: 01 00 00 90  	adrp	x1, 0x3000 <determine_tracepoint_id+0x68>
    3dac: e0 03 15 aa  	mov	x0, x21
    3db0: 21 00 00 91  	add	x1, x1, #0
    3db4: 03 ff ff 97  	bl	0x39c0 <parse_uint_from_file>
    3db8: 01 00 00 90  	adrp	x1, 0x3000 <determine_tracepoint_id+0x78>
    3dbc: 21 00 40 f9  	ldr	x1, [x1]
    3dc0: e3 1f 48 f9  	ldr	x3, [sp, #4152]
    3dc4: 22 00 40 f9  	ldr	x2, [x1]
    3dc8: 63 00 02 eb  	subs	x3, x3, x2
    3dcc: 02 00 80 d2  	mov	x2, #0
    3dd0: 61 02 00 54  	b.ne	0x3e1c <determine_tracepoint_id+0xdc>
    3dd4: 0c 08 82 d2  	mov	x12, #4160
    3dd8: fd 7b 40 a9  	ldp	x29, x30, [sp]
    3ddc: f3 53 41 a9  	ldp	x19, x20, [sp, #16]
    3de0: f5 13 40 f9  	ldr	x21, [sp, #32]
    3de4: ff 63 2c 8b  	add	sp, sp, x12
    3de8: c0 03 5f d6  	ret
    3dec: 00 00 00 94  	bl	0x3dec <determine_tracepoint_id+0xac>
    3df0: 00 00 40 b9  	ldr	w0, [x0]
    3df4: e0 03 00 4b  	neg	w0, w0
    3df8: f0 ff ff 17  	b	0x3db8 <determine_tracepoint_id+0x78>
    3dfc: 40 00 80 52  	mov	w0, #2
    3e00: e3 03 14 aa  	mov	x3, x20
    3e04: e2 03 13 aa  	mov	x2, x19
    3e08: 01 00 00 90  	adrp	x1, 0x3000 <determine_tracepoint_id+0xc8>
    3e0c: 21 00 00 91  	add	x1, x1, #0
    3e10: 00 00 00 94  	bl	0x3e10 <determine_tracepoint_id+0xd0>
    3e14: c0 00 80 12  	mov	w0, #-7
    3e18: e8 ff ff 17  	b	0x3db8 <determine_tracepoint_id+0x78>
    3e1c: 00 00 00 94  	bl	0x3e1c <determine_tracepoint_id+0xdc>

0000000000003e20 <perf_buffer__free_cpu_buf>:
    3e20: e1 04 00 b4  	cbz	x1, 0x3ebc <perf_buffer__free_cpu_buf+0x9c>
    3e24: fd 7b be a9  	stp	x29, x30, [sp, #-32]!
    3e28: e2 03 00 aa  	mov	x2, x0
    3e2c: fd 03 00 91  	mov	x29, sp
    3e30: 20 04 40 f9  	ldr	x0, [x1, #8]
    3e34: f3 0b 00 f9  	str	x19, [sp, #16]
    3e38: f3 03 01 aa  	mov	x19, x1
    3e3c: a0 00 00 b4  	cbz	x0, 0x3e50 <perf_buffer__free_cpu_buf+0x30>
    3e40: 41 08 42 a9  	ldp	x1, x2, [x2, #32]
    3e44: 41 00 01 8b  	add	x1, x2, x1
    3e48: 00 00 00 94  	bl	0x3e48 <perf_buffer__free_cpu_buf+0x28>
    3e4c: 80 02 00 35  	cbnz	w0, 0x3e9c <perf_buffer__free_cpu_buf+0x7c>
    3e50: 60 22 40 b9  	ldr	w0, [x19, #32]
    3e54: e0 00 f8 36  	tbz	w0, #31, 0x3e70 <perf_buffer__free_cpu_buf+0x50>
    3e58: 60 0a 40 f9  	ldr	x0, [x19, #16]
    3e5c: 00 00 00 94  	bl	0x3e5c <perf_buffer__free_cpu_buf+0x3c>
    3e60: e0 03 13 aa  	mov	x0, x19
    3e64: f3 0b 40 f9  	ldr	x19, [sp, #16]
    3e68: fd 7b c2 a8  	ldp	x29, x30, [sp], #32
    3e6c: 00 00 00 14  	b	0x3e6c <perf_buffer__free_cpu_buf+0x4c>
    3e70: 02 00 80 52  	mov	w2, #0
    3e74: 21 80 84 d2  	mov	x1, #9217
    3e78: 00 00 00 94  	bl	0x3e78 <perf_buffer__free_cpu_buf+0x58>
    3e7c: 60 22 40 b9  	ldr	w0, [x19, #32]
    3e80: 00 00 00 94  	bl	0x3e80 <perf_buffer__free_cpu_buf+0x60>
    3e84: 60 0a 40 f9  	ldr	x0, [x19, #16]
    3e88: 00 00 00 94  	bl	0x3e88 <perf_buffer__free_cpu_buf+0x68>
    3e8c: e0 03 13 aa  	mov	x0, x19
    3e90: f3 0b 40 f9  	ldr	x19, [sp, #16]
    3e94: fd 7b c2 a8  	ldp	x29, x30, [sp], #32
    3e98: 00 00 00 14  	b	0x3e98 <perf_buffer__free_cpu_buf+0x78>
    3e9c: 62 26 40 b9  	ldr	w2, [x19, #36]
    3ea0: 00 00 80 52  	mov	w0, #0
    3ea4: 01 00 00 90  	adrp	x1, 0x3000 <perf_buffer__free_cpu_buf+0x84>
    3ea8: 21 00 00 91  	add	x1, x1, #0
    3eac: 00 00 00 94  	bl	0x3eac <perf_buffer__free_cpu_buf+0x8c>
    3eb0: 60 22 40 b9  	ldr	w0, [x19, #32]
    3eb4: 20 fd ff 37  	tbnz	w0, #31, 0x3e58 <perf_buffer__free_cpu_buf+0x38>
    3eb8: ee ff ff 17  	b	0x3e70 <perf_buffer__free_cpu_buf+0x50>
    3ebc: c0 03 5f d6  	ret

0000000000003ec0 <perf_buffer__process_record>:
    3ec0: e2 03 00 aa  	mov	x2, x0
    3ec4: 20 00 40 f9  	ldr	x0, [x1]
    3ec8: 03 00 40 f9  	ldr	x3, [x0]
    3ecc: a3 00 00 b4  	cbz	x3, 0x3ee0 <perf_buffer__process_record+0x20>
    3ed0: 21 24 40 b9  	ldr	w1, [x1, #36]
    3ed4: f0 03 03 aa  	mov	x16, x3
    3ed8: 00 0c 40 f9  	ldr	x0, [x0, #24]
    3edc: 00 02 1f d6  	br	x16
    3ee0: fd 7b be a9  	stp	x29, x30, [sp, #-32]!
    3ee4: fd 03 00 91  	mov	x29, sp
    3ee8: 43 00 40 b9  	ldr	w3, [x2]
    3eec: f3 0b 00 f9  	str	x19, [sp, #16]
    3ef0: 7f 08 00 71  	cmp	w3, #2
    3ef4: e0 01 00 54  	b.eq	0x3f30 <perf_buffer__process_record+0x70>
    3ef8: 7f 24 00 71  	cmp	w3, #9
    3efc: 01 03 00 54  	b.ne	0x3f5c <perf_buffer__process_record+0x9c>
    3f00: 04 04 40 f9  	ldr	x4, [x0, #8]
    3f04: 33 00 80 12  	mov	w19, #-2
    3f08: c4 00 00 b4  	cbz	x4, 0x3f20 <perf_buffer__process_record+0x60>
    3f0c: 43 08 40 b9  	ldr	w3, [x2, #8]
    3f10: 42 30 00 91  	add	x2, x2, #12
    3f14: 21 24 40 b9  	ldr	w1, [x1, #36]
    3f18: 00 0c 40 f9  	ldr	x0, [x0, #24]
    3f1c: 80 00 3f d6  	blr	x4
    3f20: e0 03 13 2a  	mov	w0, w19
    3f24: f3 0b 40 f9  	ldr	x19, [sp, #16]
    3f28: fd 7b c2 a8  	ldp	x29, x30, [sp], #32
    3f2c: c0 03 5f d6  	ret
    3f30: 03 08 40 f9  	ldr	x3, [x0, #16]
    3f34: 33 00 80 12  	mov	w19, #-2
    3f38: 43 ff ff b4  	cbz	x3, 0x3f20 <perf_buffer__process_record+0x60>
    3f3c: 21 24 40 b9  	ldr	w1, [x1, #36]
    3f40: 42 08 40 f9  	ldr	x2, [x2, #16]
    3f44: 00 0c 40 f9  	ldr	x0, [x0, #24]
    3f48: 60 00 3f d6  	blr	x3
    3f4c: e0 03 13 2a  	mov	w0, w19
    3f50: f3 0b 40 f9  	ldr	x19, [sp, #16]
    3f54: fd 7b c2 a8  	ldp	x29, x30, [sp], #32
    3f58: c0 03 5f d6  	ret
    3f5c: e2 03 03 2a  	mov	w2, w3
    3f60: 13 00 80 12  	mov	w19, #-1
    3f64: 00 00 80 52  	mov	w0, #0
    3f68: 01 00 00 90  	adrp	x1, 0x3000 <perf_buffer__process_record+0xa8>
    3f6c: 21 00 00 91  	add	x1, x1, #0
    3f70: 00 00 00 94  	bl	0x3f70 <perf_buffer__process_record+0xb0>
    3f74: e0 03 13 2a  	mov	w0, w19
    3f78: f3 0b 40 f9  	ldr	x19, [sp, #16]
    3f7c: fd 7b c2 a8  	ldp	x29, x30, [sp], #32
    3f80: c0 03 5f d6  	ret

0000000000003f84 <get_map_field_int>:
    3f84: fd 7b bc a9  	stp	x29, x30, [sp, #-64]!
    3f88: fd 03 00 91  	mov	x29, sp
    3f8c: f3 53 01 a9  	stp	x19, x20, [sp, #16]
    3f90: f4 03 01 aa  	mov	x20, x1
    3f94: f5 5b 02 a9  	stp	x21, x22, [sp, #32]
    3f98: f6 03 00 aa  	mov	x22, x0
    3f9c: e0 03 01 aa  	mov	x0, x1
    3fa0: 41 04 40 b9  	ldr	w1, [x2, #4]
    3fa4: f5 03 02 aa  	mov	x21, x2
    3fa8: f7 1b 00 f9  	str	x23, [sp, #48]
    3fac: f7 03 03 aa  	mov	x23, x3
    3fb0: 00 00 00 94  	bl	0x3fb0 <get_map_field_int+0x2c>
    3fb4: f3 03 00 aa  	mov	x19, x0
    3fb8: 00 1c 40 39  	ldrb	w0, [x0, #7]
    3fbc: 00 10 00 12  	and	w0, w0, #0x1f
    3fc0: 00 20 00 51  	sub	w0, w0, #8
    3fc4: 00 3c 00 12  	and	w0, w0, #0xffff
    3fc8: 1f 0c 00 71  	cmp	w0, #3
    3fcc: 68 01 00 54  	b.hi	0x3ff8 <get_map_field_int+0x74>
    3fd0: 61 0a 40 b9  	ldr	w1, [x19, #8]
    3fd4: e0 03 14 aa  	mov	x0, x20
    3fd8: 00 00 00 94  	bl	0x3fd8 <get_map_field_int+0x54>
    3fdc: 04 1c 40 39  	ldrb	w4, [x0, #7]
    3fe0: f3 03 00 aa  	mov	x19, x0
    3fe4: 84 10 00 12  	and	w4, w4, #0x1f
    3fe8: 84 20 00 51  	sub	w4, w4, #8
    3fec: 84 3c 00 12  	and	w4, w4, #0xffff
    3ff0: 9f 0c 00 71  	cmp	w4, #3
    3ff4: e9 fe ff 54  	b.ls	0x3fd0 <get_map_field_int+0x4c>
    3ff8: a1 02 40 b9  	ldr	w1, [x21]
    3ffc: e0 03 14 aa  	mov	x0, x20
    4000: 00 00 00 94  	bl	0x4000 <get_map_field_int+0x7c>
    4004: f5 03 00 aa  	mov	x21, x0
    4008: 61 1e 40 39  	ldrb	w1, [x19, #7]
    400c: 20 10 00 12  	and	w0, w1, #0x1f
    4010: 1f 08 00 71  	cmp	w0, #2
    4014: e0 01 00 54  	b.eq	0x4050 <get_map_field_int+0xcc>
    4018: fa ef ff 97  	bl	0x0 <__btf_kind_str>
    401c: e3 03 15 aa  	mov	x3, x21
    4020: e4 03 00 aa  	mov	x4, x0
    4024: e2 03 16 aa  	mov	x2, x22
    4028: 00 00 80 52  	mov	w0, #0
    402c: 01 00 00 90  	adrp	x1, 0x4000 <get_map_field_int+0xa8>
    4030: 21 00 00 91  	add	x1, x1, #0
    4034: 00 00 00 94  	bl	0x4034 <get_map_field_int+0xb0>
    4038: 00 00 80 52  	mov	w0, #0
    403c: f3 53 41 a9  	ldp	x19, x20, [sp, #16]
    4040: f5 5b 42 a9  	ldp	x21, x22, [sp, #32]
    4044: f7 1b 40 f9  	ldr	x23, [sp, #48]
    4048: fd 7b c4 a8  	ldp	x29, x30, [sp], #64
    404c: c0 03 5f d6  	ret
    4050: 61 0a 40 b9  	ldr	w1, [x19, #8]
    4054: e0 03 14 aa  	mov	x0, x20
    4058: 00 00 00 94  	bl	0x4058 <get_map_field_int+0xd4>
    405c: e1 03 00 aa  	mov	x1, x0
    4060: 60 03 00 b4  	cbz	x0, 0x40cc <get_map_field_int+0x148>
    4064: 00 1c 40 39  	ldrb	w0, [x0, #7]
    4068: 00 10 00 12  	and	w0, w0, #0x1f
    406c: 1f 0c 00 71  	cmp	w0, #3
    4070: 21 01 00 54  	b.ne	0x4094 <get_map_field_int+0x110>
    4074: 21 14 40 b9  	ldr	w1, [x1, #20]
    4078: 20 00 80 52  	mov	w0, #1
    407c: e1 02 00 b9  	str	w1, [x23]
    4080: f3 53 41 a9  	ldp	x19, x20, [sp, #16]
    4084: f5 5b 42 a9  	ldp	x21, x22, [sp, #32]
    4088: f7 1b 40 f9  	ldr	x23, [sp, #48]
    408c: fd 7b c4 a8  	ldp	x29, x30, [sp], #64
    4090: c0 03 5f d6  	ret
    4094: db ef ff 97  	bl	0x0 <__btf_kind_str>
    4098: e3 03 15 aa  	mov	x3, x21
    409c: e4 03 00 aa  	mov	x4, x0
    40a0: e2 03 16 aa  	mov	x2, x22
    40a4: 00 00 80 52  	mov	w0, #0
    40a8: 01 00 00 90  	adrp	x1, 0x4000 <get_map_field_int+0x124>
    40ac: 21 00 00 91  	add	x1, x1, #0
    40b0: 00 00 00 94  	bl	0x40b0 <get_map_field_int+0x12c>
    40b4: 00 00 80 52  	mov	w0, #0
    40b8: f3 53 41 a9  	ldp	x19, x20, [sp, #16]
    40bc: f5 5b 42 a9  	ldp	x21, x22, [sp, #32]
    40c0: f7 1b 40 f9  	ldr	x23, [sp, #48]
    40c4: fd 7b c4 a8  	ldp	x29, x30, [sp], #64
    40c8: c0 03 5f d6  	ret
    40cc: 64 0a 40 b9  	ldr	w4, [x19, #8]
    40d0: 00 00 80 52  	mov	w0, #0
    40d4: e3 03 15 aa  	mov	x3, x21
    40d8: e2 03 16 aa  	mov	x2, x22
    40dc: 01 00 00 90  	adrp	x1, 0x4000 <get_map_field_int+0x158>
    40e0: 21 00 00 91  	add	x1, x1, #0
    40e4: 00 00 00 94  	bl	0x40e4 <get_map_field_int+0x160>
    40e8: 00 00 80 52  	mov	w0, #0
    40ec: d4 ff ff 17  	b	0x403c <get_map_field_int+0xb8>

00000000000040f0 <load_program>:
    40f0: fd 7b ab a9  	stp	x29, x30, [sp, #-336]!
    40f4: 06 00 00 90  	adrp	x6, 0x4000 <load_program+0x4>
    40f8: 00 04 00 4f  	movi	v0.4s, #0
    40fc: fd 03 00 91  	mov	x29, sp
    4100: f9 23 00 f9  	str	x25, [sp, #64]
    4104: f9 03 00 aa  	mov	x25, x0
    4108: c0 00 40 f9  	ldr	x0, [x6]
    410c: f3 53 01 a9  	stp	x19, x20, [sp, #16]
    4110: 26 97 40 b9  	ldr	w6, [x25, #148]
    4114: f5 5b 02 a9  	stp	x21, x22, [sp, #32]
    4118: f6 43 01 91  	add	x22, sp, #80
    411c: 07 00 40 f9  	ldr	x7, [x0]
    4120: e7 a7 00 f9  	str	x7, [sp, #328]
    4124: 07 00 80 d2  	mov	x7, #0
    4128: df 3a 00 f9  	str	xzr, [x22, #112]
    412c: c0 02 00 ad  	stp	q0, q0, [x22]
    4130: c0 02 01 ad  	stp	q0, q0, [x22, #32]
    4134: c0 02 02 ad  	stp	q0, q0, [x22, #64]
    4138: c0 1a 80 3d  	str	q0, [x22, #96]
    413c: e6 1e 00 34  	cbz	w6, 0x4518 <load_program+0x428>
    4140: 53 7c 40 93  	sxtw	x19, w2
    4144: 3f 00 00 f1  	cmp	x1, #0
    4148: f4 03 01 aa  	mov	x20, x1
    414c: 64 1a 40 7a  	ccmp	w19, #0, #4, ne
    4150: 00 1e 00 54  	b.eq	0x4510 <load_program+0x420>
    4154: f7 63 03 a9  	stp	x23, x24, [sp, #48]
    4158: f8 03 05 aa  	mov	x24, x5
    415c: f7 03 03 aa  	mov	x23, x3
    4160: 25 3f 40 f9  	ldr	x5, [x25, #120]
    4164: e6 53 00 b9  	str	w6, [sp, #80]
    4168: f5 03 04 2a  	mov	w21, w4
    416c: a0 50 40 f9  	ldr	x0, [x5, #160]
    4170: 40 0d 00 b4  	cbz	x0, 0x4318 <load_program+0x228>
    4174: 21 9b 40 b9  	ldr	w1, [x25, #152]
    4178: e1 57 00 b9  	str	w1, [sp, #84]
    417c: 20 11 00 b4  	cbz	x0, 0x43a0 <load_program+0x2b0>
    4180: 20 1b 40 f9  	ldr	x0, [x25, #48]
    4184: e0 2f 00 f9  	str	x0, [sp, #88]
    4188: 21 83 54 29  	ldp	w1, w0, [x25, #164]
    418c: f4 4f 06 a9  	stp	x20, x19, [sp, #96]
    4190: f7 3b 00 f9  	str	x23, [sp, #112]
    4194: e1 87 00 b9  	str	w1, [sp, #132]
    4198: c0 0b 00 35  	cbnz	w0, 0x4310 <load_program+0x220>
    419c: 20 a3 40 b9  	ldr	w0, [x25, #160]
    41a0: e0 83 00 b9  	str	w0, [sp, #128]
    41a4: a0 c0 40 f9  	ldr	x0, [x5, #384]
    41a8: f5 7b 00 b9  	str	w21, [sp, #120]
    41ac: 21 9f 40 b9  	ldr	w1, [x25, #156]
    41b0: e1 8b 00 b9  	str	w1, [sp, #136]
    41b4: a0 1a 00 b4  	cbz	x0, 0x4508 <load_program+0x418>
    41b8: 00 00 00 94  	bl	0x41b8 <load_program+0xc8>
    41bc: f3 03 00 2a  	mov	w19, w0
    41c0: 25 3f 40 f9  	ldr	x5, [x25, #120]
    41c4: b4 50 40 f9  	ldr	x20, [x5, #160]
    41c8: c0 01 f8 37  	tbnz	w0, #31, 0x4200 <load_program+0x110>
    41cc: 54 0f 00 b4  	cbz	x20, 0x43b4 <load_program+0x2c4>
    41d0: 20 5b 40 f9  	ldr	x0, [x25, #176]
    41d4: e0 4f 00 f9  	str	x0, [sp, #152]
    41d8: 20 bb 40 b9  	ldr	w0, [x25, #184]
    41dc: 23 bf 40 b9  	ldr	w3, [x25, #188]
    41e0: 22 cb 40 b9  	ldr	w2, [x25, #200]
    41e4: e0 97 00 b9  	str	w0, [sp, #148]
    41e8: 20 cf 40 b9  	ldr	w0, [x25, #204]
    41ec: 21 63 40 f9  	ldr	x1, [x25, #192]
    41f0: f3 8f 00 b9  	str	w19, [sp, #140]
    41f4: e3 0b 14 29  	stp	w3, w2, [sp, #160]
    41f8: e1 57 00 f9  	str	x1, [sp, #168]
    41fc: e0 b3 00 b9  	str	w0, [sp, #176]
    4200: 20 5f 40 b9  	ldr	w0, [x25, #92]
    4204: 13 00 80 d2  	mov	x19, #0
    4208: 21 d3 40 b9  	ldr	w1, [x25, #208]
    420c: f7 5f 40 b2  	mov	x23, #16777215
    4210: e1 93 00 b9  	str	w1, [sp, #144]
    4214: e0 b7 00 b9  	str	w0, [sp, #180]
    4218: f4 08 00 b5  	cbnz	x20, 0x4334 <load_program+0x244>
    421c: b3 02 00 b4  	cbz	x19, 0x4270 <load_program+0x180>
    4220: e0 03 13 aa  	mov	x0, x19
    4224: 00 00 00 94  	bl	0x4224 <load_program+0x134>
    4228: f4 03 00 aa  	mov	x20, x0
    422c: 60 18 00 b4  	cbz	x0, 0x4538 <load_program+0x448>
    4230: 1f 00 00 39  	strb	wzr, [x0]
    4234: e0 03 16 aa  	mov	x0, x22
    4238: f4 cf 0b a9  	stp	x20, x19, [sp, #184]
    423c: 00 00 00 94  	bl	0x423c <load_program+0x14c>
    4240: f5 03 00 2a  	mov	w21, w0
    4244: 80 0c f8 36  	tbz	w0, #31, 0x43d4 <load_program+0x2e4>
    4248: 00 00 00 94  	bl	0x4248 <load_program+0x158>
    424c: 00 00 40 b9  	ldr	w0, [x0]
    4250: 1f 70 00 71  	cmp	w0, #28
    4254: 21 02 00 54  	b.ne	0x4298 <load_program+0x1a8>
    4258: 73 fa 7f d3  	lsl	x19, x19, #1
    425c: e0 03 14 aa  	mov	x0, x20
    4260: 7f 02 17 eb  	cmp	x19, x23
    4264: 73 22 97 9a  	csel	x19, x19, x23, hs
    4268: 00 00 00 94  	bl	0x4268 <load_program+0x178>
    426c: b3 fd ff b5  	cbnz	x19, 0x4220 <load_program+0x130>
    4270: e0 03 16 aa  	mov	x0, x22
    4274: f4 ff 0b a9  	stp	x20, xzr, [sp, #184]
    4278: 00 00 00 94  	bl	0x4278 <load_program+0x188>
    427c: f5 03 00 2a  	mov	w21, w0
    4280: 80 0a f8 36  	tbz	w0, #31, 0x43d0 <load_program+0x2e0>
    4284: b4 fe ff b4  	cbz	x20, 0x4258 <load_program+0x168>
    4288: 00 00 00 94  	bl	0x4288 <load_program+0x198>
    428c: 00 00 40 b9  	ldr	w0, [x0]
    4290: 1f 70 00 71  	cmp	w0, #28
    4294: 20 fe ff 54  	b.eq	0x4258 <load_program+0x168>
    4298: 1f 00 00 71  	cmp	w0, #0
    429c: a1 f4 81 12  	mov	w1, #-4006
    42a0: 02 10 80 52  	mov	w2, #128
    42a4: 33 04 80 5a  	csneg	w19, w1, w0, eq
    42a8: e1 23 03 91  	add	x1, sp, #200
    42ac: 00 00 00 94  	bl	0x42ac <load_program+0x1bc>
    42b0: e2 03 00 aa  	mov	x2, x0
    42b4: 01 00 00 90  	adrp	x1, 0x4000 <load_program+0x1c4>
    42b8: 21 00 00 91  	add	x1, x1, #0
    42bc: 00 00 80 52  	mov	w0, #0
    42c0: 00 00 00 94  	bl	0x42c0 <load_program+0x1d0>
    42c4: e0 03 13 2a  	mov	w0, w19
    42c8: 2e f6 ff 97  	bl	0x1b80 <pr_perm_msg>
    42cc: 80 02 40 39  	ldrb	w0, [x20]
    42d0: e0 0b 00 35  	cbnz	w0, 0x444c <load_program+0x35c>
    42d4: e2 37 40 f9  	ldr	x2, [sp, #104]
    42d8: 5f fc 3f f1  	cmp	x2, #4095
    42dc: 08 0f 00 54  	b.hi	0x44bc <load_program+0x3cc>
    42e0: e0 53 40 b9  	ldr	w0, [sp, #80]
    42e4: 1f 08 00 71  	cmp	w0, #2
    42e8: a0 09 00 54  	b.eq	0x441c <load_program+0x32c>
    42ec: 41 00 80 d2  	mov	x1, #2
    42f0: e0 03 16 aa  	mov	x0, x22
    42f4: e1 2b 00 f9  	str	x1, [sp, #80]
    42f8: ff ff 0b a9  	stp	xzr, xzr, [sp, #184]
    42fc: 00 00 00 94  	bl	0x42fc <load_program+0x20c>
    4300: e0 08 f8 37  	tbnz	w0, #31, 0x441c <load_program+0x32c>
    4304: 33 f5 81 12  	mov	w19, #-4010
    4308: 00 00 00 94  	bl	0x4308 <load_program+0x218>
    430c: 44 00 00 14  	b	0x441c <load_program+0x32c>
    4310: e0 7f 00 b9  	str	w0, [sp, #124]
    4314: a4 ff ff 17  	b	0x41a4 <load_program+0xb4>
    4318: e0 00 80 52  	mov	w0, #7
    431c: 39 f5 ff 97  	bl	0x1800 <kernel_supports.part.0>
    4320: 1f 1c 00 72  	tst	w0, #0xff
    4324: 40 08 00 54  	b.eq	0x442c <load_program+0x33c>
    4328: 25 3f 40 f9  	ldr	x5, [x25, #120]
    432c: a0 50 40 f9  	ldr	x0, [x5, #160]
    4330: 91 ff ff 17  	b	0x4174 <load_program+0x84>
    4334: a2 2c 40 f9  	ldr	x2, [x5, #88]
    4338: 63 42 9b d2  	mov	x3, #55827
    433c: 63 09 ad f2  	movk	x3, #26699, lsl #16
    4340: e0 03 14 aa  	mov	x0, x20
    4344: 22 03 02 cb  	sub	x2, x25, x2
    4348: e3 25 d4 f2  	movk	x3, #41263, lsl #32
    434c: a3 97 f0 f2  	movk	x3, #33981, lsl #48
    4350: e1 03 16 aa  	mov	x1, x22
    4354: 42 fc 43 93  	asr	x2, x2, #3
    4358: 42 7c 03 1b  	mul	w2, w2, w3
    435c: 00 00 00 94  	bl	0x435c <load_program+0x26c>
    4360: 00 00 80 12  	mov	w0, #-1
    4364: 00 03 00 b9  	str	w0, [x24]
    4368: f7 63 43 a9  	ldp	x23, x24, [sp, #48]
    436c: 00 00 00 90  	adrp	x0, 0x4000 <load_program+0x27c>
    4370: 00 00 40 f9  	ldr	x0, [x0]
    4374: e2 a7 40 f9  	ldr	x2, [sp, #328]
    4378: 01 00 40 f9  	ldr	x1, [x0]
    437c: 42 00 01 eb  	subs	x2, x2, x1
    4380: 01 00 80 d2  	mov	x1, #0
    4384: 81 0e 00 54  	b.ne	0x4554 <load_program+0x464>
    4388: e0 03 13 2a  	mov	w0, w19
    438c: f3 53 41 a9  	ldp	x19, x20, [sp, #16]
    4390: f5 5b 42 a9  	ldp	x21, x22, [sp, #32]
    4394: f9 23 40 f9  	ldr	x25, [sp, #64]
    4398: fd 7b d5 a8  	ldp	x29, x30, [sp], #336
    439c: c0 03 5f d6  	ret
    43a0: 18 f5 ff 97  	bl	0x1800 <kernel_supports.part.0>
    43a4: 25 3f 40 f9  	ldr	x5, [x25, #120]
    43a8: 1f 1c 00 72  	tst	w0, #0xff
    43ac: a1 ee ff 54  	b.ne	0x4180 <load_program+0x90>
    43b0: 76 ff ff 17  	b	0x4188 <load_program+0x98>
    43b4: 60 00 80 52  	mov	w0, #3
    43b8: 12 f5 ff 97  	bl	0x1800 <kernel_supports.part.0>
    43bc: 25 3f 40 f9  	ldr	x5, [x25, #120]
    43c0: b4 50 40 f9  	ldr	x20, [x5, #160]
    43c4: 1f 1c 00 72  	tst	w0, #0xff
    43c8: 41 f0 ff 54  	b.ne	0x41d0 <load_program+0xe0>
    43cc: 8d ff ff 17  	b	0x4200 <load_program+0x110>
    43d0: 74 00 00 b4  	cbz	x20, 0x43dc <load_program+0x2ec>
    43d4: e0 b7 40 b9  	ldr	w0, [sp, #180]
    43d8: 80 05 00 35  	cbnz	w0, 0x4488 <load_program+0x398>
    43dc: 21 3f 40 f9  	ldr	x1, [x25, #120]
    43e0: 20 98 40 b9  	ldr	w0, [x1, #152]
    43e4: 80 01 f8 37  	tbnz	w0, #31, 0x4414 <load_program+0x324>
    43e8: 22 50 40 f9  	ldr	x2, [x1, #160]
    43ec: a2 05 00 b4  	cbz	x2, 0x44a0 <load_program+0x3b0>
    43f0: 21 34 40 f9  	ldr	x1, [x1, #104]
    43f4: 02 13 80 52  	mov	w2, #152
    43f8: 00 04 22 9b  	smaddl	x0, w0, w2, x1
    43fc: 40 0a 00 b4  	cbz	x0, 0x4544 <load_program+0x454>
    4400: 01 08 40 b9  	ldr	w1, [x0, #8]
    4404: e0 03 15 2a  	mov	w0, w21
    4408: 02 00 80 d2  	mov	x2, #0
    440c: 00 00 00 94  	bl	0x440c <load_program+0x31c>
    4410: 40 06 00 35  	cbnz	w0, 0x44d8 <load_program+0x3e8>
    4414: 13 00 80 52  	mov	w19, #0
    4418: 15 03 00 b9  	str	w21, [x24]
    441c: e0 03 14 aa  	mov	x0, x20
    4420: 00 00 00 94  	bl	0x4420 <load_program+0x330>
    4424: f7 63 43 a9  	ldp	x23, x24, [sp, #48]
    4428: d1 ff ff 17  	b	0x436c <load_program+0x27c>
    442c: 21 03 40 f9  	ldr	x1, [x25]
    4430: 25 3f 40 f9  	ldr	x5, [x25, #120]
    4434: a0 50 40 f9  	ldr	x0, [x5, #160]
    4438: e1 e9 ff b4  	cbz	x1, 0x4174 <load_program+0x84>
    443c: 22 60 40 39  	ldrb	w2, [x1, #24]
    4440: 01 00 80 52  	mov	w1, #0
    4444: a2 e9 ff 35  	cbnz	w2, 0x4178 <load_program+0x88>
    4448: 4b ff ff 17  	b	0x4174 <load_program+0x84>
    444c: 00 00 80 52  	mov	w0, #0
    4450: 01 00 00 90  	adrp	x1, 0x4000 <load_program+0x360>
    4454: 21 00 00 91  	add	x1, x1, #0
    4458: 00 00 00 94  	bl	0x4458 <load_program+0x368>
    445c: e2 03 14 aa  	mov	x2, x20
    4460: 00 00 80 52  	mov	w0, #0
    4464: 01 00 00 90  	adrp	x1, 0x4000 <load_program+0x374>
    4468: 21 00 00 91  	add	x1, x1, #0
    446c: 00 00 00 94  	bl	0x446c <load_program+0x37c>
    4470: d3 f4 81 12  	mov	w19, #-4007
    4474: 01 00 00 90  	adrp	x1, 0x4000 <load_program+0x384>
    4478: 00 00 80 52  	mov	w0, #0
    447c: 21 00 00 91  	add	x1, x1, #0
    4480: 00 00 00 94  	bl	0x4480 <load_program+0x390>
    4484: e6 ff ff 17  	b	0x441c <load_program+0x32c>
    4488: e2 03 14 aa  	mov	x2, x20
    448c: 01 00 00 90  	adrp	x1, 0x4000 <load_program+0x39c>
    4490: 40 00 80 52  	mov	w0, #2
    4494: 21 00 00 91  	add	x1, x1, #0
    4498: 00 00 00 94  	bl	0x4498 <load_program+0x3a8>
    449c: d0 ff ff 17  	b	0x43dc <load_program+0x2ec>
    44a0: 20 01 80 52  	mov	w0, #9
    44a4: d7 f4 ff 97  	bl	0x1800 <kernel_supports.part.0>
    44a8: 1f 1c 00 72  	tst	w0, #0xff
    44ac: 40 fb ff 54  	b.eq	0x4414 <load_program+0x324>
    44b0: 21 3f 40 f9  	ldr	x1, [x25, #120]
    44b4: 20 98 40 b9  	ldr	w0, [x1, #152]
    44b8: ce ff ff 17  	b	0x43f0 <load_program+0x300>
    44bc: 01 00 00 90  	adrp	x1, 0x4000 <load_program+0x3cc>
    44c0: 03 00 82 52  	mov	w3, #4096
    44c4: 21 00 00 91  	add	x1, x1, #0
    44c8: 00 00 80 52  	mov	w0, #0
    44cc: f3 f4 81 12  	mov	w19, #-4008
    44d0: 00 00 00 94  	bl	0x44d0 <load_program+0x3e0>
    44d4: d2 ff ff 17  	b	0x441c <load_program+0x32c>
    44d8: 00 00 00 94  	bl	0x44d8 <load_program+0x3e8>
    44dc: 00 00 40 b9  	ldr	w0, [x0]
    44e0: e1 23 03 91  	add	x1, sp, #200
    44e4: 02 10 80 52  	mov	w2, #128
    44e8: 00 00 00 94  	bl	0x44e8 <load_program+0x3f8>
    44ec: e3 03 00 aa  	mov	x3, x0
    44f0: 22 1b 40 f9  	ldr	x2, [x25, #48]
    44f4: 01 00 00 90  	adrp	x1, 0x4000 <load_program+0x404>
    44f8: 00 00 80 52  	mov	w0, #0
    44fc: 21 00 00 91  	add	x1, x1, #0
    4500: 00 00 00 94  	bl	0x4500 <load_program+0x410>
    4504: c4 ff ff 17  	b	0x4414 <load_program+0x324>
    4508: b4 50 40 f9  	ldr	x20, [x5, #160]
    450c: 3d ff ff 17  	b	0x4200 <load_program+0x110>
    4510: b3 02 80 12  	mov	w19, #-22
    4514: 96 ff ff 17  	b	0x436c <load_program+0x27c>
    4518: 23 07 40 f9  	ldr	x3, [x25, #8]
    451c: 01 00 00 90  	adrp	x1, 0x4000 <load_program+0x42c>
    4520: 22 1b 40 f9  	ldr	x2, [x25, #48]
    4524: 21 00 00 91  	add	x1, x1, #0
    4528: 00 00 80 52  	mov	w0, #0
    452c: b3 02 80 12  	mov	w19, #-22
    4530: 00 00 00 94  	bl	0x4530 <load_program+0x440>
    4534: 8e ff ff 17  	b	0x436c <load_program+0x27c>
    4538: 73 01 80 12  	mov	w19, #-12
    453c: f7 63 43 a9  	ldp	x23, x24, [sp, #48]
    4540: 8b ff ff 17  	b	0x436c <load_program+0x27c>
    4544: a0 02 80 12  	mov	w0, #-22
    4548: b6 f1 ff 97  	bl	0xc20 <libbpf_err.part.0>
    454c: a1 02 80 12  	mov	w1, #-22
    4550: ad ff ff 17  	b	0x4404 <load_program+0x314>
    4554: f7 63 03 a9  	stp	x23, x24, [sp, #48]
    4558: 00 00 00 94  	bl	0x4558 <load_program+0x468>
    455c: 1f 20 03 d5  	nop

0000000000004560 <load_module_btfs>:
    4560: fd 7b b3 a9  	stp	x29, x30, [sp, #-208]!
    4564: 01 00 00 90  	adrp	x1, 0x4000 <load_module_btfs+0x4>
    4568: fd 03 00 91  	mov	x29, sp
    456c: 21 00 40 f9  	ldr	x1, [x1]
    4570: f3 53 01 a9  	stp	x19, x20, [sp, #16]
    4574: f3 03 00 aa  	mov	x19, x0
    4578: 00 c0 46 39  	ldrb	w0, [x0, #432]
    457c: 22 00 40 f9  	ldr	x2, [x1]
    4580: e2 67 00 f9  	str	x2, [sp, #200]
    4584: 02 00 80 d2  	mov	x2, #0
    4588: ff 63 00 b9  	str	wzr, [sp, #96]
    458c: 60 00 00 35  	cbnz	w0, 0x4598 <load_module_btfs+0x38>
    4590: 60 52 40 f9  	ldr	x0, [x19, #160]
    4594: a0 01 00 b4  	cbz	x0, 0x45c8 <load_module_btfs+0x68>
    4598: 14 00 80 52  	mov	w20, #0
    459c: 01 00 00 90  	adrp	x1, 0x4000 <load_module_btfs+0x3c>
    45a0: 21 00 40 f9  	ldr	x1, [x1]
    45a4: e0 67 40 f9  	ldr	x0, [sp, #200]
    45a8: 22 00 40 f9  	ldr	x2, [x1]
    45ac: 00 00 02 eb  	subs	x0, x0, x2
    45b0: 02 00 80 d2  	mov	x2, #0
    45b4: c1 12 00 54  	b.ne	0x480c <load_module_btfs+0x2ac>
    45b8: e0 03 14 2a  	mov	w0, w20
    45bc: f3 53 41 a9  	ldp	x19, x20, [sp, #16]
    45c0: fd 7b cd a8  	ldp	x29, x30, [sp], #208
    45c4: c0 03 5f d6  	ret
    45c8: 20 00 80 52  	mov	w0, #1
    45cc: 60 c2 06 39  	strb	w0, [x19, #432]
    45d0: 40 01 80 52  	mov	w0, #10
    45d4: 8b f4 ff 97  	bl	0x1800 <kernel_supports.part.0>
    45d8: 1f 1c 00 72  	tst	w0, #0xff
    45dc: e0 fd ff 54  	b.eq	0x4598 <load_module_btfs+0x38>
    45e0: f9 6b 04 a9  	stp	x25, x26, [sp, #64]
    45e4: da ae 8d d2  	mov	x26, #28022
    45e8: 9a 2d ad f2  	movk	x26, #26988, lsl #16
    45ec: e0 63 40 b9  	ldr	w0, [sp, #96]
    45f0: da ad ce f2  	movk	x26, #30062, lsl #32
    45f4: f5 5b 02 a9  	stp	x21, x22, [sp, #32]
    45f8: f6 83 01 91  	add	x22, sp, #96
    45fc: f5 a3 01 91  	add	x21, sp, #104
    4600: f7 63 03 a9  	stp	x23, x24, [sp, #48]
    4604: f7 23 02 91  	add	x23, sp, #136
    4608: 19 04 80 52  	mov	w25, #32
    460c: 18 08 80 52  	mov	w24, #64
    4610: 1a 0f e0 f2  	movk	x26, #120, lsl #48
    4614: fb 73 05 a9  	stp	x27, x28, [sp, #80]
    4618: e1 03 16 aa  	mov	x1, x22
    461c: 00 00 00 94  	bl	0x461c <load_module_btfs+0xbc>
    4620: 00 02 00 34  	cbz	w0, 0x4660 <load_module_btfs+0x100>
    4624: 00 00 00 94  	bl	0x4624 <load_module_btfs+0xc4>
    4628: 14 00 40 b9  	ldr	w20, [x0]
    462c: 9f 0a 00 71  	cmp	w20, #2
    4630: e0 0c 00 54  	b.eq	0x47cc <load_module_btfs+0x26c>
    4634: f4 03 14 4b  	neg	w20, w20
    4638: 01 00 00 90  	adrp	x1, 0x4000 <load_module_btfs+0xd8>
    463c: e2 03 14 2a  	mov	w2, w20
    4640: 21 00 00 91  	add	x1, x1, #0
    4644: 00 00 80 52  	mov	w0, #0
    4648: 00 00 00 94  	bl	0x4648 <load_module_btfs+0xe8>
    464c: f5 5b 42 a9  	ldp	x21, x22, [sp, #32]
    4650: f7 63 43 a9  	ldp	x23, x24, [sp, #48]
    4654: f9 6b 44 a9  	ldp	x25, x26, [sp, #64]
    4658: fb 73 45 a9  	ldp	x27, x28, [sp, #80]
    465c: d0 ff ff 17  	b	0x459c <load_module_btfs+0x3c>
    4660: e0 63 40 b9  	ldr	w0, [sp, #96]
    4664: 00 00 00 94  	bl	0x4664 <load_module_btfs+0x104>
    4668: fb 03 00 2a  	mov	w27, w0
    466c: 40 02 f8 36  	tbz	w0, #31, 0x46b4 <load_module_btfs+0x154>
    4670: 00 00 00 94  	bl	0x4670 <load_module_btfs+0x110>
    4674: 14 00 40 b9  	ldr	w20, [x0]
    4678: e0 63 40 b9  	ldr	w0, [sp, #96]
    467c: 9f 0a 00 71  	cmp	w20, #2
    4680: c0 fc ff 54  	b.eq	0x4618 <load_module_btfs+0xb8>
    4684: f4 03 14 4b  	neg	w20, w20
    4688: e2 03 00 2a  	mov	w2, w0
    468c: e3 03 14 2a  	mov	w3, w20
    4690: 01 00 00 90  	adrp	x1, 0x4000 <load_module_btfs+0x130>
    4694: 00 00 80 52  	mov	w0, #0
    4698: 21 00 00 91  	add	x1, x1, #0
    469c: 00 00 00 94  	bl	0x469c <load_module_btfs+0x13c>
    46a0: f5 5b 42 a9  	ldp	x21, x22, [sp, #32]
    46a4: f7 63 43 a9  	ldp	x23, x24, [sp, #48]
    46a8: f9 6b 44 a9  	ldp	x25, x26, [sp, #64]
    46ac: fb 73 45 a9  	ldp	x27, x28, [sp, #80]
    46b0: bb ff ff 17  	b	0x459c <load_module_btfs+0x3c>
    46b4: bf 7e 01 a9  	stp	xzr, xzr, [x21, #16]
    46b8: e2 93 01 91  	add	x2, sp, #100
    46bc: e1 03 15 aa  	mov	x1, x21
    46c0: f7 3f 00 f9  	str	x23, [sp, #120]
    46c4: f8 83 00 b9  	str	w24, [sp, #128]
    46c8: bf 7e 00 a9  	stp	xzr, xzr, [x21]
    46cc: f9 67 00 b9  	str	w25, [sp, #100]
    46d0: 00 00 00 94  	bl	0x46d0 <load_module_btfs+0x170>
    46d4: 60 08 00 35  	cbnz	w0, 0x47e0 <load_module_btfs+0x280>
    46d8: e0 87 40 b9  	ldr	w0, [sp, #132]
    46dc: 40 04 00 34  	cbz	w0, 0x4764 <load_module_btfs+0x204>
    46e0: e0 02 40 f9  	ldr	x0, [x23]
    46e4: 1f 00 1a eb  	cmp	x0, x26
    46e8: e0 03 00 54  	b.eq	0x4764 <load_module_btfs+0x204>
    46ec: 61 ca 40 f9  	ldr	x1, [x19, #400]
    46f0: e0 03 1b 2a  	mov	w0, w27
    46f4: 00 00 00 94  	bl	0x46f4 <load_module_btfs+0x194>
    46f8: fc 03 00 aa  	mov	x28, x0
    46fc: 20 06 00 b4  	cbz	x0, 0x47c0 <load_module_btfs+0x260>
    4700: 1f 04 40 b1  	cmn	x0, #1, lsl #12         // =4096
    4704: 88 03 00 54  	b.hi	0x4774 <load_module_btfs+0x214>
    4708: 63 de 40 f9  	ldr	x3, [x19, #440]
    470c: 61 02 07 91  	add	x1, x19, #448
    4710: 60 a2 06 91  	add	x0, x19, #424
    4714: 02 03 80 d2  	mov	x2, #24
    4718: 63 04 00 91  	add	x3, x3, #1
    471c: 00 00 00 94  	bl	0x471c <load_module_btfs+0x1bc>
    4720: f4 03 00 2a  	mov	w20, w0
    4724: 00 04 00 35  	cbnz	w0, 0x47a4 <load_module_btfs+0x244>
    4728: 61 de 40 f9  	ldr	x1, [x19, #440]
    472c: e0 03 17 aa  	mov	x0, x23
    4730: 62 d6 40 f9  	ldr	x2, [x19, #424]
    4734: 23 04 00 91  	add	x3, x1, #1
    4738: 21 04 01 8b  	add	x1, x1, x1, lsl #1
    473c: 63 de 00 f9  	str	x3, [x19, #440]
    4740: e3 63 40 b9  	ldr	w3, [sp, #96]
    4744: 54 0c 01 8b  	add	x20, x2, x1, lsl #3
    4748: 5c 78 21 f8  	str	x28, [x2, x1, lsl #3]
    474c: 83 6e 02 29  	stp	w3, w27, [x20, #16]
    4750: 00 00 00 94  	bl	0x4750 <load_module_btfs+0x1f0>
    4754: 80 06 00 f9  	str	x0, [x20, #8]
    4758: 40 06 00 b4  	cbz	x0, 0x4820 <load_module_btfs+0x2c0>
    475c: e0 63 40 b9  	ldr	w0, [sp, #96]
    4760: ae ff ff 17  	b	0x4618 <load_module_btfs+0xb8>
    4764: e0 03 1b 2a  	mov	w0, w27
    4768: 00 00 00 94  	bl	0x4768 <load_module_btfs+0x208>
    476c: e0 63 40 b9  	ldr	w0, [sp, #96]
    4770: aa ff ff 17  	b	0x4618 <load_module_btfs+0xb8>
    4774: f4 03 1c 4b  	neg	w20, w28
    4778: 00 00 00 94  	bl	0x4778 <load_module_btfs+0x218>
    477c: 14 00 00 b9  	str	w20, [x0]
    4780: 54 fc ff 34  	cbz	w20, 0x4708 <load_module_btfs+0x1a8>
    4784: e3 63 40 b9  	ldr	w3, [sp, #96]
    4788: f4 03 14 4b  	neg	w20, w20
    478c: 01 00 00 90  	adrp	x1, 0x4000 <load_module_btfs+0x22c>
    4790: e2 03 17 aa  	mov	x2, x23
    4794: e4 03 14 2a  	mov	w4, w20
    4798: 21 00 00 91  	add	x1, x1, #0
    479c: 00 00 80 52  	mov	w0, #0
    47a0: 00 00 00 94  	bl	0x47a0 <load_module_btfs+0x240>
    47a4: e0 03 1b 2a  	mov	w0, w27
    47a8: 00 00 00 94  	bl	0x47a8 <load_module_btfs+0x248>
    47ac: f5 5b 42 a9  	ldp	x21, x22, [sp, #32]
    47b0: f7 63 43 a9  	ldp	x23, x24, [sp, #48]
    47b4: f9 6b 44 a9  	ldp	x25, x26, [sp, #64]
    47b8: fb 73 45 a9  	ldp	x27, x28, [sp, #80]
    47bc: 78 ff ff 17  	b	0x459c <load_module_btfs+0x3c>
    47c0: 00 00 00 94  	bl	0x47c0 <load_module_btfs+0x260>
    47c4: 14 00 40 b9  	ldr	w20, [x0]
    47c8: ee ff ff 17  	b	0x4780 <load_module_btfs+0x220>
    47cc: f5 5b 42 a9  	ldp	x21, x22, [sp, #32]
    47d0: f7 63 43 a9  	ldp	x23, x24, [sp, #48]
    47d4: f9 6b 44 a9  	ldp	x25, x26, [sp, #64]
    47d8: fb 73 45 a9  	ldp	x27, x28, [sp, #80]
    47dc: 6f ff ff 17  	b	0x4598 <load_module_btfs+0x38>
    47e0: 00 00 00 94  	bl	0x47e0 <load_module_btfs+0x280>
    47e4: e3 03 00 aa  	mov	x3, x0
    47e8: e2 63 40 b9  	ldr	w2, [sp, #96]
    47ec: 01 00 00 90  	adrp	x1, 0x4000 <load_module_btfs+0x28c>
    47f0: 00 00 80 52  	mov	w0, #0
    47f4: 21 00 00 91  	add	x1, x1, #0
    47f8: 74 00 40 b9  	ldr	w20, [x3]
    47fc: f4 03 14 4b  	neg	w20, w20
    4800: e3 03 14 2a  	mov	w3, w20
    4804: 00 00 00 94  	bl	0x4804 <load_module_btfs+0x2a4>
    4808: e7 ff ff 17  	b	0x47a4 <load_module_btfs+0x244>
    480c: f5 5b 02 a9  	stp	x21, x22, [sp, #32]
    4810: f7 63 03 a9  	stp	x23, x24, [sp, #48]
    4814: f9 6b 04 a9  	stp	x25, x26, [sp, #64]
    4818: fb 73 05 a9  	stp	x27, x28, [sp, #80]
    481c: 00 00 00 94  	bl	0x481c <load_module_btfs+0x2bc>
    4820: 74 01 80 12  	mov	w20, #-12
    4824: e0 ff ff 17  	b	0x47a4 <load_module_btfs+0x244>
    4828: 1f 20 03 d5  	nop
    482c: 1f 20 03 d5  	nop

0000000000004830 <find_kernel_btf_id>:
    4830: fd 7b af a9  	stp	x29, x30, [sp, #-272]!
    4834: 05 00 00 90  	adrp	x5, 0x4000 <find_kernel_btf_id+0x4>
    4838: fd 03 00 91  	mov	x29, sp
    483c: a5 00 40 f9  	ldr	x5, [x5]
    4840: f3 53 01 a9  	stp	x19, x20, [sp, #16]
    4844: f4 03 00 aa  	mov	x20, x0
    4848: f5 5b 02 a9  	stp	x21, x22, [sp, #32]
    484c: f3 03 02 2a  	mov	w19, w2
    4850: f5 03 01 aa  	mov	x21, x1
    4854: f7 63 03 a9  	stp	x23, x24, [sp, #48]
    4858: f6 03 04 aa  	mov	x22, x4
    485c: f7 03 03 aa  	mov	x23, x3
    4860: f9 6b 04 a9  	stp	x25, x26, [sp, #64]
    4864: fb 73 05 a9  	stp	x27, x28, [sp, #80]
    4868: a0 00 40 f9  	ldr	x0, [x5]
    486c: e0 87 00 f9  	str	x0, [sp, #264]
    4870: 00 00 80 d2  	mov	x0, #0
    4874: 9a ca 40 f9  	ldr	x26, [x20, #400]
    4878: 5f 6c 00 71  	cmp	w2, #27
    487c: a0 06 00 54  	b.eq	0x4950 <find_kernel_btf_id+0x120>
    4880: 5f 70 00 71  	cmp	w2, #28
    4884: e0 05 00 54  	b.eq	0x4940 <find_kernel_btf_id+0x110>
    4888: 5f 5c 00 71  	cmp	w2, #23
    488c: 20 05 00 54  	b.eq	0x4930 <find_kernel_btf_id+0x100>
    4890: 05 00 00 90  	adrp	x5, 0x4000 <find_kernel_btf_id+0x60>
    4894: a5 00 00 91  	add	x5, x5, #0
    4898: 99 01 80 52  	mov	w25, #12
    489c: fc 23 02 91  	add	x28, sp, #136
    48a0: 18 00 00 90  	adrp	x24, 0x4000 <find_kernel_btf_id+0x70>
    48a4: 03 10 80 d2  	mov	x3, #128
    48a8: e0 03 1c aa  	mov	x0, x28
    48ac: 04 03 00 91  	add	x4, x24, #0
    48b0: e1 03 03 aa  	mov	x1, x3
    48b4: e6 03 15 aa  	mov	x6, x21
    48b8: 22 00 80 52  	mov	w2, #1
    48bc: 00 00 00 94  	bl	0x48bc <find_kernel_btf_id+0x8c>
    48c0: 1f fc 01 71  	cmp	w0, #127
    48c4: a8 0c 00 54  	b.hi	0x4a58 <find_kernel_btf_id+0x228>
    48c8: e2 03 19 2a  	mov	w2, w25
    48cc: e0 03 1a aa  	mov	x0, x26
    48d0: e1 03 1c aa  	mov	x1, x28
    48d4: 00 00 00 94  	bl	0x48d4 <find_kernel_btf_id+0xa4>
    48d8: 1f 00 00 71  	cmp	w0, #0
    48dc: 2c 02 00 54  	b.gt	0x4920 <find_kernel_btf_id+0xf0>
    48e0: 1f 08 00 31  	cmn	w0, #2
    48e4: e0 03 00 54  	b.eq	0x4960 <find_kernel_btf_id+0x130>
    48e8: 01 00 00 90  	adrp	x1, 0x4000 <find_kernel_btf_id+0xb8>
    48ec: 21 00 40 f9  	ldr	x1, [x1]
    48f0: e3 87 40 f9  	ldr	x3, [sp, #264]
    48f4: 22 00 40 f9  	ldr	x2, [x1]
    48f8: 63 00 02 eb  	subs	x3, x3, x2
    48fc: 02 00 80 d2  	mov	x2, #0
    4900: c1 0b 00 54  	b.ne	0x4a78 <find_kernel_btf_id+0x248>
    4904: f3 53 41 a9  	ldp	x19, x20, [sp, #16]
    4908: f5 5b 42 a9  	ldp	x21, x22, [sp, #32]
    490c: f7 63 43 a9  	ldp	x23, x24, [sp, #48]
    4910: f9 6b 44 a9  	ldp	x25, x26, [sp, #64]
    4914: fb 73 45 a9  	ldp	x27, x28, [sp, #80]
    4918: fd 7b d1 a8  	ldp	x29, x30, [sp], #272
    491c: c0 03 5f d6  	ret
    4920: ff 02 00 b9  	str	wzr, [x23]
    4924: c0 02 00 b9  	str	w0, [x22]
    4928: 00 00 80 52  	mov	w0, #0
    492c: ef ff ff 17  	b	0x48e8 <find_kernel_btf_id+0xb8>
    4930: 05 00 00 90  	adrp	x5, 0x4000 <find_kernel_btf_id+0x100>
    4934: 19 01 80 52  	mov	w25, #8
    4938: a5 00 00 91  	add	x5, x5, #0
    493c: d8 ff ff 17  	b	0x489c <find_kernel_btf_id+0x6c>
    4940: 05 00 00 90  	adrp	x5, 0x4000 <find_kernel_btf_id+0x110>
    4944: 99 01 80 52  	mov	w25, #12
    4948: a5 00 00 91  	add	x5, x5, #0
    494c: d4 ff ff 17  	b	0x489c <find_kernel_btf_id+0x6c>
    4950: 05 00 00 90  	adrp	x5, 0x4000 <find_kernel_btf_id+0x120>
    4954: 99 01 80 52  	mov	w25, #12
    4958: a5 00 00 91  	add	x5, x5, #0
    495c: d0 ff ff 17  	b	0x489c <find_kernel_btf_id+0x6c>
    4960: e0 03 14 aa  	mov	x0, x20
    4964: ff fe ff 97  	bl	0x4560 <load_module_btfs>
    4968: 00 fc ff 35  	cbnz	w0, 0x48e8 <find_kernel_btf_id+0xb8>
    496c: 80 de 40 f9  	ldr	x0, [x20, #440]
    4970: ff 33 00 f9  	str	xzr, [sp, #96]
    4974: 19 00 80 d2  	mov	x25, #0
    4978: 80 05 00 b4  	cbz	x0, 0x4a28 <find_kernel_btf_id+0x1f8>
    497c: 00 00 00 90  	adrp	x0, 0x4000 <find_kernel_btf_id+0x14c>
    4980: 00 00 00 91  	add	x0, x0, #0
    4984: 1a 00 00 90  	adrp	x26, 0x4000 <find_kernel_btf_id+0x154>
    4988: e0 3b 00 f9  	str	x0, [sp, #112]
    498c: 40 03 00 91  	add	x0, x26, #0
    4990: e0 37 00 f9  	str	x0, [sp, #104]
    4994: 80 d6 40 f9  	ldr	x0, [x20, #424]
    4998: 01 00 19 8b  	add	x1, x0, x25
    499c: e1 3f 00 f9  	str	x1, [sp, #120]
    49a0: 1a 68 79 f8  	ldr	x26, [x0, x25]
    49a4: 7f 6e 00 71  	cmp	w19, #27
    49a8: 20 05 00 54  	b.eq	0x4a4c <find_kernel_btf_id+0x21c>
    49ac: 7f 72 00 71  	cmp	w19, #28
    49b0: 80 04 00 54  	b.eq	0x4a40 <find_kernel_btf_id+0x210>
    49b4: 7f 5e 00 71  	cmp	w19, #23
    49b8: c0 03 00 54  	b.eq	0x4a30 <find_kernel_btf_id+0x200>
    49bc: 05 00 00 90  	adrp	x5, 0x4000 <find_kernel_btf_id+0x18c>
    49c0: a5 00 00 91  	add	x5, x5, #0
    49c4: 9b 01 80 52  	mov	w27, #12
    49c8: 03 10 80 d2  	mov	x3, #128
    49cc: e6 03 15 aa  	mov	x6, x21
    49d0: e1 03 03 aa  	mov	x1, x3
    49d4: 04 03 00 91  	add	x4, x24, #0
    49d8: e0 03 1c aa  	mov	x0, x28
    49dc: 22 00 80 52  	mov	w2, #1
    49e0: 00 00 00 94  	bl	0x49e0 <find_kernel_btf_id+0x1b0>
    49e4: 1f fc 01 71  	cmp	w0, #127
    49e8: 88 03 00 54  	b.hi	0x4a58 <find_kernel_btf_id+0x228>
    49ec: e2 03 1b 2a  	mov	w2, w27
    49f0: e0 03 1a aa  	mov	x0, x26
    49f4: e1 03 1c aa  	mov	x1, x28
    49f8: 00 00 00 94  	bl	0x49f8 <find_kernel_btf_id+0x1c8>
    49fc: 1f 00 00 71  	cmp	w0, #0
    4a00: 0c 03 00 54  	b.gt	0x4a60 <find_kernel_btf_id+0x230>
    4a04: 1f 08 00 31  	cmn	w0, #2
    4a08: 01 f7 ff 54  	b.ne	0x48e8 <find_kernel_btf_id+0xb8>
    4a0c: e1 33 40 f9  	ldr	x1, [sp, #96]
    4a10: 39 63 00 91  	add	x25, x25, #24
    4a14: 80 de 40 f9  	ldr	x0, [x20, #440]
    4a18: 21 04 00 91  	add	x1, x1, #1
    4a1c: e1 33 00 f9  	str	x1, [sp, #96]
    4a20: 1f 00 01 eb  	cmp	x0, x1
    4a24: 88 fb ff 54  	b.hi	0x4994 <find_kernel_btf_id+0x164>
    4a28: 40 00 80 12  	mov	w0, #-3
    4a2c: af ff ff 17  	b	0x48e8 <find_kernel_btf_id+0xb8>
    4a30: 05 00 00 90  	adrp	x5, 0x4000 <find_kernel_btf_id+0x200>
    4a34: 1b 01 80 52  	mov	w27, #8
    4a38: a5 00 00 91  	add	x5, x5, #0
    4a3c: e3 ff ff 17  	b	0x49c8 <find_kernel_btf_id+0x198>
    4a40: 9b 01 80 52  	mov	w27, #12
    4a44: e5 37 40 f9  	ldr	x5, [sp, #104]
    4a48: e0 ff ff 17  	b	0x49c8 <find_kernel_btf_id+0x198>
    4a4c: 9b 01 80 52  	mov	w27, #12
    4a50: e5 3b 40 f9  	ldr	x5, [sp, #112]
    4a54: dd ff ff 17  	b	0x49c8 <find_kernel_btf_id+0x198>
    4a58: 60 04 80 12  	mov	w0, #-36
    4a5c: a3 ff ff 17  	b	0x48e8 <find_kernel_btf_id+0xb8>
    4a60: e1 3f 40 f9  	ldr	x1, [sp, #120]
    4a64: 21 14 40 b9  	ldr	w1, [x1, #20]
    4a68: e1 02 00 b9  	str	w1, [x23]
    4a6c: c0 02 00 b9  	str	w0, [x22]
    4a70: 00 00 80 52  	mov	w0, #0
    4a74: 9d ff ff 17  	b	0x48e8 <find_kernel_btf_id+0xb8>
    4a78: 00 00 00 94  	bl	0x4a78 <find_kernel_btf_id+0x248>
    4a7c: 1f 20 03 d5  	nop

0000000000004a80 <find_ksym_btf_id.constprop.0>:
    4a80: fd 7b ba a9  	stp	x29, x30, [sp, #-96]!
    4a84: fd 03 00 91  	mov	x29, sp
    4a88: f3 53 01 a9  	stp	x19, x20, [sp, #16]
    4a8c: f3 03 00 aa  	mov	x19, x0
    4a90: 14 c8 40 f9  	ldr	x20, [x0, #400]
    4a94: fb 2b 00 f9  	str	x27, [sp, #80]
    4a98: 5b 3c 00 12  	and	w27, w2, #0xffff
    4a9c: f5 5b 02 a9  	stp	x21, x22, [sp, #32]
    4aa0: e0 03 14 aa  	mov	x0, x20
    4aa4: f6 03 01 aa  	mov	x22, x1
    4aa8: e2 03 1b 2a  	mov	w2, w27
    4aac: f7 63 03 a9  	stp	x23, x24, [sp, #48]
    4ab0: f8 03 03 aa  	mov	x24, x3
    4ab4: f7 03 04 aa  	mov	x23, x4
    4ab8: f9 6b 04 a9  	stp	x25, x26, [sp, #64]
    4abc: 19 00 80 52  	mov	w25, #0
    4ac0: 00 00 00 94  	bl	0x4ac0 <find_ksym_btf_id.constprop.0+0x40>
    4ac4: 1f 08 00 31  	cmn	w0, #2
    4ac8: 80 01 00 54  	b.eq	0x4af8 <find_ksym_btf_id.constprop.0+0x78>
    4acc: 1f 00 00 71  	cmp	w0, #0
    4ad0: 2d 04 00 54  	b.le	0x4b54 <find_ksym_btf_id.constprop.0+0xd4>
    4ad4: 14 03 00 f9  	str	x20, [x24]
    4ad8: f9 02 00 b9  	str	w25, [x23]
    4adc: f3 53 41 a9  	ldp	x19, x20, [sp, #16]
    4ae0: f5 5b 42 a9  	ldp	x21, x22, [sp, #32]
    4ae4: f7 63 43 a9  	ldp	x23, x24, [sp, #48]
    4ae8: f9 6b 44 a9  	ldp	x25, x26, [sp, #64]
    4aec: fb 2b 40 f9  	ldr	x27, [sp, #80]
    4af0: fd 7b c6 a8  	ldp	x29, x30, [sp], #96
    4af4: c0 03 5f d6  	ret
    4af8: e0 03 13 aa  	mov	x0, x19
    4afc: 99 fe ff 97  	bl	0x4560 <load_module_btfs>
    4b00: e0 fe ff 35  	cbnz	w0, 0x4adc <find_ksym_btf_id.constprop.0+0x5c>
    4b04: 60 de 40 f9  	ldr	x0, [x19, #440]
    4b08: 15 00 80 d2  	mov	x21, #0
    4b0c: 1a 00 80 d2  	mov	x26, #0
    4b10: 20 02 00 b4  	cbz	x0, 0x4b54 <find_ksym_btf_id.constprop.0+0xd4>
    4b14: 1f 20 03 d5  	nop
    4b18: 60 d6 40 f9  	ldr	x0, [x19, #424]
    4b1c: e2 03 1b 2a  	mov	w2, w27
    4b20: e1 03 16 aa  	mov	x1, x22
    4b24: 5a 07 00 91  	add	x26, x26, #1
    4b28: 03 00 15 8b  	add	x3, x0, x21
    4b2c: 14 68 75 f8  	ldr	x20, [x0, x21]
    4b30: b5 62 00 91  	add	x21, x21, #24
    4b34: 79 14 40 b9  	ldr	w25, [x3, #20]
    4b38: e0 03 14 aa  	mov	x0, x20
    4b3c: 00 00 00 94  	bl	0x4b3c <find_ksym_btf_id.constprop.0+0xbc>
    4b40: 1f 08 00 31  	cmn	w0, #2
    4b44: 41 fc ff 54  	b.ne	0x4acc <find_ksym_btf_id.constprop.0+0x4c>
    4b48: 60 de 40 f9  	ldr	x0, [x19, #440]
    4b4c: 1f 00 1a eb  	cmp	x0, x26
    4b50: 48 fe ff 54  	b.hi	0x4b18 <find_ksym_btf_id.constprop.0+0x98>
    4b54: 40 00 80 12  	mov	w0, #-3
    4b58: e1 ff ff 17  	b	0x4adc <find_ksym_btf_id.constprop.0+0x5c>
    4b5c: 1f 20 03 d5  	nop

0000000000004b60 <elf_sec_name>:
    4b60: fd 7b b8 a9  	stp	x29, x30, [sp, #-128]!
    4b64: 02 00 00 90  	adrp	x2, 0x4000 <elf_sec_name+0x4>
    4b68: fd 03 00 91  	mov	x29, sp
    4b6c: 42 00 40 f9  	ldr	x2, [x2]
    4b70: f5 5b 02 a9  	stp	x21, x22, [sp, #32]
    4b74: 43 00 40 f9  	ldr	x3, [x2]
    4b78: e3 3f 00 f9  	str	x3, [sp, #120]
    4b7c: 03 00 80 d2  	mov	x3, #0
    4b80: 61 03 00 b4  	cbz	x1, 0x4bec <elf_sec_name+0x8c>
    4b84: e2 e3 00 91  	add	x2, sp, #56
    4b88: f3 53 01 a9  	stp	x19, x20, [sp, #16]
    4b8c: f3 03 00 aa  	mov	x19, x0
    4b90: f4 03 01 aa  	mov	x20, x1
    4b94: 73 f2 ff 97  	bl	0x1560 <elf_sec_hdr>
    4b98: 80 02 00 35  	cbnz	w0, 0x4be8 <elf_sec_name+0x88>
    4b9c: 60 62 40 f9  	ldr	x0, [x19, #192]
    4ba0: 61 9a 40 f9  	ldr	x1, [x19, #304]
    4ba4: f6 3b 40 b9  	ldr	w22, [sp, #56]
    4ba8: e2 03 16 aa  	mov	x2, x22
    4bac: 00 00 00 94  	bl	0x4bac <elf_sec_name+0x4c>
    4bb0: f5 03 00 aa  	mov	x21, x0
    4bb4: 00 02 00 b4  	cbz	x0, 0x4bf4 <elf_sec_name+0x94>
    4bb8: f3 53 41 a9  	ldp	x19, x20, [sp, #16]
    4bbc: 01 00 00 90  	adrp	x1, 0x4000 <elf_sec_name+0x5c>
    4bc0: 21 00 40 f9  	ldr	x1, [x1]
    4bc4: e0 3f 40 f9  	ldr	x0, [sp, #120]
    4bc8: 22 00 40 f9  	ldr	x2, [x1]
    4bcc: 00 00 02 eb  	subs	x0, x0, x2
    4bd0: 02 00 80 d2  	mov	x2, #0
    4bd4: 01 04 00 54  	b.ne	0x4c54 <elf_sec_name+0xf4>
    4bd8: e0 03 15 aa  	mov	x0, x21
    4bdc: f5 5b 42 a9  	ldp	x21, x22, [sp, #32]
    4be0: fd 7b c8 a8  	ldp	x29, x30, [sp], #128
    4be4: c0 03 5f d6  	ret
    4be8: f3 53 41 a9  	ldp	x19, x20, [sp, #16]
    4bec: 15 00 80 d2  	mov	x21, #0
    4bf0: f3 ff ff 17  	b	0x4bbc <elf_sec_name+0x5c>
    4bf4: 73 62 07 91  	add	x19, x19, #472
    4bf8: 00 00 80 12  	mov	w0, #-1
    4bfc: 00 00 00 94  	bl	0x4bfc <elf_sec_name+0x9c>
    4c00: e4 03 00 aa  	mov	x4, x0
    4c04: e3 03 13 aa  	mov	x3, x19
    4c08: e2 03 16 aa  	mov	x2, x22
    4c0c: 01 00 00 90  	adrp	x1, 0x4000 <elf_sec_name+0xac>
    4c10: 21 00 00 91  	add	x1, x1, #0
    4c14: 00 00 80 52  	mov	w0, #0
    4c18: 00 00 00 94  	bl	0x4c18 <elf_sec_name+0xb8>
    4c1c: e0 03 14 aa  	mov	x0, x20
    4c20: 00 00 00 94  	bl	0x4c20 <elf_sec_name+0xc0>
    4c24: f4 03 00 aa  	mov	x20, x0
    4c28: 00 00 80 12  	mov	w0, #-1
    4c2c: 00 00 00 94  	bl	0x4c2c <elf_sec_name+0xcc>
    4c30: e2 03 14 aa  	mov	x2, x20
    4c34: e3 03 13 aa  	mov	x3, x19
    4c38: e4 03 00 aa  	mov	x4, x0
    4c3c: 01 00 00 90  	adrp	x1, 0x4000 <elf_sec_name+0xdc>
    4c40: 00 00 80 52  	mov	w0, #0
    4c44: 21 00 00 91  	add	x1, x1, #0
    4c48: 00 00 00 94  	bl	0x4c48 <elf_sec_name+0xe8>
    4c4c: f3 53 41 a9  	ldp	x19, x20, [sp, #16]
    4c50: db ff ff 17  	b	0x4bbc <elf_sec_name+0x5c>
    4c54: f3 53 01 a9  	stp	x19, x20, [sp, #16]
    4c58: 00 00 00 94  	bl	0x4c58 <elf_sec_name+0xf8>
    4c5c: 1f 20 03 d5  	nop

0000000000004c60 <elf_sec_data>:
    4c60: fd 7b bd a9  	stp	x29, x30, [sp, #-48]!
    4c64: fd 03 00 91  	mov	x29, sp
    4c68: f3 53 01 a9  	stp	x19, x20, [sp, #16]
    4c6c: c1 01 00 b4  	cbz	x1, 0x4ca4 <elf_sec_data+0x44>
    4c70: f3 03 01 aa  	mov	x19, x1
    4c74: 01 00 80 d2  	mov	x1, #0
    4c78: f5 5b 02 a9  	stp	x21, x22, [sp, #32]
    4c7c: f5 03 00 aa  	mov	x21, x0
    4c80: e0 03 13 aa  	mov	x0, x19
    4c84: 00 00 00 94  	bl	0x4c84 <elf_sec_data+0x24>
    4c88: f4 03 00 aa  	mov	x20, x0
    4c8c: 60 01 00 b4  	cbz	x0, 0x4cb8 <elf_sec_data+0x58>
    4c90: f5 5b 42 a9  	ldp	x21, x22, [sp, #32]
    4c94: e0 03 14 aa  	mov	x0, x20
    4c98: f3 53 41 a9  	ldp	x19, x20, [sp, #16]
    4c9c: fd 7b c3 a8  	ldp	x29, x30, [sp], #48
    4ca0: c0 03 5f d6  	ret
    4ca4: 14 00 80 d2  	mov	x20, #0
    4ca8: e0 03 14 aa  	mov	x0, x20
    4cac: f3 53 41 a9  	ldp	x19, x20, [sp, #16]
    4cb0: fd 7b c3 a8  	ldp	x29, x30, [sp], #48
    4cb4: c0 03 5f d6  	ret
    4cb8: e0 03 13 aa  	mov	x0, x19
    4cbc: 00 00 00 94  	bl	0x4cbc <elf_sec_data+0x5c>
    4cc0: e1 03 13 aa  	mov	x1, x19
    4cc4: f6 03 00 aa  	mov	x22, x0
    4cc8: e0 03 15 aa  	mov	x0, x21
    4ccc: a5 ff ff 97  	bl	0x4b60 <elf_sec_name>
    4cd0: f3 03 00 aa  	mov	x19, x0
    4cd4: 00 00 00 90  	adrp	x0, 0x4000 <elf_sec_data+0x74>
    4cd8: 7f 02 00 f1  	cmp	x19, #0
    4cdc: 00 00 00 91  	add	x0, x0, #0
    4ce0: 13 00 93 9a  	csel	x19, x0, x19, eq
    4ce4: 00 00 80 12  	mov	w0, #-1
    4ce8: 00 00 00 94  	bl	0x4ce8 <elf_sec_data+0x88>
    4cec: e5 03 00 aa  	mov	x5, x0
    4cf0: e2 03 16 aa  	mov	x2, x22
    4cf4: a4 62 07 91  	add	x4, x21, #472
    4cf8: e3 03 13 aa  	mov	x3, x19
    4cfc: 01 00 00 90  	adrp	x1, 0x4000 <elf_sec_data+0x9c>
    4d00: 00 00 80 52  	mov	w0, #0
    4d04: 21 00 00 91  	add	x1, x1, #0
    4d08: 00 00 00 94  	bl	0x4d08 <elf_sec_data+0xa8>
    4d0c: f5 5b 42 a9  	ldp	x21, x22, [sp, #32]
    4d10: e1 ff ff 17  	b	0x4c94 <elf_sec_data+0x34>

0000000000004d14 <bpf_object__init_user_maps>:
    4d14: fd 7b b5 a9  	stp	x29, x30, [sp, #-176]!
    4d18: 02 00 00 90  	adrp	x2, 0x4000 <bpf_object__init_user_maps+0x4>
    4d1c: fd 03 00 91  	mov	x29, sp
    4d20: f5 5b 02 a9  	stp	x21, x22, [sp, #32]
    4d24: f5 03 00 aa  	mov	x21, x0
    4d28: 20 1c 00 12  	and	w0, w1, #0xff
    4d2c: 42 00 40 f9  	ldr	x2, [x2]
    4d30: f7 63 03 a9  	stp	x23, x24, [sp, #48]
    4d34: a1 4e 41 b9  	ldr	w1, [x21, #332]
    4d38: e0 83 00 b9  	str	w0, [sp, #128]
    4d3c: b8 86 40 f9  	ldr	x24, [x21, #264]
    4d40: 40 00 40 f9  	ldr	x0, [x2]
    4d44: e0 57 00 f9  	str	x0, [sp, #168]
    4d48: 00 00 80 d2  	mov	x0, #0
    4d4c: 81 11 f8 37  	tbnz	w1, #31, 0x4f7c <bpf_object__init_user_maps+0x268>
    4d50: 18 21 00 b4  	cbz	x24, 0x5170 <bpf_object__init_user_maps+0x45c>
    4d54: a0 62 40 f9  	ldr	x0, [x21, #192]
    4d58: f3 53 01 a9  	stp	x19, x20, [sp, #16]
    4d5c: 33 7c 40 93  	sxtw	x19, w1
    4d60: e1 03 13 aa  	mov	x1, x19
    4d64: fb 73 05 a9  	stp	x27, x28, [sp, #80]
    4d68: 00 00 00 94  	bl	0x4d68 <bpf_object__init_user_maps+0x54>
    4d6c: bc 62 07 91  	add	x28, x21, #472
    4d70: e1 03 00 aa  	mov	x1, x0
    4d74: 00 1b 00 b4  	cbz	x0, 0x50d4 <bpf_object__init_user_maps+0x3c0>
    4d78: e0 03 15 aa  	mov	x0, x21
    4d7c: b9 ff ff 97  	bl	0x4c60 <elf_sec_data>
    4d80: fb 03 00 aa  	mov	x27, x0
    4d84: 00 1c 00 b4  	cbz	x0, 0x5104 <bpf_object__init_user_maps+0x3f0>
    4d88: 00 0b 40 f9  	ldr	x0, [x24, #16]
    4d8c: e1 f3 01 b2  	mov	x1, #-6148914691236517206
    4d90: 61 55 95 f2  	movk	x1, #43691
    4d94: 00 7c c1 9b  	umulh	x0, x0, x1
    4d98: 00 fc 44 d3  	lsr	x0, x0, #4
    4d9c: f6 03 00 2a  	mov	w22, w0
    4da0: 1f 00 00 71  	cmp	w0, #0
    4da4: 2d 1c 00 54  	b.le	0x5128 <bpf_object__init_user_maps+0x414>
    4da8: 13 00 80 52  	mov	w19, #0
    4dac: 14 00 80 52  	mov	w20, #0
    4db0: f9 6b 04 a9  	stp	x25, x26, [sp, #64]
    4db4: fa 43 02 91  	add	x26, sp, #144
    4db8: 02 00 00 14  	b	0x4dc0 <bpf_object__init_user_maps+0xac>
    4dbc: f4 03 00 2a  	mov	w20, w0
    4dc0: e2 03 1a aa  	mov	x2, x26
    4dc4: e1 03 14 2a  	mov	w1, w20
    4dc8: e0 03 18 aa  	mov	x0, x24
    4dcc: 00 00 00 94  	bl	0x4dcc <bpf_object__init_user_maps+0xb8>
    4dd0: a0 00 00 b4  	cbz	x0, 0x4de4 <bpf_object__init_user_maps+0xd0>
    4dd4: e1 2f 41 79  	ldrh	w1, [sp, #150]
    4dd8: a0 4e 41 b9  	ldr	w0, [x21, #332]
    4ddc: 3f 00 00 6b  	cmp	w1, w0
    4de0: 73 16 93 1a  	cinc	w19, w19, eq
    4de4: 80 06 00 11  	add	w0, w20, #1
    4de8: df 02 00 6b  	cmp	w22, w0
    4dec: 81 fe ff 54  	b.ne	0x4dbc <bpf_object__init_user_maps+0xa8>
    4df0: 63 0b 40 f9  	ldr	x3, [x27, #16]
    4df4: 40 00 80 52  	mov	w0, #2
    4df8: e4 03 1c aa  	mov	x4, x28
    4dfc: e2 03 13 2a  	mov	w2, w19
    4e00: 01 00 00 90  	adrp	x1, 0x4000 <bpf_object__init_user_maps+0xec>
    4e04: 21 00 00 91  	add	x1, x1, #0
    4e08: 00 00 00 94  	bl	0x4e08 <bpf_object__init_user_maps+0xf4>
    4e0c: 60 0b 40 f9  	ldr	x0, [x27, #16]
    4e10: 7f 02 00 71  	cmp	w19, #0
    4e14: 04 18 40 fa  	ccmp	x0, #0, #4, ne
    4e18: 80 1a 00 54  	b.eq	0x5168 <bpf_object__init_user_maps+0x454>
    4e1c: 73 7e 40 93  	sxtw	x19, w19
    4e20: 01 08 d3 9a  	udiv	x1, x0, x19
    4e24: 33 80 13 9b  	msub	x19, x1, x19, x0
    4e28: e1 3f 00 f9  	str	x1, [sp, #120]
    4e2c: f3 19 00 b5  	cbnz	x19, 0x5168 <bpf_object__init_user_maps+0x454>
    4e30: 00 00 00 90  	adrp	x0, 0x4000 <bpf_object__init_user_maps+0x11c>
    4e34: 00 00 00 91  	add	x0, x0, #0
    4e38: e0 3b 00 f9  	str	x0, [sp, #112]
    4e3c: 01 00 00 90  	adrp	x1, 0x4000 <bpf_object__init_user_maps+0x128>
    4e40: e0 7b 40 b9  	ldr	w0, [sp, #120]
    4e44: 21 00 00 91  	add	x1, x1, #0
    4e48: 13 00 80 52  	mov	w19, #0
    4e4c: e0 87 00 b9  	str	w0, [sp, #132]
    4e50: e1 47 00 f9  	str	x1, [sp, #136]
    4e54: 05 00 00 14  	b	0x4e68 <bpf_object__init_user_maps+0x154>
    4e58: 60 06 00 11  	add	w0, w19, #1
    4e5c: 9f 02 13 6b  	cmp	w20, w19
    4e60: 80 08 00 54  	b.eq	0x4f70 <bpf_object__init_user_maps+0x25c>
    4e64: f3 03 00 2a  	mov	w19, w0
    4e68: e2 03 1a aa  	mov	x2, x26
    4e6c: e1 03 13 2a  	mov	w1, w19
    4e70: e0 03 18 aa  	mov	x0, x24
    4e74: 00 00 00 94  	bl	0x4e74 <bpf_object__init_user_maps+0x160>
    4e78: 00 ff ff b4  	cbz	x0, 0x4e58 <bpf_object__init_user_maps+0x144>
    4e7c: e1 2f 41 79  	ldrh	w1, [sp, #150]
    4e80: a0 4e 41 b9  	ldr	w0, [x21, #332]
    4e84: 3f 00 00 6b  	cmp	w1, w0
    4e88: 81 fe ff 54  	b.ne	0x4e58 <bpf_object__init_user_maps+0x144>
    4e8c: e0 03 15 aa  	mov	x0, x21
    4e90: 0c f4 ff 97  	bl	0x1ec0 <bpf_object__add_map>
    4e94: f6 03 00 aa  	mov	x22, x0
    4e98: 1f 04 40 b1  	cmn	x0, #1, lsl #12         // =4096
    4e9c: 28 0c 00 54  	b.hi	0x5020 <bpf_object__init_user_maps+0x30c>
    4ea0: a0 62 40 f9  	ldr	x0, [x21, #192]
    4ea4: a1 9e 40 f9  	ldr	x1, [x21, #312]
    4ea8: f7 93 40 b9  	ldr	w23, [sp, #144]
    4eac: e2 03 17 aa  	mov	x2, x23
    4eb0: 00 00 00 94  	bl	0x4eb0 <bpf_object__init_user_maps+0x19c>
    4eb4: f9 03 00 aa  	mov	x25, x0
    4eb8: c0 0b 00 b4  	cbz	x0, 0x5030 <bpf_object__init_user_maps+0x31c>
    4ebc: e0 53 42 39  	ldrb	w0, [sp, #148]
    4ec0: 01 0c 00 12  	and	w1, w0, #0xf
    4ec4: 3f 0c 00 71  	cmp	w1, #3
    4ec8: c0 0d 00 54  	b.eq	0x5080 <bpf_object__init_user_maps+0x36c>
    4ecc: ff 13 40 6b  	cmp	wzr, w0, lsr #4
    4ed0: 80 0d 00 54  	b.eq	0x5080 <bpf_object__init_user_maps+0x36c>
    4ed4: e3 2f 41 79  	ldrh	w3, [sp, #150]
    4ed8: 40 00 80 52  	mov	w0, #2
    4edc: e1 47 40 f9  	ldr	x1, [sp, #136]
    4ee0: e2 03 19 aa  	mov	x2, x25
    4ee4: e4 4f 40 f9  	ldr	x4, [sp, #152]
    4ee8: c3 0e 00 b9  	str	w3, [x22, #12]
    4eec: c4 0a 00 f9  	str	x4, [x22, #16]
    4ef0: df 5a 00 b9  	str	wzr, [x22, #88]
    4ef4: 00 00 00 94  	bl	0x4ef4 <bpf_object__init_user_maps+0x1e0>
    4ef8: f7 87 80 b9  	ldrsw	x23, [sp, #132]
    4efc: e0 4f 40 f9  	ldr	x0, [sp, #152]
    4f00: 61 0b 40 f9  	ldr	x1, [x27, #16]
    4f04: e0 02 00 8b  	add	x0, x23, x0
    4f08: 1f 00 01 eb  	cmp	x0, x1
    4f0c: e8 0c 00 54  	b.hi	0x50a8 <bpf_object__init_user_maps+0x394>
    4f10: e0 03 19 aa  	mov	x0, x25
    4f14: 00 00 00 94  	bl	0x4f14 <bpf_object__init_user_maps+0x200>
    4f18: c0 02 00 f9  	str	x0, [x22]
    4f1c: e3 03 00 aa  	mov	x3, x0
    4f20: c0 12 00 b4  	cbz	x0, 0x5178 <bpf_object__init_user_maps+0x464>
    4f24: 40 00 80 52  	mov	w0, #2
    4f28: e2 03 13 2a  	mov	w2, w19
    4f2c: 01 00 00 90  	adrp	x1, 0x4000 <bpf_object__init_user_maps+0x218>
    4f30: 21 00 00 91  	add	x1, x1, #0
    4f34: 00 00 00 94  	bl	0x4f34 <bpf_object__init_user_maps+0x220>
    4f38: 65 03 40 f9  	ldr	x5, [x27]
    4f3c: e0 4f 40 f9  	ldr	x0, [sp, #152]
    4f40: a5 00 00 8b  	add	x5, x5, x0
    4f44: e0 7b 40 b9  	ldr	w0, [sp, #120]
    4f48: 1f 50 00 71  	cmp	w0, #20
    4f4c: 08 03 00 54  	b.hi	0x4fac <bpf_object__init_user_maps+0x298>
    4f50: e2 03 17 aa  	mov	x2, x23
    4f54: e1 03 05 aa  	mov	x1, x5
    4f58: c0 82 00 91  	add	x0, x22, #32
    4f5c: 00 00 00 94  	bl	0x4f5c <bpf_object__init_user_maps+0x248>
    4f60: 60 06 00 11  	add	w0, w19, #1
    4f64: 9f 02 13 6b  	cmp	w20, w19
    4f68: e1 f7 ff 54  	b.ne	0x4e64 <bpf_object__init_user_maps+0x150>
    4f6c: 1f 20 03 d5  	nop
    4f70: f3 53 41 a9  	ldp	x19, x20, [sp, #16]
    4f74: f9 6b 44 a9  	ldp	x25, x26, [sp, #64]
    4f78: fb 73 45 a9  	ldp	x27, x28, [sp, #80]
    4f7c: 00 00 80 52  	mov	w0, #0
    4f80: 01 00 00 90  	adrp	x1, 0x4000 <bpf_object__init_user_maps+0x26c>
    4f84: 21 00 40 f9  	ldr	x1, [x1]
    4f88: e3 57 40 f9  	ldr	x3, [sp, #168]
    4f8c: 22 00 40 f9  	ldr	x2, [x1]
    4f90: 63 00 02 eb  	subs	x3, x3, x2
    4f94: 02 00 80 d2  	mov	x2, #0
    4f98: 21 10 00 54  	b.ne	0x519c <bpf_object__init_user_maps+0x488>
    4f9c: f5 5b 42 a9  	ldp	x21, x22, [sp, #32]
    4fa0: f7 63 43 a9  	ldp	x23, x24, [sp, #48]
    4fa4: fd 7b cb a8  	ldp	x29, x30, [sp], #176
    4fa8: c0 03 5f d6  	ret
    4fac: a4 00 17 8b  	add	x4, x5, x23
    4fb0: b7 50 00 91  	add	x23, x5, #20
    4fb4: ff 02 04 eb  	cmp	x23, x4
    4fb8: a3 00 00 54  	b.lo	0x4fcc <bpf_object__init_user_maps+0x2b8>
    4fbc: 14 00 00 14  	b	0x500c <bpf_object__init_user_maps+0x2f8>
    4fc0: f7 06 00 91  	add	x23, x23, #1
    4fc4: ff 02 04 eb  	cmp	x23, x4
    4fc8: 20 02 00 54  	b.eq	0x500c <bpf_object__init_user_maps+0x2f8>
    4fcc: e0 02 40 39  	ldrb	w0, [x23]
    4fd0: 80 ff ff 34  	cbz	w0, 0x4fc0 <bpf_object__init_user_maps+0x2ac>
    4fd4: e1 3b 40 f9  	ldr	x1, [sp, #112]
    4fd8: 00 00 80 52  	mov	w0, #0
    4fdc: e3 03 19 aa  	mov	x3, x25
    4fe0: e2 03 1c aa  	mov	x2, x28
    4fe4: e5 13 06 a9  	stp	x5, x4, [sp, #96]
    4fe8: 00 00 00 94  	bl	0x4fe8 <bpf_object__init_user_maps+0x2d4>
    4fec: e0 83 40 b9  	ldr	w0, [sp, #128]
    4ff0: e5 13 46 a9  	ldp	x5, x4, [sp, #96]
    4ff4: 60 fe ff 34  	cbz	w0, 0x4fc0 <bpf_object__init_user_maps+0x2ac>
    4ff8: a0 02 80 12  	mov	w0, #-22
    4ffc: f3 53 41 a9  	ldp	x19, x20, [sp, #16]
    5000: f9 6b 44 a9  	ldp	x25, x26, [sp, #64]
    5004: fb 73 45 a9  	ldp	x27, x28, [sp, #80]
    5008: de ff ff 17  	b	0x4f80 <bpf_object__init_user_maps+0x26c>
    500c: a0 04 40 a9  	ldp	x0, x1, [x5]
    5010: c0 06 02 a9  	stp	x0, x1, [x22, #32]
    5014: a0 10 40 b9  	ldr	w0, [x5, #16]
    5018: c0 32 00 b9  	str	w0, [x22, #48]
    501c: 8f ff ff 17  	b	0x4e58 <bpf_object__init_user_maps+0x144>
    5020: f3 53 41 a9  	ldp	x19, x20, [sp, #16]
    5024: f9 6b 44 a9  	ldp	x25, x26, [sp, #64]
    5028: fb 73 45 a9  	ldp	x27, x28, [sp, #80]
    502c: d5 ff ff 17  	b	0x4f80 <bpf_object__init_user_maps+0x26c>
    5030: 00 00 80 12  	mov	w0, #-1
    5034: 00 00 00 94  	bl	0x5034 <bpf_object__init_user_maps+0x320>
    5038: e4 03 00 aa  	mov	x4, x0
    503c: e3 03 1c aa  	mov	x3, x28
    5040: e2 03 17 aa  	mov	x2, x23
    5044: 00 00 80 52  	mov	w0, #0
    5048: 01 00 00 90  	adrp	x1, 0x5000 <bpf_object__init_user_maps+0x334>
    504c: 21 00 00 91  	add	x1, x1, #0
    5050: 00 00 00 94  	bl	0x5050 <bpf_object__init_user_maps+0x33c>
    5054: e3 03 1c aa  	mov	x3, x28
    5058: e2 03 13 2a  	mov	w2, w19
    505c: 00 00 80 52  	mov	w0, #0
    5060: 01 00 00 90  	adrp	x1, 0x5000 <bpf_object__init_user_maps+0x34c>
    5064: 21 00 00 91  	add	x1, x1, #0
    5068: 00 00 00 94  	bl	0x5068 <bpf_object__init_user_maps+0x354>
    506c: 00 f4 81 12  	mov	w0, #-4001
    5070: f3 53 41 a9  	ldp	x19, x20, [sp, #16]
    5074: f9 6b 44 a9  	ldp	x25, x26, [sp, #64]
    5078: fb 73 45 a9  	ldp	x27, x28, [sp, #80]
    507c: c1 ff ff 17  	b	0x4f80 <bpf_object__init_user_maps+0x26c>
    5080: e2 03 19 aa  	mov	x2, x25
    5084: 00 00 80 52  	mov	w0, #0
    5088: 01 00 00 90  	adrp	x1, 0x5000 <bpf_object__init_user_maps+0x374>
    508c: 21 00 00 91  	add	x1, x1, #0
    5090: 00 00 00 94  	bl	0x5090 <bpf_object__init_user_maps+0x37c>
    5094: c0 0b 80 12  	mov	w0, #-95
    5098: f3 53 41 a9  	ldp	x19, x20, [sp, #16]
    509c: f9 6b 44 a9  	ldp	x25, x26, [sp, #64]
    50a0: fb 73 45 a9  	ldp	x27, x28, [sp, #80]
    50a4: b7 ff ff 17  	b	0x4f80 <bpf_object__init_user_maps+0x26c>
    50a8: e3 03 19 aa  	mov	x3, x25
    50ac: e2 03 1c aa  	mov	x2, x28
    50b0: 00 00 80 52  	mov	w0, #0
    50b4: 01 00 00 90  	adrp	x1, 0x5000 <bpf_object__init_user_maps+0x3a0>
    50b8: 21 00 00 91  	add	x1, x1, #0
    50bc: 00 00 00 94  	bl	0x50bc <bpf_object__init_user_maps+0x3a8>
    50c0: a0 02 80 12  	mov	w0, #-22
    50c4: f3 53 41 a9  	ldp	x19, x20, [sp, #16]
    50c8: f9 6b 44 a9  	ldp	x25, x26, [sp, #64]
    50cc: fb 73 45 a9  	ldp	x27, x28, [sp, #80]
    50d0: ac ff ff 17  	b	0x4f80 <bpf_object__init_user_maps+0x26c>
    50d4: 00 00 80 12  	mov	w0, #-1
    50d8: 00 00 00 94  	bl	0x50d8 <bpf_object__init_user_maps+0x3c4>
    50dc: e2 03 13 aa  	mov	x2, x19
    50e0: e4 03 00 aa  	mov	x4, x0
    50e4: e3 03 1c aa  	mov	x3, x28
    50e8: 00 00 80 52  	mov	w0, #0
    50ec: 01 00 00 90  	adrp	x1, 0x5000 <bpf_object__init_user_maps+0x3d8>
    50f0: 21 00 00 91  	add	x1, x1, #0
    50f4: 00 00 00 94  	bl	0x50f4 <bpf_object__init_user_maps+0x3e0>
    50f8: e0 03 15 aa  	mov	x0, x21
    50fc: 01 00 80 d2  	mov	x1, #0
    5100: d8 fe ff 97  	bl	0x4c60 <elf_sec_data>
    5104: e2 03 1c aa  	mov	x2, x28
    5108: 00 00 80 52  	mov	w0, #0
    510c: 01 00 00 90  	adrp	x1, 0x5000 <bpf_object__init_user_maps+0x3f8>
    5110: 21 00 00 91  	add	x1, x1, #0
    5114: 00 00 00 94  	bl	0x5114 <bpf_object__init_user_maps+0x400>
    5118: a0 02 80 12  	mov	w0, #-22
    511c: f3 53 41 a9  	ldp	x19, x20, [sp, #16]
    5120: fb 73 45 a9  	ldp	x27, x28, [sp, #80]
    5124: 97 ff ff 17  	b	0x4f80 <bpf_object__init_user_maps+0x26c>
    5128: 63 0b 40 f9  	ldr	x3, [x27, #16]
    512c: 01 00 00 90  	adrp	x1, 0x5000 <bpf_object__init_user_maps+0x418>
    5130: e4 03 1c aa  	mov	x4, x28
    5134: 21 00 00 91  	add	x1, x1, #0
    5138: 02 00 80 52  	mov	w2, #0
    513c: 40 00 80 52  	mov	w0, #2
    5140: 00 00 00 94  	bl	0x5140 <bpf_object__init_user_maps+0x42c>
    5144: e2 03 1c aa  	mov	x2, x28
    5148: 00 00 80 52  	mov	w0, #0
    514c: 01 00 00 90  	adrp	x1, 0x5000 <bpf_object__init_user_maps+0x438>
    5150: 21 00 00 91  	add	x1, x1, #0
    5154: 00 00 00 94  	bl	0x5154 <bpf_object__init_user_maps+0x440>
    5158: a0 02 80 12  	mov	w0, #-22
    515c: f3 53 41 a9  	ldp	x19, x20, [sp, #16]
    5160: fb 73 45 a9  	ldp	x27, x28, [sp, #80]
    5164: 87 ff ff 17  	b	0x4f80 <bpf_object__init_user_maps+0x26c>
    5168: f9 6b 44 a9  	ldp	x25, x26, [sp, #64]
    516c: f6 ff ff 17  	b	0x5144 <bpf_object__init_user_maps+0x430>
    5170: a0 02 80 12  	mov	w0, #-22
    5174: 83 ff ff 17  	b	0x4f80 <bpf_object__init_user_maps+0x26c>
    5178: 00 00 80 52  	mov	w0, #0
    517c: 01 00 00 90  	adrp	x1, 0x5000 <bpf_object__init_user_maps+0x468>
    5180: 21 00 00 91  	add	x1, x1, #0
    5184: 00 00 00 94  	bl	0x5184 <bpf_object__init_user_maps+0x470>
    5188: 60 01 80 12  	mov	w0, #-12
    518c: f3 53 41 a9  	ldp	x19, x20, [sp, #16]
    5190: f9 6b 44 a9  	ldp	x25, x26, [sp, #64]
    5194: fb 73 45 a9  	ldp	x27, x28, [sp, #80]
    5198: 7a ff ff 17  	b	0x4f80 <bpf_object__init_user_maps+0x26c>
    519c: f3 53 01 a9  	stp	x19, x20, [sp, #16]
    51a0: f9 6b 04 a9  	stp	x25, x26, [sp, #64]
    51a4: fb 73 05 a9  	stp	x27, x28, [sp, #80]
    51a8: 00 00 00 94  	bl	0x51a8 <bpf_object__init_user_maps+0x494>
    51ac: 1f 20 03 d5  	nop

00000000000051b0 <libbpf_set_strict_mode>:
    51b0: e1 03 00 2a  	mov	w1, w0
    51b4: 1f 04 00 31  	cmn	w0, #1
    51b8: 60 00 00 54  	b.eq	0x51c4 <libbpf_set_strict_mode+0x14>
    51bc: 1f 74 1e 72  	tst	w0, #0xfffffffc
    51c0: a1 00 00 54  	b.ne	0x51d4 <libbpf_set_strict_mode+0x24>
    51c4: 02 00 00 90  	adrp	x2, 0x5000 <libbpf_set_strict_mode+0x14>
    51c8: 00 00 80 52  	mov	w0, #0
    51cc: 41 00 00 b9  	str	w1, [x2]
    51d0: c0 03 5f d6  	ret
    51d4: fd 7b bf a9  	stp	x29, x30, [sp, #-16]!
    51d8: fd 03 00 91  	mov	x29, sp
    51dc: 00 00 00 94  	bl	0x51dc <libbpf_set_strict_mode+0x2c>
    51e0: e1 03 00 aa  	mov	x1, x0
    51e4: c2 02 80 52  	mov	w2, #22
    51e8: a0 02 80 12  	mov	w0, #-22
    51ec: 22 00 00 b9  	str	w2, [x1]
    51f0: fd 7b c1 a8  	ldp	x29, x30, [sp], #16
    51f4: c0 03 5f d6  	ret
    51f8: 1f 20 03 d5  	nop
    51fc: 1f 20 03 d5  	nop

0000000000005200 <bpf_program__unload>:
    5200: 20 06 00 b4  	cbz	x0, 0x52c4 <bpf_program__unload+0xc4>
    5204: fd 7b bd a9  	stp	x29, x30, [sp, #-48]!
    5208: fd 03 00 91  	mov	x29, sp
    520c: 02 60 40 b9  	ldr	w2, [x0, #96]
    5210: f3 53 01 a9  	stp	x19, x20, [sp, #16]
    5214: f4 03 00 aa  	mov	x20, x0
    5218: 5f 00 00 71  	cmp	w2, #0
    521c: 0d 04 00 54  	b.le	0x529c <bpf_program__unload+0x9c>
    5220: 01 34 40 f9  	ldr	x1, [x0, #104]
    5224: 13 00 80 d2  	mov	x19, #0
    5228: f5 5b 02 a9  	stp	x21, x22, [sp, #32]
    522c: 16 00 80 12  	mov	w22, #-1
    5230: 20 78 73 b8  	ldr	w0, [x1, x19, lsl #2]
    5234: 75 f6 7e d3  	lsl	x21, x19, #2
    5238: 73 06 00 91  	add	x19, x19, #1
    523c: 22 00 15 8b  	add	x2, x1, x21
    5240: 80 00 f8 37  	tbnz	w0, #31, 0x5250 <bpf_program__unload+0x50>
    5244: 00 00 00 94  	bl	0x5244 <bpf_program__unload+0x44>
    5248: 81 36 40 f9  	ldr	x1, [x20, #104]
    524c: 22 00 15 8b  	add	x2, x1, x21
    5250: 56 00 00 b9  	str	w22, [x2]
    5254: 80 62 40 b9  	ldr	w0, [x20, #96]
    5258: 1f 00 13 6b  	cmp	w0, w19
    525c: ac fe ff 54  	b.gt	0x5230 <bpf_program__unload+0x30>
    5260: f5 5b 42 a9  	ldp	x21, x22, [sp, #32]
    5264: 00 00 80 12  	mov	w0, #-1
    5268: 80 62 00 b9  	str	w0, [x20, #96]
    526c: e0 03 01 aa  	mov	x0, x1
    5270: 00 00 00 94  	bl	0x5270 <bpf_program__unload+0x70>
    5274: 9f 36 00 f9  	str	xzr, [x20, #104]
    5278: 80 5a 40 f9  	ldr	x0, [x20, #176]
    527c: 00 00 00 94  	bl	0x527c <bpf_program__unload+0x7c>
    5280: 9f 5a 00 f9  	str	xzr, [x20, #176]
    5284: 80 62 40 f9  	ldr	x0, [x20, #192]
    5288: 00 00 00 94  	bl	0x5288 <bpf_program__unload+0x88>
    528c: 9f 62 00 f9  	str	xzr, [x20, #192]
    5290: f3 53 41 a9  	ldp	x19, x20, [sp, #16]
    5294: fd 7b c3 a8  	ldp	x29, x30, [sp], #48
    5298: c0 03 5f d6  	ret
    529c: 5f 04 00 31  	cmn	w2, #1
    52a0: 61 00 00 54  	b.ne	0x52ac <bpf_program__unload+0xac>
    52a4: 81 36 40 f9  	ldr	x1, [x20, #104]
    52a8: ef ff ff 17  	b	0x5264 <bpf_program__unload+0x64>
    52ac: 01 00 00 90  	adrp	x1, 0x5000 <bpf_program__unload+0xac>
    52b0: 00 00 80 52  	mov	w0, #0
    52b4: 21 00 00 91  	add	x1, x1, #0
    52b8: 00 00 00 94  	bl	0x52b8 <bpf_program__unload+0xb8>
    52bc: 81 36 40 f9  	ldr	x1, [x20, #104]
    52c0: e9 ff ff 17  	b	0x5264 <bpf_program__unload+0x64>
    52c4: c0 03 5f d6  	ret
    52c8: 1f 20 03 d5  	nop
    52cc: 1f 20 03 d5  	nop

00000000000052d0 <bpf_program__exit>:
    52d0: 20 04 00 b4  	cbz	x0, 0x5354 <bpf_program__exit+0x84>
    52d4: fd 7b be a9  	stp	x29, x30, [sp, #-32]!
    52d8: fd 03 00 91  	mov	x29, sp
    52dc: 02 44 40 f9  	ldr	x2, [x0, #136]
    52e0: f3 0b 00 f9  	str	x19, [sp, #16]
    52e4: f3 03 00 aa  	mov	x19, x0
    52e8: 62 00 00 b4  	cbz	x2, 0x52f4 <bpf_program__exit+0x24>
    52ec: 01 40 40 f9  	ldr	x1, [x0, #128]
    52f0: 40 00 3f d6  	blr	x2
    52f4: 7f 7e 08 a9  	stp	xzr, xzr, [x19, #128]
    52f8: e0 03 13 aa  	mov	x0, x19
    52fc: 00 00 00 94  	bl	0x52fc <bpf_program__exit+0x2c>
    5300: 60 1a 40 f9  	ldr	x0, [x19, #48]
    5304: 00 00 00 94  	bl	0x5304 <bpf_program__exit+0x34>
    5308: 7f 1a 00 f9  	str	xzr, [x19, #48]
    530c: 60 06 40 f9  	ldr	x0, [x19, #8]
    5310: 00 00 00 94  	bl	0x5310 <bpf_program__exit+0x40>
    5314: 7f 06 00 f9  	str	xzr, [x19, #8]
    5318: 60 1e 40 f9  	ldr	x0, [x19, #56]
    531c: 00 00 00 94  	bl	0x531c <bpf_program__exit+0x4c>
    5320: 7f 1e 00 f9  	str	xzr, [x19, #56]
    5324: 60 22 40 f9  	ldr	x0, [x19, #64]
    5328: 00 00 00 94  	bl	0x5328 <bpf_program__exit+0x58>
    532c: 7f 22 00 f9  	str	xzr, [x19, #64]
    5330: 60 2a 40 f9  	ldr	x0, [x19, #80]
    5334: 00 00 00 94  	bl	0x5334 <bpf_program__exit+0x64>
    5338: 7f fe 04 a9  	stp	xzr, xzr, [x19, #72]
    533c: 00 00 80 92  	mov	x0, #-1
    5340: 60 0a 00 f9  	str	x0, [x19, #16]
    5344: 7f 5a 00 b9  	str	wzr, [x19, #88]
    5348: f3 0b 40 f9  	ldr	x19, [sp, #16]
    534c: fd 7b c2 a8  	ldp	x29, x30, [sp], #32
    5350: c0 03 5f d6  	ret
    5354: c0 03 5f d6  	ret
    5358: 1f 20 03 d5  	nop
    535c: 1f 20 03 d5  	nop

0000000000005360 <bpf_object__section_size>:
    5360: 5f 00 00 b9  	str	wzr, [x2]
    5364: e1 09 00 b4  	cbz	x1, 0x54a0 <bpf_object__section_size+0x140>
    5368: fd 7b bc a9  	stp	x29, x30, [sp, #-64]!
    536c: fd 03 00 91  	mov	x29, sp
    5370: f3 53 01 a9  	stp	x19, x20, [sp, #16]
    5374: f3 03 01 aa  	mov	x19, x1
    5378: f4 03 02 aa  	mov	x20, x2
    537c: 01 00 00 90  	adrp	x1, 0x5000 <bpf_object__section_size+0x1c>
    5380: 21 00 00 91  	add	x1, x1, #0
    5384: f5 5b 02 a9  	stp	x21, x22, [sp, #32]
    5388: f5 03 00 aa  	mov	x21, x0
    538c: e0 03 13 aa  	mov	x0, x19
    5390: 00 00 00 94  	bl	0x5390 <bpf_object__section_size+0x30>
    5394: 80 01 00 35  	cbnz	w0, 0x53c4 <bpf_object__section_size+0x64>
    5398: a1 8a 40 f9  	ldr	x1, [x21, #272]
    539c: 20 00 80 12  	mov	w0, #-2
    53a0: a1 00 00 b4  	cbz	x1, 0x53b4 <bpf_object__section_size+0x54>
    53a4: 21 08 40 f9  	ldr	x1, [x1, #16]
    53a8: 81 02 00 b9  	str	w1, [x20]
    53ac: 3f 00 00 71  	cmp	w1, #0
    53b0: 00 00 9f 1a  	csel	w0, w0, wzr, eq
    53b4: f3 53 41 a9  	ldp	x19, x20, [sp, #16]
    53b8: f5 5b 42 a9  	ldp	x21, x22, [sp, #32]
    53bc: fd 7b c4 a8  	ldp	x29, x30, [sp], #64
    53c0: c0 03 5f d6  	ret
    53c4: 01 00 00 90  	adrp	x1, 0x5000 <bpf_object__section_size+0x64>
    53c8: e0 03 13 aa  	mov	x0, x19
    53cc: 21 00 00 91  	add	x1, x1, #0
    53d0: 00 00 00 94  	bl	0x53d0 <bpf_object__section_size+0x70>
    53d4: a0 00 00 35  	cbnz	w0, 0x53e8 <bpf_object__section_size+0x88>
    53d8: a1 92 40 f9  	ldr	x1, [x21, #288]
    53dc: 20 00 80 12  	mov	w0, #-2
    53e0: 21 fe ff b5  	cbnz	x1, 0x53a4 <bpf_object__section_size+0x44>
    53e4: f4 ff ff 17  	b	0x53b4 <bpf_object__section_size+0x54>
    53e8: 01 00 00 90  	adrp	x1, 0x5000 <bpf_object__section_size+0x88>
    53ec: e0 03 13 aa  	mov	x0, x19
    53f0: 21 00 00 91  	add	x1, x1, #0
    53f4: 00 00 00 94  	bl	0x53f4 <bpf_object__section_size+0x94>
    53f8: 40 01 00 34  	cbz	w0, 0x5420 <bpf_object__section_size+0xc0>
    53fc: 01 00 00 90  	adrp	x1, 0x5000 <bpf_object__section_size+0x9c>
    5400: e0 03 13 aa  	mov	x0, x19
    5404: 21 00 00 91  	add	x1, x1, #0
    5408: 00 00 00 94  	bl	0x5408 <bpf_object__section_size+0xa8>
    540c: 20 01 00 35  	cbnz	w0, 0x5430 <bpf_object__section_size+0xd0>
    5410: a1 96 40 f9  	ldr	x1, [x21, #296]
    5414: 20 00 80 12  	mov	w0, #-2
    5418: 61 fc ff b5  	cbnz	x1, 0x53a4 <bpf_object__section_size+0x44>
    541c: e6 ff ff 17  	b	0x53b4 <bpf_object__section_size+0x54>
    5420: a1 8e 40 f9  	ldr	x1, [x21, #280]
    5424: 20 00 80 12  	mov	w0, #-2
    5428: e1 fb ff b5  	cbnz	x1, 0x53a4 <bpf_object__section_size+0x44>
    542c: e2 ff ff 17  	b	0x53b4 <bpf_object__section_size+0x54>
    5430: f7 1b 00 f9  	str	x23, [sp, #48]
    5434: 16 00 80 d2  	mov	x22, #0
    5438: b7 62 40 f9  	ldr	x23, [x21, #192]
    543c: e1 03 16 aa  	mov	x1, x22
    5440: e0 03 17 aa  	mov	x0, x23
    5444: 00 00 00 94  	bl	0x5444 <bpf_object__section_size+0xe4>
    5448: f6 03 00 aa  	mov	x22, x0
    544c: e0 02 00 b4  	cbz	x0, 0x54a8 <bpf_object__section_size+0x148>
    5450: e1 03 16 aa  	mov	x1, x22
    5454: e0 03 15 aa  	mov	x0, x21
    5458: c2 fd ff 97  	bl	0x4b60 <elf_sec_name>
    545c: 60 02 00 b4  	cbz	x0, 0x54a8 <bpf_object__section_size+0x148>
    5460: e1 03 13 aa  	mov	x1, x19
    5464: 00 00 00 94  	bl	0x5464 <bpf_object__section_size+0x104>
    5468: a0 fe ff 35  	cbnz	w0, 0x543c <bpf_object__section_size+0xdc>
    546c: e1 03 16 aa  	mov	x1, x22
    5470: e0 03 15 aa  	mov	x0, x21
    5474: fb fd ff 97  	bl	0x4c60 <elf_sec_data>
    5478: c0 00 00 b4  	cbz	x0, 0x5490 <bpf_object__section_size+0x130>
    547c: 01 08 40 f9  	ldr	x1, [x0, #16]
    5480: 00 00 80 52  	mov	w0, #0
    5484: f7 1b 40 f9  	ldr	x23, [sp, #48]
    5488: 81 02 00 b9  	str	w1, [x20]
    548c: c8 ff ff 17  	b	0x53ac <bpf_object__section_size+0x4c>
    5490: 81 02 40 b9  	ldr	w1, [x20]
    5494: 20 00 80 12  	mov	w0, #-2
    5498: f7 1b 40 f9  	ldr	x23, [sp, #48]
    549c: c4 ff ff 17  	b	0x53ac <bpf_object__section_size+0x4c>
    54a0: a0 02 80 12  	mov	w0, #-22
    54a4: c0 03 5f d6  	ret
    54a8: 16 00 80 d2  	mov	x22, #0
    54ac: f0 ff ff 17  	b	0x546c <bpf_object__section_size+0x10c>

00000000000054b0 <bpf_object__variable_offset>:
    54b0: fd 7b b9 a9  	stp	x29, x30, [sp, #-112]!
    54b4: 03 00 00 90  	adrp	x3, 0x5000 <bpf_object__variable_offset+0x4>
    54b8: 3f 00 00 f1  	cmp	x1, #0
    54bc: fd 03 00 91  	mov	x29, sp
    54c0: 63 00 40 f9  	ldr	x3, [x3]
    54c4: f5 5b 02 a9  	stp	x21, x22, [sp, #32]
    54c8: f6 03 00 aa  	mov	x22, x0
    54cc: f9 6b 04 a9  	stp	x25, x26, [sp, #64]
    54d0: 44 18 40 fa  	ccmp	x2, #0, #4, ne
    54d4: 60 00 40 f9  	ldr	x0, [x3]
    54d8: e0 37 00 f9  	str	x0, [sp, #104]
    54dc: 00 00 80 d2  	mov	x0, #0
    54e0: d9 86 40 f9  	ldr	x25, [x22, #264]
    54e4: a0 09 00 54  	b.eq	0x5618 <bpf_object__variable_offset+0x168>
    54e8: 20 0b 40 f9  	ldr	x0, [x25, #16]
    54ec: f5 f3 01 b2  	mov	x21, #-6148914691236517206
    54f0: f3 53 01 a9  	stp	x19, x20, [sp, #16]
    54f4: 75 55 95 f2  	movk	x21, #43691
    54f8: f4 43 01 91  	add	x20, sp, #80
    54fc: f7 63 03 a9  	stp	x23, x24, [sp, #48]
    5500: 13 00 80 d2  	mov	x19, #0
    5504: f7 03 01 aa  	mov	x23, x1
    5508: f8 03 02 aa  	mov	x24, x2
    550c: 1f 5c 00 f1  	cmp	x0, #23
    5510: e8 00 00 54  	b.hi	0x552c <bpf_object__variable_offset+0x7c>
    5514: 21 00 00 14  	b	0x5598 <bpf_object__variable_offset+0xe8>
    5518: 23 0b 40 f9  	ldr	x3, [x25, #16]
    551c: 73 06 00 91  	add	x19, x19, #1
    5520: 63 7c d5 9b  	umulh	x3, x3, x21
    5524: 7f 12 43 eb  	cmp	x19, x3, lsr #4
    5528: 82 03 00 54  	b.hs	0x5598 <bpf_object__variable_offset+0xe8>
    552c: e2 03 14 aa  	mov	x2, x20
    5530: e1 03 13 2a  	mov	w1, w19
    5534: e0 03 19 aa  	mov	x0, x25
    5538: 00 00 00 94  	bl	0x5538 <bpf_object__variable_offset+0x88>
    553c: e0 fe ff b4  	cbz	x0, 0x5518 <bpf_object__variable_offset+0x68>
    5540: e3 53 41 39  	ldrb	w3, [sp, #84]
    5544: 60 7c 04 53  	lsr	w0, w3, #4
    5548: 1f 04 00 71  	cmp	w0, #1
    554c: 61 fe ff 54  	b.ne	0x5518 <bpf_object__variable_offset+0x68>
    5550: 63 0c 00 12  	and	w3, w3, #0xf
    5554: 7f 04 00 71  	cmp	w3, #1
    5558: 01 fe ff 54  	b.ne	0x5518 <bpf_object__variable_offset+0x68>
    555c: c0 62 40 f9  	ldr	x0, [x22, #192]
    5560: c1 9e 40 f9  	ldr	x1, [x22, #312]
    5564: fa 53 40 b9  	ldr	w26, [sp, #80]
    5568: e2 03 1a aa  	mov	x2, x26
    556c: 00 00 00 94  	bl	0x556c <bpf_object__variable_offset+0xbc>
    5570: e1 03 00 aa  	mov	x1, x0
    5574: e0 02 00 b4  	cbz	x0, 0x55d0 <bpf_object__variable_offset+0x120>
    5578: e0 03 17 aa  	mov	x0, x23
    557c: 00 00 00 94  	bl	0x557c <bpf_object__variable_offset+0xcc>
    5580: c0 fc ff 35  	cbnz	w0, 0x5518 <bpf_object__variable_offset+0x68>
    5584: e1 2f 40 f9  	ldr	x1, [sp, #88]
    5588: f3 53 41 a9  	ldp	x19, x20, [sp, #16]
    558c: 01 03 00 b9  	str	w1, [x24]
    5590: f7 63 43 a9  	ldp	x23, x24, [sp, #48]
    5594: 04 00 00 14  	b	0x55a4 <bpf_object__variable_offset+0xf4>
    5598: f3 53 41 a9  	ldp	x19, x20, [sp, #16]
    559c: 20 00 80 12  	mov	w0, #-2
    55a0: f7 63 43 a9  	ldp	x23, x24, [sp, #48]
    55a4: 01 00 00 90  	adrp	x1, 0x5000 <bpf_object__variable_offset+0xf4>
    55a8: 21 00 40 f9  	ldr	x1, [x1]
    55ac: e3 37 40 f9  	ldr	x3, [sp, #104]
    55b0: 22 00 40 f9  	ldr	x2, [x1]
    55b4: 63 00 02 eb  	subs	x3, x3, x2
    55b8: 02 00 80 d2  	mov	x2, #0
    55bc: 21 03 00 54  	b.ne	0x5620 <bpf_object__variable_offset+0x170>
    55c0: f5 5b 42 a9  	ldp	x21, x22, [sp, #32]
    55c4: f9 6b 44 a9  	ldp	x25, x26, [sp, #64]
    55c8: fd 7b c7 a8  	ldp	x29, x30, [sp], #112
    55cc: c0 03 5f d6  	ret
    55d0: 00 00 80 12  	mov	w0, #-1
    55d4: 00 00 00 94  	bl	0x55d4 <bpf_object__variable_offset+0x124>
    55d8: c3 62 07 91  	add	x3, x22, #472
    55dc: e4 03 00 aa  	mov	x4, x0
    55e0: e2 03 1a aa  	mov	x2, x26
    55e4: 00 00 80 52  	mov	w0, #0
    55e8: 01 00 00 90  	adrp	x1, 0x5000 <bpf_object__variable_offset+0x138>
    55ec: 21 00 00 91  	add	x1, x1, #0
    55f0: 00 00 00 94  	bl	0x55f0 <bpf_object__variable_offset+0x140>
    55f4: e2 03 17 aa  	mov	x2, x23
    55f8: 00 00 80 52  	mov	w0, #0
    55fc: 01 00 00 90  	adrp	x1, 0x5000 <bpf_object__variable_offset+0x14c>
    5600: 21 00 00 91  	add	x1, x1, #0
    5604: 00 00 00 94  	bl	0x5604 <bpf_object__variable_offset+0x154>
    5608: 80 00 80 12  	mov	w0, #-5
    560c: f3 53 41 a9  	ldp	x19, x20, [sp, #16]
    5610: f7 63 43 a9  	ldp	x23, x24, [sp, #48]
    5614: e4 ff ff 17  	b	0x55a4 <bpf_object__variable_offset+0xf4>
    5618: a0 02 80 12  	mov	w0, #-22
    561c: e2 ff ff 17  	b	0x55a4 <bpf_object__variable_offset+0xf4>
    5620: f3 53 01 a9  	stp	x19, x20, [sp, #16]
    5624: f7 63 03 a9  	stp	x23, x24, [sp, #48]
    5628: 00 00 00 94  	bl	0x5628 <bpf_object__variable_offset+0x178>
    562c: 1f 20 03 d5  	nop

0000000000005630 <skip_mods_and_typedefs>:
    5630: fd 7b bd a9  	stp	x29, x30, [sp, #-48]!
    5634: fd 03 00 91  	mov	x29, sp
    5638: f3 53 01 a9  	stp	x19, x20, [sp, #16]
    563c: f3 03 02 aa  	mov	x19, x2
    5640: f4 03 00 aa  	mov	x20, x0
    5644: f5 13 00 f9  	str	x21, [sp, #32]
    5648: f5 03 01 2a  	mov	w21, w1
    564c: 00 00 00 94  	bl	0x564c <skip_mods_and_typedefs+0x1c>
    5650: e3 03 00 aa  	mov	x3, x0
    5654: 53 00 00 b4  	cbz	x19, 0x565c <skip_mods_and_typedefs+0x2c>
    5658: 75 02 00 b9  	str	w21, [x19]
    565c: 60 1c 40 39  	ldrb	w0, [x3, #7]
    5660: 00 10 00 12  	and	w0, w0, #0x1f
    5664: 00 20 00 51  	sub	w0, w0, #8
    5668: 00 3c 00 12  	and	w0, w0, #0xffff
    566c: 1f 0c 00 71  	cmp	w0, #3
    5670: e8 01 00 54  	b.hi	0x56ac <skip_mods_and_typedefs+0x7c>
    5674: 1f 20 03 d5  	nop
    5678: e0 03 14 aa  	mov	x0, x20
    567c: 73 00 00 b4  	cbz	x19, 0x5688 <skip_mods_and_typedefs+0x58>
    5680: 61 08 40 b9  	ldr	w1, [x3, #8]
    5684: 61 02 00 b9  	str	w1, [x19]
    5688: 61 08 40 b9  	ldr	w1, [x3, #8]
    568c: 00 00 00 94  	bl	0x568c <skip_mods_and_typedefs+0x5c>
    5690: 01 1c 40 39  	ldrb	w1, [x0, #7]
    5694: e3 03 00 aa  	mov	x3, x0
    5698: 21 10 00 12  	and	w1, w1, #0x1f
    569c: 21 20 00 51  	sub	w1, w1, #8
    56a0: 21 3c 00 12  	and	w1, w1, #0xffff
    56a4: 3f 0c 00 71  	cmp	w1, #3
    56a8: 89 fe ff 54  	b.ls	0x5678 <skip_mods_and_typedefs+0x48>
    56ac: e0 03 03 aa  	mov	x0, x3
    56b0: f3 53 41 a9  	ldp	x19, x20, [sp, #16]
    56b4: f5 13 40 f9  	ldr	x21, [sp, #32]
    56b8: fd 7b c3 a8  	ldp	x29, x30, [sp], #48
    56bc: c0 03 5f d6  	ret

00000000000056c0 <btf_kind_str>:
    56c0: 00 1c 40 39  	ldrb	w0, [x0, #7]
    56c4: 00 10 00 12  	and	w0, w0, #0x1f
    56c8: 4e ea ff 17  	b	0x0 <__btf_kind_str>
    56cc: 1f 20 03 d5  	nop

00000000000056d0 <parse_btf_map_def>:
    56d0: fd 7b af a9  	stp	x29, x30, [sp, #-272]!
    56d4: 06 00 00 90  	adrp	x6, 0x5000 <parse_btf_map_def+0x4>
    56d8: fd 03 00 91  	mov	x29, sp
    56dc: c6 00 40 f9  	ldr	x6, [x6]
    56e0: f5 5b 02 a9  	stp	x21, x22, [sp, #32]
    56e4: f5 03 04 aa  	mov	x21, x4
    56e8: f9 6b 04 a9  	stp	x25, x26, [sp, #64]
    56ec: f9 03 00 aa  	mov	x25, x0
    56f0: 5a 08 40 79  	ldrh	w26, [x2, #4]
    56f4: c7 00 40 f9  	ldr	x7, [x6]
    56f8: e7 87 00 f9  	str	x7, [sp, #264]
    56fc: 07 00 80 d2  	mov	x7, #0
    5700: 60 1c 00 12  	and	w0, w3, #0xff
    5704: e5 37 00 f9  	str	x5, [sp, #104]
    5708: e0 77 00 b9  	str	w0, [sp, #116]
    570c: fa 0b 00 34  	cbz	w26, 0x5888 <parse_btf_map_def+0x1b8>
    5710: f3 53 01 a9  	stp	x19, x20, [sp, #16]
    5714: 54 30 00 91  	add	x20, x2, #12
    5718: 16 00 80 52  	mov	w22, #0
    571c: f7 63 03 a9  	stp	x23, x24, [sp, #48]
    5720: 18 00 00 90  	adrp	x24, 0x5000 <parse_btf_map_def+0x50>
    5724: f7 03 01 aa  	mov	x23, x1
    5728: 18 03 00 91  	add	x24, x24, #0
    572c: fb 73 05 a9  	stp	x27, x28, [sp, #80]
    5730: 1b 00 00 90  	adrp	x27, 0x5000 <parse_btf_map_def+0x60>
    5734: 7b 03 00 91  	add	x27, x27, #0
    5738: 1c 00 00 90  	adrp	x28, 0x5000 <parse_btf_map_def+0x68>
    573c: 1f 20 03 d5  	nop
    5740: 81 02 40 b9  	ldr	w1, [x20]
    5744: e0 03 17 aa  	mov	x0, x23
    5748: 00 00 00 94  	bl	0x5748 <parse_btf_map_def+0x78>
    574c: f3 03 00 aa  	mov	x19, x0
    5750: c0 13 00 b4  	cbz	x0, 0x59c8 <parse_btf_map_def+0x2f8>
    5754: e1 03 18 aa  	mov	x1, x24
    5758: 00 00 00 94  	bl	0x5758 <parse_btf_map_def+0x88>
    575c: 40 07 00 34  	cbz	w0, 0x5844 <parse_btf_map_def+0x174>
    5760: e1 03 1b aa  	mov	x1, x27
    5764: e0 03 13 aa  	mov	x0, x19
    5768: 00 00 00 94  	bl	0x5768 <parse_btf_map_def+0x98>
    576c: 60 09 00 34  	cbz	w0, 0x5898 <parse_btf_map_def+0x1c8>
    5770: 81 03 00 91  	add	x1, x28, #0
    5774: e0 03 13 aa  	mov	x0, x19
    5778: 00 00 00 94  	bl	0x5778 <parse_btf_map_def+0xa8>
    577c: 40 0a 00 34  	cbz	w0, 0x58c4 <parse_btf_map_def+0x1f4>
    5780: 01 00 00 90  	adrp	x1, 0x5000 <parse_btf_map_def+0xb0>
    5784: e0 03 13 aa  	mov	x0, x19
    5788: 21 00 00 91  	add	x1, x1, #0
    578c: 00 00 00 94  	bl	0x578c <parse_btf_map_def+0xbc>
    5790: 00 0b 00 34  	cbz	w0, 0x58f0 <parse_btf_map_def+0x220>
    5794: 01 00 00 90  	adrp	x1, 0x5000 <parse_btf_map_def+0xc4>
    5798: e0 03 13 aa  	mov	x0, x19
    579c: 21 00 00 91  	add	x1, x1, #0
    57a0: 00 00 00 94  	bl	0x57a0 <parse_btf_map_def+0xd0>
    57a4: c0 0b 00 34  	cbz	w0, 0x591c <parse_btf_map_def+0x24c>
    57a8: 01 00 00 90  	adrp	x1, 0x5000 <parse_btf_map_def+0xd8>
    57ac: e0 03 13 aa  	mov	x0, x19
    57b0: 21 00 00 91  	add	x1, x1, #0
    57b4: 00 00 00 94  	bl	0x57b4 <parse_btf_map_def+0xe4>
    57b8: 40 0d 00 34  	cbz	w0, 0x5960 <parse_btf_map_def+0x290>
    57bc: 01 00 00 90  	adrp	x1, 0x5000 <parse_btf_map_def+0xec>
    57c0: e0 03 13 aa  	mov	x0, x19
    57c4: 21 00 00 91  	add	x1, x1, #0
    57c8: 00 00 00 94  	bl	0x57c8 <parse_btf_map_def+0xf8>
    57cc: 40 15 00 34  	cbz	w0, 0x5a74 <parse_btf_map_def+0x3a4>
    57d0: 01 00 00 90  	adrp	x1, 0x5000 <parse_btf_map_def+0x100>
    57d4: e0 03 13 aa  	mov	x0, x19
    57d8: 21 00 00 91  	add	x1, x1, #0
    57dc: 00 00 00 94  	bl	0x57dc <parse_btf_map_def+0x10c>
    57e0: c0 16 00 34  	cbz	w0, 0x5ab8 <parse_btf_map_def+0x3e8>
    57e4: 01 00 00 90  	adrp	x1, 0x5000 <parse_btf_map_def+0x114>
    57e8: e0 03 13 aa  	mov	x0, x19
    57ec: 21 00 00 91  	add	x1, x1, #0
    57f0: 00 00 00 94  	bl	0x57f0 <parse_btf_map_def+0x120>
    57f4: 40 11 00 35  	cbnz	w0, 0x5a1c <parse_btf_map_def+0x34c>
    57f8: e0 37 40 f9  	ldr	x0, [sp, #104]
    57fc: 00 2d 00 b4  	cbz	x0, 0x5d9c <parse_btf_map_def+0x6cc>
    5800: 40 07 00 51  	sub	w0, w26, #1
    5804: 1f 00 16 6b  	cmp	w0, w22
    5808: a1 28 00 54  	b.ne	0x5d1c <parse_btf_map_def+0x64c>
    580c: a0 06 40 b9  	ldr	w0, [x21, #4]
    5810: 00 30 00 51  	sub	w0, w0, #12
    5814: 1f 04 00 71  	cmp	w0, #1
    5818: 69 19 00 54  	b.ls	0x5b44 <parse_btf_map_def+0x474>
    581c: 01 00 00 90  	adrp	x1, 0x5000 <parse_btf_map_def+0x14c>
    5820: e2 03 19 aa  	mov	x2, x25
    5824: 21 00 00 91  	add	x1, x1, #0
    5828: 00 00 80 52  	mov	w0, #0
    582c: 00 00 00 94  	bl	0x582c <parse_btf_map_def+0x15c>
    5830: c0 0b 80 12  	mov	w0, #-95
    5834: f3 53 41 a9  	ldp	x19, x20, [sp, #16]
    5838: f7 63 43 a9  	ldp	x23, x24, [sp, #48]
    583c: fb 73 45 a9  	ldp	x27, x28, [sp, #80]
    5840: 6c 00 00 14  	b	0x59f0 <parse_btf_map_def+0x320>
    5844: a3 12 00 91  	add	x3, x21, #4
    5848: e2 03 14 aa  	mov	x2, x20
    584c: e1 03 17 aa  	mov	x1, x23
    5850: e0 03 19 aa  	mov	x0, x25
    5854: cc f9 ff 97  	bl	0x3f84 <get_map_field_int>
    5858: 1f 1c 00 72  	tst	w0, #0xff
    585c: 20 0c 00 54  	b.eq	0x59e0 <parse_btf_map_def+0x310>
    5860: a0 02 40 b9  	ldr	w0, [x21]
    5864: 00 00 00 32  	orr	w0, w0, #0x1
    5868: a0 02 00 b9  	str	w0, [x21]
    586c: d6 06 00 11  	add	w22, w22, #1
    5870: 94 32 00 91  	add	x20, x20, #12
    5874: 5f 03 16 6b  	cmp	w26, w22
    5878: 41 f6 ff 54  	b.ne	0x5740 <parse_btf_map_def+0x70>
    587c: f3 53 41 a9  	ldp	x19, x20, [sp, #16]
    5880: f7 63 43 a9  	ldp	x23, x24, [sp, #48]
    5884: fb 73 45 a9  	ldp	x27, x28, [sp, #80]
    5888: a0 06 40 b9  	ldr	w0, [x21, #4]
    588c: 00 2e 00 34  	cbz	w0, 0x5e4c <parse_btf_map_def+0x77c>
    5890: 00 00 80 52  	mov	w0, #0
    5894: 57 00 00 14  	b	0x59f0 <parse_btf_map_def+0x320>
    5898: a3 62 00 91  	add	x3, x21, #24
    589c: e2 03 14 aa  	mov	x2, x20
    58a0: e1 03 17 aa  	mov	x1, x23
    58a4: e0 03 19 aa  	mov	x0, x25
    58a8: b7 f9 ff 97  	bl	0x3f84 <get_map_field_int>
    58ac: 1f 1c 00 72  	tst	w0, #0xff
    58b0: 80 09 00 54  	b.eq	0x59e0 <parse_btf_map_def+0x310>
    58b4: a0 02 40 b9  	ldr	w0, [x21]
    58b8: 00 00 1b 32  	orr	w0, w0, #0x20
    58bc: a0 02 00 b9  	str	w0, [x21]
    58c0: eb ff ff 17  	b	0x586c <parse_btf_map_def+0x19c>
    58c4: a3 72 00 91  	add	x3, x21, #28
    58c8: e2 03 14 aa  	mov	x2, x20
    58cc: e1 03 17 aa  	mov	x1, x23
    58d0: e0 03 19 aa  	mov	x0, x25
    58d4: ac f9 ff 97  	bl	0x3f84 <get_map_field_int>
    58d8: 1f 1c 00 72  	tst	w0, #0xff
    58dc: 20 08 00 54  	b.eq	0x59e0 <parse_btf_map_def+0x310>
    58e0: a0 02 40 b9  	ldr	w0, [x21]
    58e4: 00 00 1a 32  	orr	w0, w0, #0x40
    58e8: a0 02 00 b9  	str	w0, [x21]
    58ec: e0 ff ff 17  	b	0x586c <parse_btf_map_def+0x19c>
    58f0: a3 82 00 91  	add	x3, x21, #32
    58f4: e2 03 14 aa  	mov	x2, x20
    58f8: e1 03 17 aa  	mov	x1, x23
    58fc: e0 03 19 aa  	mov	x0, x25
    5900: a1 f9 ff 97  	bl	0x3f84 <get_map_field_int>
    5904: 1f 1c 00 72  	tst	w0, #0xff
    5908: c0 06 00 54  	b.eq	0x59e0 <parse_btf_map_def+0x310>
    590c: a0 02 40 b9  	ldr	w0, [x21]
    5910: 00 00 19 32  	orr	w0, w0, #0x80
    5914: a0 02 00 b9  	str	w0, [x21]
    5918: d5 ff ff 17  	b	0x586c <parse_btf_map_def+0x19c>
    591c: e3 13 02 91  	add	x3, sp, #132
    5920: e2 03 14 aa  	mov	x2, x20
    5924: e1 03 17 aa  	mov	x1, x23
    5928: e0 03 19 aa  	mov	x0, x25
    592c: 96 f9 ff 97  	bl	0x3f84 <get_map_field_int>
    5930: 1f 1c 00 72  	tst	w0, #0xff
    5934: 60 05 00 54  	b.eq	0x59e0 <parse_btf_map_def+0x310>
    5938: a3 0e 40 b9  	ldr	w3, [x21, #12]
    593c: e4 87 40 b9  	ldr	w4, [sp, #132]
    5940: 63 00 00 34  	cbz	w3, 0x594c <parse_btf_map_def+0x27c>
    5944: 7f 00 04 6b  	cmp	w3, w4
    5948: 01 18 00 54  	b.ne	0x5c48 <parse_btf_map_def+0x578>
    594c: a0 02 40 b9  	ldr	w0, [x21]
    5950: a4 0e 00 b9  	str	w4, [x21, #12]
    5954: 00 00 1e 32  	orr	w0, w0, #0x4
    5958: a0 02 00 b9  	str	w0, [x21]
    595c: c4 ff ff 17  	b	0x586c <parse_btf_map_def+0x19c>
    5960: 81 06 40 b9  	ldr	w1, [x20, #4]
    5964: e0 03 17 aa  	mov	x0, x23
    5968: 00 00 00 94  	bl	0x5968 <parse_btf_map_def+0x298>
    596c: e2 03 00 aa  	mov	x2, x0
    5970: 00 1a 00 b4  	cbz	x0, 0x5cb0 <parse_btf_map_def+0x5e0>
    5974: 00 1c 40 39  	ldrb	w0, [x0, #7]
    5978: 00 10 00 12  	and	w0, w0, #0x1f
    597c: 1f 08 00 71  	cmp	w0, #2
    5980: e1 1b 00 54  	b.ne	0x5cfc <parse_btf_map_def+0x62c>
    5984: 41 08 40 b9  	ldr	w1, [x2, #8]
    5988: e0 03 17 aa  	mov	x0, x23
    598c: e2 3f 00 f9  	str	x2, [sp, #120]
    5990: 00 00 00 94  	bl	0x5990 <parse_btf_map_def+0x2c0>
    5994: f3 03 00 aa  	mov	x19, x0
    5998: e2 3f 40 f9  	ldr	x2, [sp, #120]
    599c: 80 19 f8 b7  	tbnz	x0, #63, 0x5ccc <parse_btf_map_def+0x5fc>
    59a0: a3 0e 40 b9  	ldr	w3, [x21, #12]
    59a4: 63 00 00 34  	cbz	w3, 0x59b0 <parse_btf_map_def+0x2e0>
    59a8: 1f 40 23 eb  	cmp	x0, w3, uxtw
    59ac: a1 15 00 54  	b.ne	0x5c60 <parse_btf_map_def+0x590>
    59b0: a0 02 40 b9  	ldr	w0, [x21]
    59b4: 41 08 40 b9  	ldr	w1, [x2, #8]
    59b8: 00 04 1f 32  	orr	w0, w0, #0x6
    59bc: a0 02 00 b9  	str	w0, [x21]
    59c0: a1 4e 01 29  	stp	w1, w19, [x21, #8]
    59c4: aa ff ff 17  	b	0x586c <parse_btf_map_def+0x19c>
    59c8: 01 00 00 90  	adrp	x1, 0x5000 <parse_btf_map_def+0x2f8>
    59cc: e3 03 16 2a  	mov	w3, w22
    59d0: e2 03 19 aa  	mov	x2, x25
    59d4: 21 00 00 91  	add	x1, x1, #0
    59d8: 00 00 80 52  	mov	w0, #0
    59dc: 00 00 00 94  	bl	0x59dc <parse_btf_map_def+0x30c>
    59e0: f3 53 41 a9  	ldp	x19, x20, [sp, #16]
    59e4: a0 02 80 12  	mov	w0, #-22
    59e8: f7 63 43 a9  	ldp	x23, x24, [sp, #48]
    59ec: fb 73 45 a9  	ldp	x27, x28, [sp, #80]
    59f0: 01 00 00 90  	adrp	x1, 0x5000 <parse_btf_map_def+0x320>
    59f4: 21 00 40 f9  	ldr	x1, [x1]
    59f8: e3 87 40 f9  	ldr	x3, [sp, #264]
    59fc: 22 00 40 f9  	ldr	x2, [x1]
    5a00: 63 00 02 eb  	subs	x3, x3, x2
    5a04: 02 00 80 d2  	mov	x2, #0
    5a08: 01 25 00 54  	b.ne	0x5ea8 <parse_btf_map_def+0x7d8>
    5a0c: f5 5b 42 a9  	ldp	x21, x22, [sp, #32]
    5a10: f9 6b 44 a9  	ldp	x25, x26, [sp, #64]
    5a14: fd 7b d1 a8  	ldp	x29, x30, [sp], #272
    5a18: c0 03 5f d6  	ret
    5a1c: 01 00 00 90  	adrp	x1, 0x5000 <parse_btf_map_def+0x34c>
    5a20: e0 03 13 aa  	mov	x0, x19
    5a24: 21 00 00 91  	add	x1, x1, #0
    5a28: 00 00 00 94  	bl	0x5a28 <parse_btf_map_def+0x358>
    5a2c: a0 07 00 35  	cbnz	w0, 0x5b20 <parse_btf_map_def+0x450>
    5a30: e1 37 40 f9  	ldr	x1, [sp, #104]
    5a34: 81 1c 00 b4  	cbz	x1, 0x5dc4 <parse_btf_map_def+0x6f4>
    5a38: e3 13 02 91  	add	x3, sp, #132
    5a3c: e2 03 14 aa  	mov	x2, x20
    5a40: e1 03 17 aa  	mov	x1, x23
    5a44: e0 03 19 aa  	mov	x0, x25
    5a48: 4f f9 ff 97  	bl	0x3f84 <get_map_field_int>
    5a4c: 1f 1c 00 72  	tst	w0, #0xff
    5a50: 80 fc ff 54  	b.eq	0x59e0 <parse_btf_map_def+0x310>
    5a54: e3 87 40 b9  	ldr	w3, [sp, #132]
    5a58: 7f 04 00 71  	cmp	w3, #1
    5a5c: 88 1a 00 54  	b.hi	0x5dac <parse_btf_map_def+0x6dc>
    5a60: a0 02 40 b9  	ldr	w0, [x21]
    5a64: a3 26 00 b9  	str	w3, [x21, #36]
    5a68: 00 00 18 32  	orr	w0, w0, #0x100
    5a6c: a0 02 00 b9  	str	w0, [x21]
    5a70: 7f ff ff 17  	b	0x586c <parse_btf_map_def+0x19c>
    5a74: e3 13 02 91  	add	x3, sp, #132
    5a78: e2 03 14 aa  	mov	x2, x20
    5a7c: e1 03 17 aa  	mov	x1, x23
    5a80: e0 03 19 aa  	mov	x0, x25
    5a84: 40 f9 ff 97  	bl	0x3f84 <get_map_field_int>
    5a88: 1f 1c 00 72  	tst	w0, #0xff
    5a8c: a0 fa ff 54  	b.eq	0x59e0 <parse_btf_map_def+0x310>
    5a90: a3 16 40 b9  	ldr	w3, [x21, #20]
    5a94: e4 87 40 b9  	ldr	w4, [sp, #132]
    5a98: 63 00 00 34  	cbz	w3, 0x5aa4 <parse_btf_map_def+0x3d4>
    5a9c: 7f 00 04 6b  	cmp	w3, w4
    5aa0: e1 0e 00 54  	b.ne	0x5c7c <parse_btf_map_def+0x5ac>
    5aa4: a0 02 40 b9  	ldr	w0, [x21]
    5aa8: a4 16 00 b9  	str	w4, [x21, #20]
    5aac: 00 00 1c 32  	orr	w0, w0, #0x10
    5ab0: a0 02 00 b9  	str	w0, [x21]
    5ab4: 6e ff ff 17  	b	0x586c <parse_btf_map_def+0x19c>
    5ab8: 81 06 40 b9  	ldr	w1, [x20, #4]
    5abc: e0 03 17 aa  	mov	x0, x23
    5ac0: 00 00 00 94  	bl	0x5ac0 <parse_btf_map_def+0x3f0>
    5ac4: e2 03 00 aa  	mov	x2, x0
    5ac8: 40 14 00 b4  	cbz	x0, 0x5d50 <parse_btf_map_def+0x680>
    5acc: 00 1c 40 39  	ldrb	w0, [x0, #7]
    5ad0: 00 10 00 12  	and	w0, w0, #0x1f
    5ad4: 1f 08 00 71  	cmp	w0, #2
    5ad8: 21 15 00 54  	b.ne	0x5d7c <parse_btf_map_def+0x6ac>
    5adc: 41 08 40 b9  	ldr	w1, [x2, #8]
    5ae0: e0 03 17 aa  	mov	x0, x23
    5ae4: e2 3f 00 f9  	str	x2, [sp, #120]
    5ae8: 00 00 00 94  	bl	0x5ae8 <parse_btf_map_def+0x418>
    5aec: f3 03 00 aa  	mov	x19, x0
    5af0: e2 3f 40 f9  	ldr	x2, [sp, #120]
    5af4: 20 12 f8 b7  	tbnz	x0, #63, 0x5d38 <parse_btf_map_def+0x668>
    5af8: a3 16 40 b9  	ldr	w3, [x21, #20]
    5afc: 63 00 00 34  	cbz	w3, 0x5b08 <parse_btf_map_def+0x438>
    5b00: 1f 40 23 eb  	cmp	x0, w3, uxtw
    5b04: 81 0c 00 54  	b.ne	0x5c94 <parse_btf_map_def+0x5c4>
    5b08: a0 02 40 b9  	ldr	w0, [x21]
    5b0c: 41 08 40 b9  	ldr	w1, [x2, #8]
    5b10: 00 04 1d 32  	orr	w0, w0, #0x18
    5b14: a0 02 00 b9  	str	w0, [x21]
    5b18: a1 4e 02 29  	stp	w1, w19, [x21, #16]
    5b1c: 54 ff ff 17  	b	0x586c <parse_btf_map_def+0x19c>
    5b20: e0 77 40 b9  	ldr	w0, [sp, #116]
    5b24: e3 03 13 aa  	mov	x3, x19
    5b28: 80 15 00 35  	cbnz	w0, 0x5dd8 <parse_btf_map_def+0x708>
    5b2c: e2 03 19 aa  	mov	x2, x25
    5b30: 01 00 00 90  	adrp	x1, 0x5000 <parse_btf_map_def+0x460>
    5b34: 40 00 80 52  	mov	w0, #2
    5b38: 21 00 00 91  	add	x1, x1, #0
    5b3c: 00 00 00 94  	bl	0x5b3c <parse_btf_map_def+0x46c>
    5b40: 4b ff ff 17  	b	0x586c <parse_btf_map_def+0x19c>
    5b44: a3 16 40 b9  	ldr	w3, [x21, #20]
    5b48: 7f 78 1d 72  	tst	w3, #0xfffffffb
    5b4c: 21 1a 00 54  	b.ne	0x5e90 <parse_btf_map_def+0x7c0>
    5b50: 80 00 80 52  	mov	w0, #4
    5b54: a0 16 00 b9  	str	w0, [x21, #20]
    5b58: e0 03 17 aa  	mov	x0, x23
    5b5c: 81 06 40 b9  	ldr	w1, [x20, #4]
    5b60: 00 00 00 94  	bl	0x5b60 <parse_btf_map_def+0x490>
    5b64: a0 18 00 b4  	cbz	x0, 0x5e78 <parse_btf_map_def+0x7a8>
    5b68: 01 1c 40 39  	ldrb	w1, [x0, #7]
    5b6c: 21 10 00 12  	and	w1, w1, #0x1f
    5b70: 3f 0c 00 71  	cmp	w1, #3
    5b74: 81 15 00 54  	b.ne	0x5e24 <parse_btf_map_def+0x754>
    5b78: 01 14 40 b9  	ldr	w1, [x0, #20]
    5b7c: 41 15 00 35  	cbnz	w1, 0x5e24 <parse_btf_map_def+0x754>
    5b80: 01 0c 40 b9  	ldr	w1, [x0, #12]
    5b84: 02 00 00 14  	b	0x5b8c <parse_btf_map_def+0x4bc>
    5b88: 01 08 40 b9  	ldr	w1, [x0, #8]
    5b8c: e0 03 17 aa  	mov	x0, x23
    5b90: 00 00 00 94  	bl	0x5b90 <parse_btf_map_def+0x4c0>
    5b94: 01 1c 40 39  	ldrb	w1, [x0, #7]
    5b98: 21 10 00 12  	and	w1, w1, #0x1f
    5b9c: 22 20 00 51  	sub	w2, w1, #8
    5ba0: 42 3c 00 12  	and	w2, w2, #0xffff
    5ba4: 5f 0c 00 71  	cmp	w2, #3
    5ba8: 09 ff ff 54  	b.ls	0x5b88 <parse_btf_map_def+0x4b8>
    5bac: 3f 08 00 71  	cmp	w1, #2
    5bb0: 81 12 00 54  	b.ne	0x5e00 <parse_btf_map_def+0x730>
    5bb4: 01 08 40 b9  	ldr	w1, [x0, #8]
    5bb8: 02 00 00 14  	b	0x5bc0 <parse_btf_map_def+0x4f0>
    5bbc: 61 0a 40 b9  	ldr	w1, [x19, #8]
    5bc0: e0 03 17 aa  	mov	x0, x23
    5bc4: 00 00 00 94  	bl	0x5bc4 <parse_btf_map_def+0x4f4>
    5bc8: f3 03 00 aa  	mov	x19, x0
    5bcc: 00 1c 40 39  	ldrb	w0, [x0, #7]
    5bd0: 00 10 00 12  	and	w0, w0, #0x1f
    5bd4: 01 20 00 51  	sub	w1, w0, #8
    5bd8: 21 3c 00 12  	and	w1, w1, #0xffff
    5bdc: 3f 0c 00 71  	cmp	w1, #3
    5be0: e9 fe ff 54  	b.ls	0x5bbc <parse_btf_map_def+0x4ec>
    5be4: 1f 10 00 71  	cmp	w0, #4
    5be8: e1 10 00 54  	b.ne	0x5e04 <parse_btf_map_def+0x734>
    5bec: e6 23 02 91  	add	x6, sp, #136
    5bf0: 03 10 80 d2  	mov	x3, #128
    5bf4: e0 03 06 aa  	mov	x0, x6
    5bf8: e1 03 03 aa  	mov	x1, x3
    5bfc: e5 03 19 aa  	mov	x5, x25
    5c00: 22 00 80 52  	mov	w2, #1
    5c04: 04 00 00 90  	adrp	x4, 0x5000 <parse_btf_map_def+0x534>
    5c08: 84 00 00 91  	add	x4, x4, #0
    5c0c: e6 3f 00 f9  	str	x6, [sp, #120]
    5c10: 00 00 00 94  	bl	0x5c10 <parse_btf_map_def+0x540>
    5c14: e3 d3 41 39  	ldrb	w3, [sp, #116]
    5c18: e2 03 13 aa  	mov	x2, x19
    5c1c: e4 37 40 f9  	ldr	x4, [sp, #104]
    5c20: e1 03 17 aa  	mov	x1, x23
    5c24: e6 3f 40 f9  	ldr	x6, [sp, #120]
    5c28: 05 00 80 d2  	mov	x5, #0
    5c2c: e0 03 06 aa  	mov	x0, x6
    5c30: 00 00 00 94  	bl	0x5c30 <parse_btf_map_def+0x560>
    5c34: a0 11 00 35  	cbnz	w0, 0x5e68 <parse_btf_map_def+0x798>
    5c38: a0 02 40 b9  	ldr	w0, [x21]
    5c3c: 00 00 17 32  	orr	w0, w0, #0x200
    5c40: a0 02 00 b9  	str	w0, [x21]
    5c44: 0a ff ff 17  	b	0x586c <parse_btf_map_def+0x19c>
    5c48: e2 03 19 aa  	mov	x2, x25
    5c4c: 01 00 00 90  	adrp	x1, 0x5000 <parse_btf_map_def+0x57c>
    5c50: 00 00 80 52  	mov	w0, #0
    5c54: 21 00 00 91  	add	x1, x1, #0
    5c58: 00 00 00 94  	bl	0x5c58 <parse_btf_map_def+0x588>
    5c5c: 61 ff ff 17  	b	0x59e0 <parse_btf_map_def+0x310>
    5c60: e4 03 00 aa  	mov	x4, x0
    5c64: e2 03 19 aa  	mov	x2, x25
    5c68: 01 00 00 90  	adrp	x1, 0x5000 <parse_btf_map_def+0x598>
    5c6c: 00 00 80 52  	mov	w0, #0
    5c70: 21 00 00 91  	add	x1, x1, #0
    5c74: 00 00 00 94  	bl	0x5c74 <parse_btf_map_def+0x5a4>
    5c78: 5a ff ff 17  	b	0x59e0 <parse_btf_map_def+0x310>
    5c7c: e2 03 19 aa  	mov	x2, x25
    5c80: 01 00 00 90  	adrp	x1, 0x5000 <parse_btf_map_def+0x5b0>
    5c84: 00 00 80 52  	mov	w0, #0
    5c88: 21 00 00 91  	add	x1, x1, #0
    5c8c: 00 00 00 94  	bl	0x5c8c <parse_btf_map_def+0x5bc>
    5c90: 54 ff ff 17  	b	0x59e0 <parse_btf_map_def+0x310>
    5c94: e4 03 00 aa  	mov	x4, x0
    5c98: e2 03 19 aa  	mov	x2, x25
    5c9c: 01 00 00 90  	adrp	x1, 0x5000 <parse_btf_map_def+0x5cc>
    5ca0: 00 00 80 52  	mov	w0, #0
    5ca4: 21 00 00 91  	add	x1, x1, #0
    5ca8: 00 00 00 94  	bl	0x5ca8 <parse_btf_map_def+0x5d8>
    5cac: 4d ff ff 17  	b	0x59e0 <parse_btf_map_def+0x310>
    5cb0: 83 06 40 b9  	ldr	w3, [x20, #4]
    5cb4: e2 03 19 aa  	mov	x2, x25
    5cb8: 01 00 00 90  	adrp	x1, 0x5000 <parse_btf_map_def+0x5e8>
    5cbc: 00 00 80 52  	mov	w0, #0
    5cc0: 21 00 00 91  	add	x1, x1, #0
    5cc4: 00 00 00 94  	bl	0x5cc4 <parse_btf_map_def+0x5f4>
    5cc8: 46 ff ff 17  	b	0x59e0 <parse_btf_map_def+0x310>
    5ccc: 43 08 40 b9  	ldr	w3, [x2, #8]
    5cd0: 01 00 00 90  	adrp	x1, 0x5000 <parse_btf_map_def+0x600>
    5cd4: e4 03 00 aa  	mov	x4, x0
    5cd8: 21 00 00 91  	add	x1, x1, #0
    5cdc: e2 03 19 aa  	mov	x2, x25
    5ce0: 00 00 80 52  	mov	w0, #0
    5ce4: 00 00 00 94  	bl	0x5ce4 <parse_btf_map_def+0x614>
    5ce8: e0 03 13 2a  	mov	w0, w19
    5cec: f3 53 41 a9  	ldp	x19, x20, [sp, #16]
    5cf0: f7 63 43 a9  	ldp	x23, x24, [sp, #48]
    5cf4: fb 73 45 a9  	ldp	x27, x28, [sp, #80]
    5cf8: 3e ff ff 17  	b	0x59f0 <parse_btf_map_def+0x320>
    5cfc: c1 e8 ff 97  	bl	0x0 <__btf_kind_str>
    5d00: e2 03 19 aa  	mov	x2, x25
    5d04: e3 03 00 aa  	mov	x3, x0
    5d08: 01 00 00 90  	adrp	x1, 0x5000 <parse_btf_map_def+0x638>
    5d0c: 00 00 80 52  	mov	w0, #0
    5d10: 21 00 00 91  	add	x1, x1, #0
    5d14: 00 00 00 94  	bl	0x5d14 <parse_btf_map_def+0x644>
    5d18: 32 ff ff 17  	b	0x59e0 <parse_btf_map_def+0x310>
    5d1c: e3 03 13 aa  	mov	x3, x19
    5d20: e2 03 19 aa  	mov	x2, x25
    5d24: 01 00 00 90  	adrp	x1, 0x5000 <parse_btf_map_def+0x654>
    5d28: 00 00 80 52  	mov	w0, #0
    5d2c: 21 00 00 91  	add	x1, x1, #0
    5d30: 00 00 00 94  	bl	0x5d30 <parse_btf_map_def+0x660>
    5d34: 2b ff ff 17  	b	0x59e0 <parse_btf_map_def+0x310>
    5d38: 43 08 40 b9  	ldr	w3, [x2, #8]
    5d3c: 01 00 00 90  	adrp	x1, 0x5000 <parse_btf_map_def+0x66c>
    5d40: e4 03 00 aa  	mov	x4, x0
    5d44: 21 00 00 91  	add	x1, x1, #0
    5d48: e2 03 19 aa  	mov	x2, x25
    5d4c: e5 ff ff 17  	b	0x5ce0 <parse_btf_map_def+0x610>
    5d50: 83 06 40 b9  	ldr	w3, [x20, #4]
    5d54: 00 00 80 52  	mov	w0, #0
    5d58: e2 03 19 aa  	mov	x2, x25
    5d5c: 01 00 00 90  	adrp	x1, 0x5000 <parse_btf_map_def+0x68c>
    5d60: 21 00 00 91  	add	x1, x1, #0
    5d64: 00 00 00 94  	bl	0x5d64 <parse_btf_map_def+0x694>
    5d68: a0 02 80 12  	mov	w0, #-22
    5d6c: f3 53 41 a9  	ldp	x19, x20, [sp, #16]
    5d70: f7 63 43 a9  	ldp	x23, x24, [sp, #48]
    5d74: fb 73 45 a9  	ldp	x27, x28, [sp, #80]
    5d78: 1e ff ff 17  	b	0x59f0 <parse_btf_map_def+0x320>
    5d7c: a1 e8 ff 97  	bl	0x0 <__btf_kind_str>
    5d80: e2 03 19 aa  	mov	x2, x25
    5d84: e3 03 00 aa  	mov	x3, x0
    5d88: 01 00 00 90  	adrp	x1, 0x5000 <parse_btf_map_def+0x6b8>
    5d8c: 00 00 80 52  	mov	w0, #0
    5d90: 21 00 00 91  	add	x1, x1, #0
    5d94: 00 00 00 94  	bl	0x5d94 <parse_btf_map_def+0x6c4>
    5d98: 12 ff ff 17  	b	0x59e0 <parse_btf_map_def+0x310>
    5d9c: 01 00 00 90  	adrp	x1, 0x5000 <parse_btf_map_def+0x6cc>
    5da0: e2 03 19 aa  	mov	x2, x25
    5da4: 21 00 00 91  	add	x1, x1, #0
    5da8: a1 fe ff 17  	b	0x582c <parse_btf_map_def+0x15c>
    5dac: e2 03 19 aa  	mov	x2, x25
    5db0: 01 00 00 90  	adrp	x1, 0x5000 <parse_btf_map_def+0x6e0>
    5db4: 00 00 80 52  	mov	w0, #0
    5db8: 21 00 00 91  	add	x1, x1, #0
    5dbc: 00 00 00 94  	bl	0x5dbc <parse_btf_map_def+0x6ec>
    5dc0: 08 ff ff 17  	b	0x59e0 <parse_btf_map_def+0x310>
    5dc4: e2 03 19 aa  	mov	x2, x25
    5dc8: 01 00 00 90  	adrp	x1, 0x5000 <parse_btf_map_def+0x6f8>
    5dcc: 21 00 00 91  	add	x1, x1, #0
    5dd0: 00 00 00 94  	bl	0x5dd0 <parse_btf_map_def+0x700>
    5dd4: 03 ff ff 17  	b	0x59e0 <parse_btf_map_def+0x310>
    5dd8: 00 00 80 52  	mov	w0, #0
    5ddc: e2 03 19 aa  	mov	x2, x25
    5de0: 01 00 00 90  	adrp	x1, 0x5000 <parse_btf_map_def+0x710>
    5de4: 21 00 00 91  	add	x1, x1, #0
    5de8: 00 00 00 94  	bl	0x5de8 <parse_btf_map_def+0x718>
    5dec: c0 0b 80 12  	mov	w0, #-95
    5df0: f3 53 41 a9  	ldp	x19, x20, [sp, #16]
    5df4: f7 63 43 a9  	ldp	x23, x24, [sp, #48]
    5df8: fb 73 45 a9  	ldp	x27, x28, [sp, #80]
    5dfc: fd fe ff 17  	b	0x59f0 <parse_btf_map_def+0x320>
    5e00: e0 03 01 2a  	mov	w0, w1
    5e04: 7f e8 ff 97  	bl	0x0 <__btf_kind_str>
    5e08: e2 03 19 aa  	mov	x2, x25
    5e0c: e3 03 00 aa  	mov	x3, x0
    5e10: 01 00 00 90  	adrp	x1, 0x5000 <parse_btf_map_def+0x740>
    5e14: 00 00 80 52  	mov	w0, #0
    5e18: 21 00 00 91  	add	x1, x1, #0
    5e1c: 00 00 00 94  	bl	0x5e1c <parse_btf_map_def+0x74c>
    5e20: f0 fe ff 17  	b	0x59e0 <parse_btf_map_def+0x310>
    5e24: 00 00 80 52  	mov	w0, #0
    5e28: e2 03 19 aa  	mov	x2, x25
    5e2c: 01 00 00 90  	adrp	x1, 0x5000 <parse_btf_map_def+0x75c>
    5e30: 21 00 00 91  	add	x1, x1, #0
    5e34: 00 00 00 94  	bl	0x5e34 <parse_btf_map_def+0x764>
    5e38: a0 02 80 12  	mov	w0, #-22
    5e3c: f3 53 41 a9  	ldp	x19, x20, [sp, #16]
    5e40: f7 63 43 a9  	ldp	x23, x24, [sp, #48]
    5e44: fb 73 45 a9  	ldp	x27, x28, [sp, #80]
    5e48: ea fe ff 17  	b	0x59f0 <parse_btf_map_def+0x320>
    5e4c: 00 00 80 52  	mov	w0, #0
    5e50: e2 03 19 aa  	mov	x2, x25
    5e54: 01 00 00 90  	adrp	x1, 0x5000 <parse_btf_map_def+0x784>
    5e58: 21 00 00 91  	add	x1, x1, #0
    5e5c: 00 00 00 94  	bl	0x5e5c <parse_btf_map_def+0x78c>
    5e60: a0 02 80 12  	mov	w0, #-22
    5e64: e3 fe ff 17  	b	0x59f0 <parse_btf_map_def+0x320>
    5e68: f3 53 41 a9  	ldp	x19, x20, [sp, #16]
    5e6c: f7 63 43 a9  	ldp	x23, x24, [sp, #48]
    5e70: fb 73 45 a9  	ldp	x27, x28, [sp, #80]
    5e74: df fe ff 17  	b	0x59f0 <parse_btf_map_def+0x320>
    5e78: 83 06 40 b9  	ldr	w3, [x20, #4]
    5e7c: e2 03 19 aa  	mov	x2, x25
    5e80: 01 00 00 90  	adrp	x1, 0x5000 <parse_btf_map_def+0x7b0>
    5e84: 21 00 00 91  	add	x1, x1, #0
    5e88: 00 00 00 94  	bl	0x5e88 <parse_btf_map_def+0x7b8>
    5e8c: d5 fe ff 17  	b	0x59e0 <parse_btf_map_def+0x310>
    5e90: e2 03 19 aa  	mov	x2, x25
    5e94: 01 00 00 90  	adrp	x1, 0x5000 <parse_btf_map_def+0x7c4>
    5e98: 00 00 80 52  	mov	w0, #0
    5e9c: 21 00 00 91  	add	x1, x1, #0
    5ea0: 00 00 00 94  	bl	0x5ea0 <parse_btf_map_def+0x7d0>
    5ea4: cf fe ff 17  	b	0x59e0 <parse_btf_map_def+0x310>
    5ea8: f3 53 01 a9  	stp	x19, x20, [sp, #16]
    5eac: f7 63 03 a9  	stp	x23, x24, [sp, #48]
    5eb0: fb 73 05 a9  	stp	x27, x28, [sp, #80]
    5eb4: 00 00 00 94  	bl	0x5eb4 <parse_btf_map_def+0x7e4>
    5eb8: 1f 20 03 d5  	nop
    5ebc: 1f 20 03 d5  	nop

0000000000005ec0 <bpf_object__init_user_btf_map>:
    5ec0: fd 7b b4 a9  	stp	x29, x30, [sp, #-192]!
    5ec4: 42 7c 40 93  	sxtw	x2, w2
    5ec8: 07 00 00 90  	adrp	x7, 0x5000 <bpf_object__init_user_btf_map+0x8>
    5ecc: fd 03 00 91  	mov	x29, sp
    5ed0: f9 6b 04 a9  	stp	x25, x26, [sp, #64]
    5ed4: f9 03 02 aa  	mov	x25, x2
    5ed8: 42 04 00 91  	add	x2, x2, #1
    5edc: e7 00 40 f9  	ldr	x7, [x7]
    5ee0: 42 04 02 8b  	add	x2, x2, x2, lsl #1
    5ee4: f3 53 01 a9  	stp	x19, x20, [sp, #16]
    5ee8: fa 03 03 2a  	mov	w26, w3
    5eec: 42 f4 7e d3  	lsl	x2, x2, #2
    5ef0: f5 5b 02 a9  	stp	x21, x22, [sp, #32]
    5ef4: f6 03 00 aa  	mov	x22, x0
    5ef8: f5 03 01 aa  	mov	x21, x1
    5efc: f7 63 03 a9  	stp	x23, x24, [sp, #48]
    5f00: b5 02 02 8b  	add	x21, x21, x2
    5f04: 21 68 62 b8  	ldr	w1, [x1, x2]
    5f08: fb 73 05 a9  	stp	x27, x28, [sp, #80]
    5f0c: f3 03 04 aa  	mov	x19, x4
    5f10: fb 03 06 aa  	mov	x27, x6
    5f14: 00 c0 40 f9  	ldr	x0, [x0, #384]
    5f18: e2 00 40 f9  	ldr	x2, [x7]
    5f1c: e2 5f 00 f9  	str	x2, [sp, #184]
    5f20: 02 00 80 d2  	mov	x2, #0
    5f24: bc 1c 00 12  	and	w28, w5, #0xff
    5f28: ff ff 06 a9  	stp	xzr, xzr, [sp, #104]
    5f2c: ff ff 07 a9  	stp	xzr, xzr, [sp, #120]
    5f30: ff 47 00 f9  	str	xzr, [sp, #136]
    5f34: ff 7f 09 a9  	stp	xzr, xzr, [sp, #144]
    5f38: ff 7f 0a a9  	stp	xzr, xzr, [sp, #160]
    5f3c: ff 5b 00 f9  	str	xzr, [sp, #176]
    5f40: 00 00 00 94  	bl	0x5f40 <bpf_object__init_user_btf_map+0x80>
    5f44: 01 00 40 b9  	ldr	w1, [x0]
    5f48: f8 03 00 aa  	mov	x24, x0
    5f4c: c0 c2 40 f9  	ldr	x0, [x22, #384]
    5f50: 00 00 00 94  	bl	0x5f50 <bpf_object__init_user_btf_map+0x90>
    5f54: 00 12 00 b4  	cbz	x0, 0x6194 <bpf_object__init_user_btf_map+0x2d4>
    5f58: f7 03 00 aa  	mov	x23, x0
    5f5c: 00 00 40 39  	ldrb	w0, [x0]
    5f60: a0 11 00 34  	cbz	w0, 0x6194 <bpf_object__init_user_btf_map+0x2d4>
    5f64: a0 8a 40 29  	ldp	w0, w2, [x21, #4]
    5f68: 61 0a 40 f9  	ldr	x1, [x19, #16]
    5f6c: 00 00 02 8b  	add	x0, x0, x2
    5f70: 1f 00 01 eb  	cmp	x0, x1
    5f74: 48 15 00 54  	b.hi	0x621c <bpf_object__init_user_btf_map+0x35c>
    5f78: 00 1f 40 39  	ldrb	w0, [x24, #7]
    5f7c: 00 10 00 12  	and	w0, w0, #0x1f
    5f80: 1f 38 00 71  	cmp	w0, #14
    5f84: 61 11 00 54  	b.ne	0x61b0 <bpf_object__init_user_btf_map+0x2f0>
    5f88: 00 0f 40 b9  	ldr	w0, [x24, #12]
    5f8c: 1f 04 00 71  	cmp	w0, #1
    5f90: 01 0e 00 54  	b.ne	0x6150 <bpf_object__init_user_btf_map+0x290>
    5f94: 01 0b 40 b9  	ldr	w1, [x24, #8]
    5f98: d4 c2 40 f9  	ldr	x20, [x22, #384]
    5f9c: 02 00 00 14  	b	0x5fa4 <bpf_object__init_user_btf_map+0xe4>
    5fa0: 61 0a 40 b9  	ldr	w1, [x19, #8]
    5fa4: e0 03 14 aa  	mov	x0, x20
    5fa8: 00 00 00 94  	bl	0x5fa8 <bpf_object__init_user_btf_map+0xe8>
    5fac: f3 03 00 aa  	mov	x19, x0
    5fb0: 00 1c 40 39  	ldrb	w0, [x0, #7]
    5fb4: 00 10 00 12  	and	w0, w0, #0x1f
    5fb8: 01 20 00 51  	sub	w1, w0, #8
    5fbc: 21 3c 00 12  	and	w1, w1, #0xffff
    5fc0: 3f 0c 00 71  	cmp	w1, #3
    5fc4: e9 fe ff 54  	b.ls	0x5fa0 <bpf_object__init_user_btf_map+0xe0>
    5fc8: 1f 10 00 71  	cmp	w0, #4
    5fcc: 21 11 00 54  	b.ne	0x61f0 <bpf_object__init_user_btf_map+0x330>
    5fd0: 61 0a 40 b9  	ldr	w1, [x19, #8]
    5fd4: a0 0a 40 b9  	ldr	w0, [x21, #8]
    5fd8: 3f 00 00 6b  	cmp	w1, w0
    5fdc: c8 0f 00 54  	b.hi	0x61d4 <bpf_object__init_user_btf_map+0x314>
    5fe0: e0 03 16 aa  	mov	x0, x22
    5fe4: b7 ef ff 97  	bl	0x1ec0 <bpf_object__add_map>
    5fe8: f4 03 00 aa  	mov	x20, x0
    5fec: 1f 04 40 b1  	cmn	x0, #1, lsl #12         // =4096
    5ff0: 68 09 00 54  	b.hi	0x611c <bpf_object__init_user_btf_map+0x25c>
    5ff4: e0 03 17 aa  	mov	x0, x23
    5ff8: 00 00 00 94  	bl	0x5ff8 <bpf_object__init_user_btf_map+0x138>
    5ffc: 80 02 00 f9  	str	x0, [x20]
    6000: 00 12 00 b4  	cbz	x0, 0x6240 <bpf_object__init_user_btf_map+0x380>
    6004: a4 06 40 b9  	ldr	w4, [x21, #4]
    6008: e3 03 1a 2a  	mov	w3, w26
    600c: 9a 0e 00 b9  	str	w26, [x20, #12]
    6010: e2 03 17 aa  	mov	x2, x23
    6014: 84 0a 00 f9  	str	x4, [x20, #16]
    6018: 40 00 80 52  	mov	w0, #2
    601c: 9f 22 00 b9  	str	wzr, [x20, #32]
    6020: 01 00 00 90  	adrp	x1, 0x6000 <bpf_object__init_user_btf_map+0x160>
    6024: 99 3a 00 b9  	str	w25, [x20, #56]
    6028: 21 00 00 91  	add	x1, x1, #0
    602c: 9f 5a 00 b9  	str	wzr, [x20, #88]
    6030: f8 43 02 91  	add	x24, sp, #144
    6034: f5 a3 01 91  	add	x21, sp, #104
    6038: 00 00 00 94  	bl	0x6038 <bpf_object__init_user_btf_map+0x178>
    603c: 80 02 40 f9  	ldr	x0, [x20]
    6040: e2 03 13 aa  	mov	x2, x19
    6044: c1 c2 40 f9  	ldr	x1, [x22, #384]
    6048: e3 03 1c 2a  	mov	w3, w28
    604c: e5 03 18 aa  	mov	x5, x24
    6050: e4 03 15 aa  	mov	x4, x21
    6054: 00 00 00 94  	bl	0x6054 <bpf_object__init_user_btf_map+0x194>
    6058: f3 03 00 2a  	mov	w19, w0
    605c: 00 02 00 34  	cbz	w0, 0x609c <bpf_object__init_user_btf_map+0x1dc>
    6060: 00 00 00 90  	adrp	x0, 0x6000 <bpf_object__init_user_btf_map+0x1a0>
    6064: 00 00 40 f9  	ldr	x0, [x0]
    6068: e2 5f 40 f9  	ldr	x2, [sp, #184]
    606c: 01 00 40 f9  	ldr	x1, [x0]
    6070: 42 00 01 eb  	subs	x2, x2, x1
    6074: 01 00 80 d2  	mov	x1, #0
    6078: 01 0f 00 54  	b.ne	0x6258 <bpf_object__init_user_btf_map+0x398>
    607c: e0 03 13 2a  	mov	w0, w19
    6080: f3 53 41 a9  	ldp	x19, x20, [sp, #16]
    6084: f5 5b 42 a9  	ldp	x21, x22, [sp, #32]
    6088: f7 63 43 a9  	ldp	x23, x24, [sp, #48]
    608c: f9 6b 44 a9  	ldp	x25, x26, [sp, #64]
    6090: fb 73 45 a9  	ldp	x27, x28, [sp, #80]
    6094: fd 7b cc a8  	ldp	x29, x30, [sp], #192
    6098: c0 03 5f d6  	ret
    609c: e0 03 14 aa  	mov	x0, x20
    60a0: e1 03 15 aa  	mov	x1, x21
    60a4: d4 ef ff 97  	bl	0x1ff4 <fill_map_from_def>
    60a8: e0 8f 40 b9  	ldr	w0, [sp, #140]
    60ac: 1f 04 00 71  	cmp	w0, #1
    60b0: a0 03 00 54  	b.eq	0x6124 <bpf_object__init_user_btf_map+0x264>
    60b4: e0 6b 40 b9  	ldr	w0, [sp, #104]
    60b8: 40 fd 4f 36  	tbz	w0, #9, 0x6060 <bpf_object__init_user_btf_map+0x1a0>
    60bc: 01 13 80 d2  	mov	x1, #152
    60c0: 20 00 80 d2  	mov	x0, #1
    60c4: 00 00 00 94  	bl	0x60c4 <bpf_object__init_user_btf_map+0x204>
    60c8: 80 3a 00 f9  	str	x0, [x20, #112]
    60cc: f5 03 00 aa  	mov	x21, x0
    60d0: 40 0b 00 b4  	cbz	x0, 0x6238 <bpf_object__init_user_btf_map+0x378>
    60d4: 01 00 80 12  	mov	w1, #-1
    60d8: a1 6a 01 29  	stp	w1, w26, [x21, #8]
    60dc: e0 03 17 aa  	mov	x0, x23
    60e0: 00 00 00 94  	bl	0x60e0 <bpf_object__init_user_btf_map+0x220>
    60e4: 00 20 00 91  	add	x0, x0, #8
    60e8: 00 00 00 94  	bl	0x60e8 <bpf_object__init_user_btf_map+0x228>
    60ec: a0 02 00 f9  	str	x0, [x21]
    60f0: 40 0a 00 b4  	cbz	x0, 0x6238 <bpf_object__init_user_btf_map+0x378>
    60f4: e4 03 17 aa  	mov	x4, x23
    60f8: 02 00 80 92  	mov	x2, #-1
    60fc: 21 00 80 52  	mov	w1, #1
    6100: 03 00 00 90  	adrp	x3, 0x6000 <bpf_object__init_user_btf_map+0x240>
    6104: 63 00 00 91  	add	x3, x3, #0
    6108: 00 00 00 94  	bl	0x6108 <bpf_object__init_user_btf_map+0x248>
    610c: 80 3a 40 f9  	ldr	x0, [x20, #112]
    6110: e1 03 18 aa  	mov	x1, x24
    6114: b8 ef ff 97  	bl	0x1ff4 <fill_map_from_def>
    6118: d2 ff ff 17  	b	0x6060 <bpf_object__init_user_btf_map+0x1a0>
    611c: f3 03 00 2a  	mov	w19, w0
    6120: d0 ff ff 17  	b	0x6060 <bpf_object__init_user_btf_map+0x1a0>
    6124: e1 03 1b aa  	mov	x1, x27
    6128: e0 03 14 aa  	mov	x0, x20
    612c: fd eb ff 97  	bl	0x1120 <build_map_pin_path>
    6130: 20 fc ff 34  	cbz	w0, 0x60b4 <bpf_object__init_user_btf_map+0x1f4>
    6134: 82 02 40 f9  	ldr	x2, [x20]
    6138: f3 03 00 2a  	mov	w19, w0
    613c: 01 00 00 90  	adrp	x1, 0x6000 <bpf_object__init_user_btf_map+0x27c>
    6140: 00 00 80 52  	mov	w0, #0
    6144: 21 00 00 91  	add	x1, x1, #0
    6148: 00 00 00 94  	bl	0x6148 <bpf_object__init_user_btf_map+0x288>
    614c: c5 ff ff 17  	b	0x6060 <bpf_object__init_user_btf_map+0x1a0>
    6150: c0 01 00 34  	cbz	w0, 0x6188 <bpf_object__init_user_btf_map+0x2c8>
    6154: 1f 08 00 71  	cmp	w0, #2
    6158: 03 00 00 90  	adrp	x3, 0x6000 <bpf_object__init_user_btf_map+0x298>
    615c: 00 00 00 90  	adrp	x0, 0x6000 <bpf_object__init_user_btf_map+0x29c>
    6160: 63 00 00 91  	add	x3, x3, #0
    6164: 00 00 00 91  	add	x0, x0, #0
    6168: 63 10 80 9a  	csel	x3, x3, x0, ne
    616c: e2 03 17 aa  	mov	x2, x23
    6170: 01 00 00 90  	adrp	x1, 0x6000 <bpf_object__init_user_btf_map+0x2b0>
    6174: 00 00 80 52  	mov	w0, #0
    6178: 21 00 00 91  	add	x1, x1, #0
    617c: d3 0b 80 12  	mov	w19, #-95
    6180: 00 00 00 94  	bl	0x6180 <bpf_object__init_user_btf_map+0x2c0>
    6184: b7 ff ff 17  	b	0x6060 <bpf_object__init_user_btf_map+0x1a0>
    6188: 03 00 00 90  	adrp	x3, 0x6000 <bpf_object__init_user_btf_map+0x2c8>
    618c: 63 00 00 91  	add	x3, x3, #0
    6190: f7 ff ff 17  	b	0x616c <bpf_object__init_user_btf_map+0x2ac>
    6194: e2 03 19 2a  	mov	w2, w25
    6198: 01 00 00 90  	adrp	x1, 0x6000 <bpf_object__init_user_btf_map+0x2d8>
    619c: 00 00 80 52  	mov	w0, #0
    61a0: 21 00 00 91  	add	x1, x1, #0
    61a4: b3 02 80 12  	mov	w19, #-22
    61a8: 00 00 00 94  	bl	0x61a8 <bpf_object__init_user_btf_map+0x2e8>
    61ac: ad ff ff 17  	b	0x6060 <bpf_object__init_user_btf_map+0x1a0>
    61b0: 94 e7 ff 97  	bl	0x0 <__btf_kind_str>
    61b4: e2 03 17 aa  	mov	x2, x23
    61b8: e3 03 00 aa  	mov	x3, x0
    61bc: 01 00 00 90  	adrp	x1, 0x6000 <bpf_object__init_user_btf_map+0x2fc>
    61c0: 00 00 80 52  	mov	w0, #0
    61c4: 21 00 00 91  	add	x1, x1, #0
    61c8: b3 02 80 12  	mov	w19, #-22
    61cc: 00 00 00 94  	bl	0x61cc <bpf_object__init_user_btf_map+0x30c>
    61d0: a4 ff ff 17  	b	0x6060 <bpf_object__init_user_btf_map+0x1a0>
    61d4: e2 03 17 aa  	mov	x2, x23
    61d8: 01 00 00 90  	adrp	x1, 0x6000 <bpf_object__init_user_btf_map+0x318>
    61dc: 00 00 80 52  	mov	w0, #0
    61e0: 21 00 00 91  	add	x1, x1, #0
    61e4: b3 02 80 12  	mov	w19, #-22
    61e8: 00 00 00 94  	bl	0x61e8 <bpf_object__init_user_btf_map+0x328>
    61ec: 9d ff ff 17  	b	0x6060 <bpf_object__init_user_btf_map+0x1a0>
    61f0: 00 1f 40 39  	ldrb	w0, [x24, #7]
    61f4: e2 03 17 aa  	mov	x2, x23
    61f8: b3 02 80 12  	mov	w19, #-22
    61fc: 00 10 00 12  	and	w0, w0, #0x1f
    6200: 80 e7 ff 97  	bl	0x0 <__btf_kind_str>
    6204: 01 00 00 90  	adrp	x1, 0x6000 <bpf_object__init_user_btf_map+0x344>
    6208: e3 03 00 aa  	mov	x3, x0
    620c: 21 00 00 91  	add	x1, x1, #0
    6210: 00 00 80 52  	mov	w0, #0
    6214: 00 00 00 94  	bl	0x6214 <bpf_object__init_user_btf_map+0x354>
    6218: 92 ff ff 17  	b	0x6060 <bpf_object__init_user_btf_map+0x1a0>
    621c: e2 03 17 aa  	mov	x2, x23
    6220: 01 00 00 90  	adrp	x1, 0x6000 <bpf_object__init_user_btf_map+0x360>
    6224: 00 00 80 52  	mov	w0, #0
    6228: 21 00 00 91  	add	x1, x1, #0
    622c: b3 02 80 12  	mov	w19, #-22
    6230: 00 00 00 94  	bl	0x6230 <bpf_object__init_user_btf_map+0x370>
    6234: 8b ff ff 17  	b	0x6060 <bpf_object__init_user_btf_map+0x1a0>
    6238: 73 01 80 12  	mov	w19, #-12
    623c: 89 ff ff 17  	b	0x6060 <bpf_object__init_user_btf_map+0x1a0>
    6240: e2 03 17 aa  	mov	x2, x23
    6244: 01 00 00 90  	adrp	x1, 0x6000 <bpf_object__init_user_btf_map+0x384>
    6248: 73 01 80 12  	mov	w19, #-12
    624c: 21 00 00 91  	add	x1, x1, #0
    6250: 00 00 00 94  	bl	0x6250 <bpf_object__init_user_btf_map+0x390>
    6254: 83 ff ff 17  	b	0x6060 <bpf_object__init_user_btf_map+0x1a0>
    6258: 00 00 00 94  	bl	0x6258 <bpf_object__init_user_btf_map+0x398>
    625c: 1f 20 03 d5  	nop

0000000000006260 <bpf_map__reuse_fd>:
    6260: fd 7b b6 a9  	stp	x29, x30, [sp, #-160]!
    6264: 02 00 00 90  	adrp	x2, 0x6000 <bpf_map__reuse_fd+0x4>
    6268: 03 0a 80 52  	mov	w3, #80
    626c: 00 04 00 4f  	movi	v0.4s, #0
    6270: fd 03 00 91  	mov	x29, sp
    6274: 42 00 40 f9  	ldr	x2, [x2]
    6278: f3 53 01 a9  	stp	x19, x20, [sp, #16]
    627c: f4 23 01 91  	add	x20, sp, #72
    6280: f5 5b 02 a9  	stp	x21, x22, [sp, #32]
    6284: f6 03 01 2a  	mov	w22, w1
    6288: f5 03 00 aa  	mov	x21, x0
    628c: 40 00 40 f9  	ldr	x0, [x2]
    6290: e0 4f 00 f9  	str	x0, [sp, #152]
    6294: 00 00 80 d2  	mov	x0, #0
    6298: e1 03 14 aa  	mov	x1, x20
    629c: e0 03 16 2a  	mov	w0, w22
    62a0: e2 13 01 91  	add	x2, sp, #68
    62a4: 80 02 00 ad  	stp	q0, q0, [x20]
    62a8: 80 02 01 ad  	stp	q0, q0, [x20, #32]
    62ac: 80 12 80 3d  	str	q0, [x20, #64]
    62b0: e3 47 00 b9  	str	w3, [sp, #68]
    62b4: 00 00 00 94  	bl	0x62b4 <bpf_map__reuse_fd+0x54>
    62b8: 80 03 00 34  	cbz	w0, 0x6328 <bpf_map__reuse_fd+0xc8>
    62bc: f3 03 00 2a  	mov	w19, w0
    62c0: f7 1b 00 f9  	str	x23, [sp, #48]
    62c4: 00 00 00 94  	bl	0x62c4 <bpf_map__reuse_fd+0x64>
    62c8: f7 03 00 aa  	mov	x23, x0
    62cc: 00 00 40 b9  	ldr	w0, [x0]
    62d0: 1f 58 00 71  	cmp	w0, #22
    62d4: e0 01 00 54  	b.eq	0x6310 <bpf_map__reuse_fd+0xb0>
    62d8: 13 07 f8 37  	tbnz	w19, #31, 0x63b8 <bpf_map__reuse_fd+0x158>
    62dc: f7 1b 40 f9  	ldr	x23, [sp, #48]
    62e0: 00 00 00 90  	adrp	x0, 0x6000 <bpf_map__reuse_fd+0x80>
    62e4: 00 00 40 f9  	ldr	x0, [x0]
    62e8: e2 4f 40 f9  	ldr	x2, [sp, #152]
    62ec: 01 00 40 f9  	ldr	x1, [x0]
    62f0: 42 00 01 eb  	subs	x2, x2, x1
    62f4: 01 00 80 d2  	mov	x1, #0
    62f8: 81 08 00 54  	b.ne	0x6408 <bpf_map__reuse_fd+0x1a8>
    62fc: e0 03 13 2a  	mov	w0, w19
    6300: f3 53 41 a9  	ldp	x19, x20, [sp, #16]
    6304: f5 5b 42 a9  	ldp	x21, x22, [sp, #32]
    6308: fd 7b ca a8  	ldp	x29, x30, [sp], #160
    630c: c0 03 5f d6  	ret
    6310: e1 03 14 aa  	mov	x1, x20
    6314: e0 03 16 2a  	mov	w0, w22
    6318: b6 ec ff 97  	bl	0x15f0 <bpf_get_map_info_from_fdinfo>
    631c: f3 03 00 2a  	mov	w19, w0
    6320: c0 fd ff 35  	cbnz	w0, 0x62d8 <bpf_map__reuse_fd+0x78>
    6324: f7 1b 40 f9  	ldr	x23, [sp, #48]
    6328: e0 83 01 91  	add	x0, sp, #96
    632c: 00 00 00 94  	bl	0x632c <bpf_map__reuse_fd+0xcc>
    6330: f4 03 00 aa  	mov	x20, x0
    6334: e0 06 00 b4  	cbz	x0, 0x6410 <bpf_map__reuse_fd+0x1b0>
    6338: 01 01 a0 52  	mov	w1, #524288
    633c: 00 00 00 90  	adrp	x0, 0x6000 <bpf_map__reuse_fd+0xdc>
    6340: 00 00 00 91  	add	x0, x0, #0
    6344: 00 00 00 94  	bl	0x6344 <bpf_map__reuse_fd+0xe4>
    6348: e1 03 00 2a  	mov	w1, w0
    634c: e0 03 f8 37  	tbnz	w0, #31, 0x63c8 <bpf_map__reuse_fd+0x168>
    6350: e0 03 16 2a  	mov	w0, w22
    6354: 02 01 a0 52  	mov	w2, #524288
    6358: 00 00 00 94  	bl	0x6358 <bpf_map__reuse_fd+0xf8>
    635c: f6 03 00 2a  	mov	w22, w0
    6360: 80 04 f8 37  	tbnz	w0, #31, 0x63f0 <bpf_map__reuse_fd+0x190>
    6364: a0 0a 40 b9  	ldr	w0, [x21, #8]
    6368: a0 00 f8 37  	tbnz	w0, #31, 0x637c <bpf_map__reuse_fd+0x11c>
    636c: 00 00 00 94  	bl	0x636c <bpf_map__reuse_fd+0x10c>
    6370: 01 00 80 12  	mov	w1, #-1
    6374: a1 0a 00 b9  	str	w1, [x21, #8]
    6378: c0 03 00 35  	cbnz	w0, 0x63f0 <bpf_map__reuse_fd+0x190>
    637c: a0 02 40 f9  	ldr	x0, [x21]
    6380: 13 00 80 52  	mov	w19, #0
    6384: 00 00 00 94  	bl	0x6384 <bpf_map__reuse_fd+0x124>
    6388: b4 02 00 f9  	str	x20, [x21]
    638c: e4 4b 40 b9  	ldr	w4, [sp, #72]
    6390: 20 00 80 52  	mov	w0, #1
    6394: e3 0b 45 a9  	ldp	x3, x2, [sp, #80]
    6398: b6 0a 00 b9  	str	w22, [x21, #8]
    639c: e1 c3 48 f8  	ldur	x1, [sp, #140]
    63a0: a4 22 00 b9  	str	w4, [x21, #32]
    63a4: a3 42 02 f8  	stur	x3, [x21, #36]
    63a8: a2 c2 02 f8  	stur	x2, [x21, #44]
    63ac: a1 c2 03 f8  	stur	x1, [x21, #60]
    63b0: a0 46 02 39  	strb	w0, [x21, #145]
    63b4: cb ff ff 17  	b	0x62e0 <bpf_map__reuse_fd+0x80>
    63b8: e0 03 13 4b  	neg	w0, w19
    63bc: e0 02 00 b9  	str	w0, [x23]
    63c0: f7 1b 40 f9  	ldr	x23, [sp, #48]
    63c4: c7 ff ff 17  	b	0x62e0 <bpf_map__reuse_fd+0x80>
    63c8: 00 00 00 94  	bl	0x63c8 <bpf_map__reuse_fd+0x168>
    63cc: 13 00 40 b9  	ldr	w19, [x0]
    63d0: f3 03 13 4b  	neg	w19, w19
    63d4: e0 03 14 aa  	mov	x0, x20
    63d8: 00 00 00 94  	bl	0x63d8 <bpf_map__reuse_fd+0x178>
    63dc: 33 f8 ff 36  	tbz	w19, #31, 0x62e0 <bpf_map__reuse_fd+0x80>
    63e0: 00 00 00 94  	bl	0x63e0 <bpf_map__reuse_fd+0x180>
    63e4: e1 03 13 4b  	neg	w1, w19
    63e8: 01 00 00 b9  	str	w1, [x0]
    63ec: bd ff ff 17  	b	0x62e0 <bpf_map__reuse_fd+0x80>
    63f0: 00 00 00 94  	bl	0x63f0 <bpf_map__reuse_fd+0x190>
    63f4: 13 00 40 b9  	ldr	w19, [x0]
    63f8: e0 03 16 2a  	mov	w0, w22
    63fc: f3 03 13 4b  	neg	w19, w19
    6400: 00 00 00 94  	bl	0x6400 <bpf_map__reuse_fd+0x1a0>
    6404: f4 ff ff 17  	b	0x63d4 <bpf_map__reuse_fd+0x174>
    6408: f7 1b 00 f9  	str	x23, [sp, #48]
    640c: 00 00 00 94  	bl	0x640c <bpf_map__reuse_fd+0x1ac>
    6410: 00 00 00 94  	bl	0x6410 <bpf_map__reuse_fd+0x1b0>
    6414: 00 00 40 b9  	ldr	w0, [x0]
    6418: f3 03 00 4b  	neg	w19, w0
    641c: 1f 00 00 71  	cmp	w0, #0
    6420: 0d f6 ff 54  	b.le	0x62e0 <bpf_map__reuse_fd+0x80>
    6424: e0 03 13 2a  	mov	w0, w19
    6428: fe e9 ff 97  	bl	0xc20 <libbpf_err.part.0>
    642c: ad ff ff 17  	b	0x62e0 <bpf_map__reuse_fd+0x80>

0000000000006430 <bpf_map__max_entries>:
    6430: 00 2c 40 b9  	ldr	w0, [x0, #44]
    6434: c0 03 5f d6  	ret
    6438: 1f 20 03 d5  	nop
    643c: 1f 20 03 d5  	nop

0000000000006440 <bpf_map__inner_map>:
    6440: 01 20 40 b9  	ldr	w1, [x0, #32]
    6444: 21 30 00 51  	sub	w1, w1, #12
    6448: 3f 04 00 71  	cmp	w1, #1
    644c: 49 01 00 54  	b.ls	0x6474 <bpf_map__inner_map+0x34>
    6450: fd 7b bf a9  	stp	x29, x30, [sp, #-16]!
    6454: fd 03 00 91  	mov	x29, sp
    6458: 00 00 00 94  	bl	0x6458 <bpf_map__inner_map+0x18>
    645c: e1 03 00 aa  	mov	x1, x0
    6460: c2 02 80 52  	mov	w2, #22
    6464: 00 00 80 d2  	mov	x0, #0
    6468: 22 00 00 b9  	str	w2, [x1]
    646c: fd 7b c1 a8  	ldp	x29, x30, [sp], #16
    6470: c0 03 5f d6  	ret
    6474: 00 38 40 f9  	ldr	x0, [x0, #112]
    6478: c0 03 5f d6  	ret
    647c: 1f 20 03 d5  	nop

0000000000006480 <bpf_map__set_max_entries>:
    6480: e2 03 00 aa  	mov	x2, x0
    6484: 00 08 40 b9  	ldr	w0, [x0, #8]
    6488: 80 00 f8 36  	tbz	w0, #31, 0x6498 <bpf_map__set_max_entries+0x18>
    648c: 00 00 80 52  	mov	w0, #0
    6490: 41 2c 00 b9  	str	w1, [x2, #44]
    6494: c0 03 5f d6  	ret
    6498: fd 7b bf a9  	stp	x29, x30, [sp, #-16]!
    649c: fd 03 00 91  	mov	x29, sp
    64a0: 00 00 00 94  	bl	0x64a0 <bpf_map__set_max_entries+0x20>
    64a4: e1 03 00 aa  	mov	x1, x0
    64a8: 02 02 80 52  	mov	w2, #16
    64ac: e0 01 80 12  	mov	w0, #-16
    64b0: 22 00 00 b9  	str	w2, [x1]
    64b4: fd 7b c1 a8  	ldp	x29, x30, [sp], #16
    64b8: c0 03 5f d6  	ret
    64bc: 1f 20 03 d5  	nop

00000000000064c0 <bpf_map__resize>:
    64c0: fd 7b bf a9  	stp	x29, x30, [sp, #-16]!
    64c4: 1f 00 00 f1  	cmp	x0, #0
    64c8: 24 18 40 7a  	ccmp	w1, #0, #4, ne
    64cc: fd 03 00 91  	mov	x29, sp
    64d0: c0 01 00 54  	b.eq	0x6508 <bpf_map__resize+0x48>
    64d4: e2 03 00 aa  	mov	x2, x0
    64d8: 00 08 40 b9  	ldr	w0, [x0, #8]
    64dc: a0 00 f8 36  	tbz	w0, #31, 0x64f0 <bpf_map__resize+0x30>
    64e0: 00 00 80 52  	mov	w0, #0
    64e4: 41 2c 00 b9  	str	w1, [x2, #44]
    64e8: fd 7b c1 a8  	ldp	x29, x30, [sp], #16
    64ec: c0 03 5f d6  	ret
    64f0: 00 00 00 94  	bl	0x64f0 <bpf_map__resize+0x30>
    64f4: e1 03 00 aa  	mov	x1, x0
    64f8: 02 02 80 52  	mov	w2, #16
    64fc: e0 01 80 12  	mov	w0, #-16
    6500: 22 00 00 b9  	str	w2, [x1]
    6504: f9 ff ff 17  	b	0x64e8 <bpf_map__resize+0x28>
    6508: 00 00 00 94  	bl	0x6508 <bpf_map__resize+0x48>
    650c: e1 03 00 aa  	mov	x1, x0
    6510: c2 02 80 52  	mov	w2, #22
    6514: a0 02 80 12  	mov	w0, #-22
    6518: 22 00 00 b9  	str	w2, [x1]
    651c: f3 ff ff 17  	b	0x64e8 <bpf_map__resize+0x28>

0000000000006520 <bpf_core_essential_name_len>:
    6520: fd 7b be a9  	stp	x29, x30, [sp, #-32]!
    6524: fd 03 00 91  	mov	x29, sp
    6528: f3 0b 00 f9  	str	x19, [sp, #16]
    652c: f3 03 00 aa  	mov	x19, x0
    6530: 00 00 00 94  	bl	0x6530 <bpf_core_essential_name_len+0x10>
    6534: 02 14 00 71  	subs	w2, w0, #5
    6538: 04 03 00 54  	b.mi	0x6598 <bpf_core_essential_name_len+0x78>
    653c: 61 c2 22 8b  	add	x1, x19, w2, sxtw
    6540: 05 00 00 14  	b	0x6554 <bpf_core_essential_name_len+0x34>
    6544: 42 04 00 51  	sub	w2, w2, #1
    6548: 21 04 00 d1  	sub	x1, x1, #1
    654c: 5f 04 00 31  	cmn	w2, #1
    6550: 40 02 00 54  	b.eq	0x6598 <bpf_core_essential_name_len+0x78>
    6554: 23 00 40 39  	ldrb	w3, [x1]
    6558: 7f 7c 01 71  	cmp	w3, #95
    655c: 40 ff ff 54  	b.eq	0x6544 <bpf_core_essential_name_len+0x24>
    6560: 23 04 40 39  	ldrb	w3, [x1, #1]
    6564: 7f 7c 01 71  	cmp	w3, #95
    6568: e1 fe ff 54  	b.ne	0x6544 <bpf_core_essential_name_len+0x24>
    656c: 23 08 40 39  	ldrb	w3, [x1, #2]
    6570: 7f 7c 01 71  	cmp	w3, #95
    6574: 81 fe ff 54  	b.ne	0x6544 <bpf_core_essential_name_len+0x24>
    6578: 23 0c 40 39  	ldrb	w3, [x1, #3]
    657c: 7f 7c 01 71  	cmp	w3, #95
    6580: 21 fe ff 54  	b.ne	0x6544 <bpf_core_essential_name_len+0x24>
    6584: 23 10 40 39  	ldrb	w3, [x1, #4]
    6588: 7f 7c 01 71  	cmp	w3, #95
    658c: c0 fd ff 54  	b.eq	0x6544 <bpf_core_essential_name_len+0x24>
    6590: 42 04 00 11  	add	w2, w2, #1
    6594: 40 7c 40 93  	sxtw	x0, w2
    6598: f3 0b 40 f9  	ldr	x19, [sp, #16]
    659c: fd 7b c2 a8  	ldp	x29, x30, [sp], #32
    65a0: c0 03 5f d6  	ret

00000000000065a4 <bpf_core_add_cands>:
    65a4: ff 03 02 d1  	sub	sp, sp, #128
    65a8: fd 7b 01 a9  	stp	x29, x30, [sp, #16]
    65ac: fd 43 00 91  	add	x29, sp, #16
    65b0: f3 53 02 a9  	stp	x19, x20, [sp, #32]
    65b4: f4 03 04 2a  	mov	w20, w4
    65b8: f5 5b 03 a9  	stp	x21, x22, [sp, #48]
    65bc: f6 03 00 aa  	mov	x22, x0
    65c0: f5 03 02 aa  	mov	x21, x2
    65c4: e0 03 02 aa  	mov	x0, x2
    65c8: f7 63 04 a9  	stp	x23, x24, [sp, #64]
    65cc: f8 03 01 aa  	mov	x24, x1
    65d0: f9 6b 05 a9  	stp	x25, x26, [sp, #80]
    65d4: f9 03 05 aa  	mov	x25, x5
    65d8: e3 3f 00 f9  	str	x3, [sp, #120]
    65dc: 00 00 00 94  	bl	0x65dc <bpf_core_add_cands+0x38>
    65e0: 1f 00 14 6b  	cmp	w0, w20
    65e4: 8b 09 00 54  	b.lt	0x6714 <bpf_core_add_cands+0x170>
    65e8: f7 03 00 2a  	mov	w23, w0
    65ec: fb 73 06 a9  	stp	x27, x28, [sp, #96]
    65f0: 1b 00 00 90  	adrp	x27, 0x6000 <bpf_core_add_cands+0x4c>
    65f4: 7b 03 00 91  	add	x27, x27, #0
    65f8: 04 00 00 14  	b	0x6608 <bpf_core_add_cands+0x64>
    65fc: 94 06 00 11  	add	w20, w20, #1
    6600: ff 02 14 6b  	cmp	w23, w20
    6604: 6b 08 00 54  	b.lt	0x6710 <bpf_core_add_cands+0x16c>
    6608: e1 03 14 2a  	mov	w1, w20
    660c: e0 03 15 aa  	mov	x0, x21
    6610: 00 00 00 94  	bl	0x6610 <bpf_core_add_cands+0x6c>
    6614: f3 03 00 aa  	mov	x19, x0
    6618: c1 06 40 f9  	ldr	x1, [x22, #8]
    661c: 00 1c 40 39  	ldrb	w0, [x0, #7]
    6620: 24 1c 40 39  	ldrb	w4, [x1, #7]
    6624: 84 00 00 4a  	eor	w4, w4, w0
    6628: 9f 10 40 f2  	tst	x4, #0x1f
    662c: 81 fe ff 54  	b.ne	0x65fc <bpf_core_add_cands+0x58>
    6630: 61 02 40 b9  	ldr	w1, [x19]
    6634: e0 03 15 aa  	mov	x0, x21
    6638: 00 00 00 94  	bl	0x6638 <bpf_core_add_cands+0x94>
    663c: fc 03 00 aa  	mov	x28, x0
    6640: e0 fd ff b4  	cbz	x0, 0x65fc <bpf_core_add_cands+0x58>
    6644: 01 00 40 39  	ldrb	w1, [x0]
    6648: a1 fd ff 34  	cbz	w1, 0x65fc <bpf_core_add_cands+0x58>
    664c: 00 00 00 94  	bl	0x664c <bpf_core_add_cands+0xa8>
    6650: 1f 00 18 eb  	cmp	x0, x24
    6654: 41 fd ff 54  	b.ne	0x65fc <bpf_core_add_cands+0x58>
    6658: da 0a 40 f9  	ldr	x26, [x22, #16]
    665c: e2 03 18 aa  	mov	x2, x24
    6660: e1 03 1c aa  	mov	x1, x28
    6664: e0 03 1a aa  	mov	x0, x26
    6668: 00 00 00 94  	bl	0x6668 <bpf_core_add_cands+0xc4>
    666c: 80 fc ff 35  	cbnz	w0, 0x65fc <bpf_core_add_cands+0x58>
    6670: c0 06 40 f9  	ldr	x0, [x22, #8]
    6674: e4 03 1a aa  	mov	x4, x26
    6678: e7 03 1c aa  	mov	x7, x28
    667c: e5 03 14 2a  	mov	w5, w20
    6680: 00 1c 40 39  	ldrb	w0, [x0, #7]
    6684: 00 10 00 12  	and	w0, w0, #0x1f
    6688: 5e e6 ff 97  	bl	0x0 <__btf_kind_str>
    668c: 61 1e 40 39  	ldrb	w1, [x19, #7]
    6690: e3 03 00 aa  	mov	x3, x0
    6694: 20 10 00 12  	and	w0, w1, #0x1f
    6698: 5a e6 ff 97  	bl	0x0 <__btf_kind_str>
    669c: c2 1a 40 b9  	ldr	w2, [x22, #24]
    66a0: e1 3f 40 f9  	ldr	x1, [sp, #120]
    66a4: e1 03 00 f9  	str	x1, [sp]
    66a8: e6 03 00 aa  	mov	x6, x0
    66ac: e1 03 1b aa  	mov	x1, x27
    66b0: 40 00 80 52  	mov	w0, #2
    66b4: 00 00 00 94  	bl	0x66b4 <bpf_core_add_cands+0x110>
    66b8: 21 0b 40 b9  	ldr	w1, [x25, #8]
    66bc: 20 03 40 f9  	ldr	x0, [x25]
    66c0: 21 04 00 11  	add	w1, w1, #1
    66c4: 22 7c 40 93  	sxtw	x2, w1
    66c8: 21 7c 7b 93  	sbfiz	x1, x1, #5, #32
    66cc: ff ef 42 eb  	cmp	xzr, x2, lsr #59
    66d0: 21 03 00 54  	b.ne	0x6734 <bpf_core_add_cands+0x190>
    66d4: 00 00 00 94  	bl	0x66d4 <bpf_core_add_cands+0x130>
    66d8: e0 02 00 b4  	cbz	x0, 0x6734 <bpf_core_add_cands+0x190>
    66dc: 21 0b 40 b9  	ldr	w1, [x25, #8]
    66e0: 23 04 00 11  	add	w3, w1, #1
    66e4: 21 7c 7b 93  	sbfiz	x1, x1, #5, #32
    66e8: 02 00 01 8b  	add	x2, x0, x1
    66ec: 15 68 21 f8  	str	x21, [x0, x1]
    66f0: 53 f0 00 a9  	stp	x19, x28, [x2, #8]
    66f4: 54 18 00 b9  	str	w20, [x2, #24]
    66f8: 94 06 00 11  	add	w20, w20, #1
    66fc: 20 03 00 f9  	str	x0, [x25]
    6700: 23 0b 00 b9  	str	w3, [x25, #8]
    6704: ff 02 14 6b  	cmp	w23, w20
    6708: 0a f8 ff 54  	b.ge	0x6608 <bpf_core_add_cands+0x64>
    670c: 1f 20 03 d5  	nop
    6710: fb 73 46 a9  	ldp	x27, x28, [sp, #96]
    6714: 00 00 80 52  	mov	w0, #0
    6718: fd 7b 41 a9  	ldp	x29, x30, [sp, #16]
    671c: f3 53 42 a9  	ldp	x19, x20, [sp, #32]
    6720: f5 5b 43 a9  	ldp	x21, x22, [sp, #48]
    6724: f7 63 44 a9  	ldp	x23, x24, [sp, #64]
    6728: f9 6b 45 a9  	ldp	x25, x26, [sp, #80]
    672c: ff 03 02 91  	add	sp, sp, #128
    6730: c0 03 5f d6  	ret
    6734: 60 01 80 12  	mov	w0, #-12
    6738: fd 7b 41 a9  	ldp	x29, x30, [sp, #16]
    673c: f3 53 42 a9  	ldp	x19, x20, [sp, #32]
    6740: f5 5b 43 a9  	ldp	x21, x22, [sp, #48]
    6744: f7 63 44 a9  	ldp	x23, x24, [sp, #64]
    6748: f9 6b 45 a9  	ldp	x25, x26, [sp, #80]
    674c: fb 73 46 a9  	ldp	x27, x28, [sp, #96]
    6750: ff 03 02 91  	add	sp, sp, #128
    6754: c0 03 5f d6  	ret
    6758: 1f 20 03 d5  	nop
    675c: 1f 20 03 d5  	nop

0000000000006760 <bpf_core_types_are_compat>:
    6760: fd 7b b9 a9  	stp	x29, x30, [sp, #-112]!
    6764: fd 03 00 91  	mov	x29, sp
    6768: f3 53 01 a9  	stp	x19, x20, [sp, #16]
    676c: f3 03 02 aa  	mov	x19, x2
    6770: f4 03 00 aa  	mov	x20, x0
    6774: f5 5b 02 a9  	stp	x21, x22, [sp, #32]
    6778: f9 6b 04 a9  	stp	x25, x26, [sp, #64]
    677c: f9 03 01 2a  	mov	w25, w1
    6780: e3 07 0d 29  	stp	w3, w1, [sp, #104]
    6784: 00 00 00 94  	bl	0x6784 <bpf_core_types_are_compat+0x24>
    6788: f5 6b 40 b9  	ldr	w21, [sp, #104]
    678c: f6 03 00 aa  	mov	x22, x0
    6790: e0 03 13 aa  	mov	x0, x19
    6794: e1 03 15 2a  	mov	w1, w21
    6798: 00 00 00 94  	bl	0x6798 <bpf_core_types_are_compat+0x38>
    679c: c1 1e 40 39  	ldrb	w1, [x22, #7]
    67a0: 00 1c 40 39  	ldrb	w0, [x0, #7]
    67a4: 00 00 01 4a  	eor	w0, w0, w1
    67a8: 1f 10 40 f2  	tst	x0, #0x1f
    67ac: e1 0e 00 54  	b.ne	0x6988 <bpf_core_types_are_compat+0x228>
    67b0: f7 63 03 a9  	stp	x23, x24, [sp, #48]
    67b4: f8 b3 01 91  	add	x24, sp, #108
    67b8: f7 a3 01 91  	add	x23, sp, #104
    67bc: 16 04 80 52  	mov	w22, #32
    67c0: e1 03 19 2a  	mov	w1, w25
    67c4: e0 03 14 aa  	mov	x0, x20
    67c8: 00 00 00 94  	bl	0x67c8 <bpf_core_types_are_compat+0x68>
    67cc: f9 03 00 aa  	mov	x25, x0
    67d0: 00 1c 40 39  	ldrb	w0, [x0, #7]
    67d4: 00 10 00 12  	and	w0, w0, #0x1f
    67d8: 00 20 00 51  	sub	w0, w0, #8
    67dc: 00 3c 00 12  	and	w0, w0, #0xffff
    67e0: 1f 0c 00 71  	cmp	w0, #3
    67e4: 88 01 00 54  	b.hi	0x6814 <bpf_core_types_are_compat+0xb4>
    67e8: 21 0b 40 b9  	ldr	w1, [x25, #8]
    67ec: e0 03 14 aa  	mov	x0, x20
    67f0: e1 6f 00 b9  	str	w1, [sp, #108]
    67f4: 00 00 00 94  	bl	0x67f4 <bpf_core_types_are_compat+0x94>
    67f8: 01 1c 40 39  	ldrb	w1, [x0, #7]
    67fc: f9 03 00 aa  	mov	x25, x0
    6800: 21 10 00 12  	and	w1, w1, #0x1f
    6804: 21 20 00 51  	sub	w1, w1, #8
    6808: 21 3c 00 12  	and	w1, w1, #0xffff
    680c: 3f 0c 00 71  	cmp	w1, #3
    6810: c9 fe ff 54  	b.ls	0x67e8 <bpf_core_types_are_compat+0x88>
    6814: e1 03 15 2a  	mov	w1, w21
    6818: e0 03 13 aa  	mov	x0, x19
    681c: 04 00 00 14  	b	0x682c <bpf_core_types_are_compat+0xcc>
    6820: a1 0a 40 b9  	ldr	w1, [x21, #8]
    6824: e0 03 13 aa  	mov	x0, x19
    6828: e1 6b 00 b9  	str	w1, [sp, #104]
    682c: 00 00 00 94  	bl	0x682c <bpf_core_types_are_compat+0xcc>
    6830: 02 04 40 b9  	ldr	w2, [x0, #4]
    6834: f5 03 00 aa  	mov	x21, x0
    6838: 41 70 58 d3  	ubfx	x1, x2, #24, #5
    683c: 20 20 00 51  	sub	w0, w1, #8
    6840: 00 3c 00 12  	and	w0, w0, #0xffff
    6844: 1f 0c 00 71  	cmp	w0, #3
    6848: c9 fe ff 54  	b.ls	0x6820 <bpf_core_types_are_compat+0xc0>
    684c: 23 07 40 b9  	ldr	w3, [x25, #4]
    6850: 65 70 58 d3  	ubfx	x5, x3, #24, #5
    6854: 64 7c 18 53  	lsr	w4, w3, #24
    6858: bf 00 01 6b  	cmp	w5, w1
    685c: 21 09 00 54  	b.ne	0x6980 <bpf_core_types_are_compat+0x220>
    6860: 3f 0c 00 71  	cmp	w1, #3
    6864: 60 0c 00 54  	b.eq	0x69f0 <bpf_core_types_are_compat+0x290>
    6868: 9f 08 1e 72  	tst	w4, #0x1c
    686c: 81 01 00 54  	b.ne	0x689c <bpf_core_types_are_compat+0x13c>
    6870: 3f 04 00 71  	cmp	w1, #1
    6874: 00 0b 00 54  	b.eq	0x69d4 <bpf_core_types_are_compat+0x274>
    6878: 3f 08 00 71  	cmp	w1, #2
    687c: 01 06 00 54  	b.ne	0x693c <bpf_core_types_are_compat+0x1dc>
    6880: a1 0a 40 b9  	ldr	w1, [x21, #8]
    6884: 20 0b 40 b9  	ldr	w0, [x25, #8]
    6888: e1 03 0d 29  	stp	w1, w0, [sp, #104]
    688c: d6 06 00 71  	subs	w22, w22, #1
    6890: e0 0b 00 54  	b.eq	0x6a0c <bpf_core_types_are_compat+0x2ac>
    6894: f5 67 4d 29  	ldp	w21, w25, [sp, #104]
    6898: ca ff ff 17  	b	0x67c0 <bpf_core_types_are_compat+0x60>
    689c: 9f 04 1d 72  	tst	w4, #0x18
    68a0: c0 08 00 54  	b.eq	0x69b8 <bpf_core_types_are_compat+0x258>
    68a4: 3f 34 00 71  	cmp	w1, #13
    68a8: e1 04 00 54  	b.ne	0x6944 <bpf_core_types_are_compat+0x1e4>
    68ac: 60 3c 00 12  	and	w0, w3, #0xffff
    68b0: 1f 20 22 6b  	cmp	w0, w2, uxth
    68b4: 61 06 00 54  	b.ne	0x6980 <bpf_core_types_are_compat+0x220>
    68b8: 63 3c 00 72  	ands	w3, w3, #0xffff
    68bc: e0 02 00 54  	b.eq	0x6918 <bpf_core_types_are_compat+0x1b8>
    68c0: 63 08 00 11  	add	w3, w3, #2
    68c4: fb 2b 00 f9  	str	x27, [sp, #80]
    68c8: 1b 02 80 d2  	mov	x27, #16
    68cc: 7a 40 7d d3  	ubfiz	x26, x3, #3, #17
    68d0: 21 6b 7b b8  	ldr	w1, [x25, x27]
    68d4: e2 03 18 aa  	mov	x2, x24
    68d8: e0 03 14 aa  	mov	x0, x20
    68dc: 00 00 00 94  	bl	0x68dc <bpf_core_types_are_compat+0x17c>
    68e0: a1 6a 7b b8  	ldr	w1, [x21, x27]
    68e4: e2 03 17 aa  	mov	x2, x23
    68e8: e0 03 13 aa  	mov	x0, x19
    68ec: 7b 23 00 91  	add	x27, x27, #8
    68f0: 00 00 00 94  	bl	0x68f0 <bpf_core_types_are_compat+0x190>
    68f4: e3 07 4d 29  	ldp	w3, w1, [sp, #104]
    68f8: e2 03 13 aa  	mov	x2, x19
    68fc: e0 03 14 aa  	mov	x0, x20
    6900: 00 00 00 94  	bl	0x6900 <bpf_core_types_are_compat+0x1a0>
    6904: 1f 00 00 71  	cmp	w0, #0
    6908: cd 07 00 54  	b.le	0x6a00 <bpf_core_types_are_compat+0x2a0>
    690c: 7f 03 1a eb  	cmp	x27, x26
    6910: 01 fe ff 54  	b.ne	0x68d0 <bpf_core_types_are_compat+0x170>
    6914: fb 2b 40 f9  	ldr	x27, [sp, #80]
    6918: e2 03 18 aa  	mov	x2, x24
    691c: 21 0b 40 b9  	ldr	w1, [x25, #8]
    6920: e0 03 14 aa  	mov	x0, x20
    6924: 00 00 00 94  	bl	0x6924 <bpf_core_types_are_compat+0x1c4>
    6928: a1 0a 40 b9  	ldr	w1, [x21, #8]
    692c: e2 03 17 aa  	mov	x2, x23
    6930: e0 03 13 aa  	mov	x0, x19
    6934: 00 00 00 94  	bl	0x6934 <bpf_core_types_are_compat+0x1d4>
    6938: d5 ff ff 17  	b	0x688c <bpf_core_types_are_compat+0x12c>
    693c: 20 00 80 52  	mov	w0, #1
    6940: 01 03 00 34  	cbz	w1, 0x69a0 <bpf_core_types_are_compat+0x240>
    6944: e0 03 05 2a  	mov	w0, w5
    6948: ae e5 ff 97  	bl	0x0 <__btf_kind_str>
    694c: e4 0f 4d 29  	ldp	w4, w3, [sp, #104]
    6950: e2 03 00 aa  	mov	x2, x0
    6954: 01 00 00 90  	adrp	x1, 0x6000 <bpf_core_types_are_compat+0x1f4>
    6958: 00 00 80 52  	mov	w0, #0
    695c: 21 00 00 91  	add	x1, x1, #0
    6960: 00 00 00 94  	bl	0x6960 <bpf_core_types_are_compat+0x200>
    6964: 00 00 80 52  	mov	w0, #0
    6968: f3 53 41 a9  	ldp	x19, x20, [sp, #16]
    696c: f5 5b 42 a9  	ldp	x21, x22, [sp, #32]
    6970: f7 63 43 a9  	ldp	x23, x24, [sp, #48]
    6974: f9 6b 44 a9  	ldp	x25, x26, [sp, #64]
    6978: fd 7b c7 a8  	ldp	x29, x30, [sp], #112
    697c: c0 03 5f d6  	ret
    6980: f7 63 43 a9  	ldp	x23, x24, [sp, #48]
    6984: 1f 20 03 d5  	nop
    6988: 00 00 80 52  	mov	w0, #0
    698c: f3 53 41 a9  	ldp	x19, x20, [sp, #16]
    6990: f5 5b 42 a9  	ldp	x21, x22, [sp, #32]
    6994: f9 6b 44 a9  	ldp	x25, x26, [sp, #64]
    6998: fd 7b c7 a8  	ldp	x29, x30, [sp], #112
    699c: c0 03 5f d6  	ret
    69a0: f3 53 41 a9  	ldp	x19, x20, [sp, #16]
    69a4: f5 5b 42 a9  	ldp	x21, x22, [sp, #32]
    69a8: f7 63 43 a9  	ldp	x23, x24, [sp, #48]
    69ac: f9 6b 44 a9  	ldp	x25, x26, [sp, #64]
    69b0: fd 7b c7 a8  	ldp	x29, x30, [sp], #112
    69b4: c0 03 5f d6  	ret
    69b8: 20 00 80 52  	mov	w0, #1
    69bc: f3 53 41 a9  	ldp	x19, x20, [sp, #16]
    69c0: f5 5b 42 a9  	ldp	x21, x22, [sp, #32]
    69c4: f7 63 43 a9  	ldp	x23, x24, [sp, #48]
    69c8: f9 6b 44 a9  	ldp	x25, x26, [sp, #64]
    69cc: fd 7b c7 a8  	ldp	x29, x30, [sp], #112
    69d0: c0 03 5f d6  	ret
    69d4: 20 3b 40 39  	ldrb	w0, [x25, #14]
    69d8: 40 fd ff 35  	cbnz	w0, 0x6980 <bpf_core_types_are_compat+0x220>
    69dc: a0 3a 40 39  	ldrb	w0, [x21, #14]
    69e0: f7 63 43 a9  	ldp	x23, x24, [sp, #48]
    69e4: 1f 00 00 71  	cmp	w0, #0
    69e8: e0 17 9f 1a  	cset	w0, eq
    69ec: e8 ff ff 17  	b	0x698c <bpf_core_types_are_compat+0x22c>
    69f0: a1 0e 40 b9  	ldr	w1, [x21, #12]
    69f4: 20 0f 40 b9  	ldr	w0, [x25, #12]
    69f8: e1 03 0d 29  	stp	w1, w0, [sp, #104]
    69fc: a4 ff ff 17  	b	0x688c <bpf_core_types_are_compat+0x12c>
    6a00: f7 63 43 a9  	ldp	x23, x24, [sp, #48]
    6a04: fb 2b 40 f9  	ldr	x27, [sp, #80]
    6a08: e1 ff ff 17  	b	0x698c <bpf_core_types_are_compat+0x22c>
    6a0c: a0 02 80 12  	mov	w0, #-22
    6a10: f7 63 43 a9  	ldp	x23, x24, [sp, #48]
    6a14: de ff ff 17  	b	0x698c <bpf_core_types_are_compat+0x22c>
    6a18: 1f 20 03 d5  	nop
    6a1c: 1f 20 03 d5  	nop

0000000000006a20 <bpf_object__unload>:
    6a20: fd 7b bd a9  	stp	x29, x30, [sp, #-48]!
    6a24: fd 03 00 91  	mov	x29, sp
    6a28: e0 05 00 b4  	cbz	x0, 0x6ae4 <bpf_object__unload+0xc4>
    6a2c: f3 53 01 a9  	stp	x19, x20, [sp, #16]
    6a30: f3 03 00 aa  	mov	x19, x0
    6a34: 00 38 40 f9  	ldr	x0, [x0, #112]
    6a38: f5 5b 02 a9  	stp	x21, x22, [sp, #32]
    6a3c: 20 03 00 b4  	cbz	x0, 0x6aa0 <bpf_object__unload+0x80>
    6a40: 62 36 40 f9  	ldr	x2, [x19, #104]
    6a44: 14 00 80 d2  	mov	x20, #0
    6a48: 15 00 80 d2  	mov	x21, #0
    6a4c: 16 00 80 12  	mov	w22, #-1
    6a50: 41 00 14 8b  	add	x1, x2, x20
    6a54: b5 06 00 91  	add	x21, x21, #1
    6a58: 20 08 40 b9  	ldr	w0, [x1, #8]
    6a5c: 80 00 f8 37  	tbnz	w0, #31, 0x6a6c <bpf_object__unload+0x4c>
    6a60: 00 00 00 94  	bl	0x6a60 <bpf_object__unload+0x40>
    6a64: 62 36 40 f9  	ldr	x2, [x19, #104]
    6a68: 41 00 14 8b  	add	x1, x2, x20
    6a6c: 20 34 40 f9  	ldr	x0, [x1, #104]
    6a70: 36 08 00 b9  	str	w22, [x1, #8]
    6a74: e0 00 00 b4  	cbz	x0, 0x6a90 <bpf_object__unload+0x70>
    6a78: 00 14 40 f9  	ldr	x0, [x0, #40]
    6a7c: 00 00 00 94  	bl	0x6a7c <bpf_object__unload+0x5c>
    6a80: 62 36 40 f9  	ldr	x2, [x19, #104]
    6a84: 40 00 14 8b  	add	x0, x2, x20
    6a88: 00 34 40 f9  	ldr	x0, [x0, #104]
    6a8c: 1f 14 00 f9  	str	xzr, [x0, #40]
    6a90: 60 3a 40 f9  	ldr	x0, [x19, #112]
    6a94: 94 62 02 91  	add	x20, x20, #152
    6a98: bf 02 00 eb  	cmp	x21, x0
    6a9c: a3 fd ff 54  	b.lo	0x6a50 <bpf_object__unload+0x30>
    6aa0: 60 32 40 f9  	ldr	x0, [x19, #96]
    6aa4: 15 00 80 d2  	mov	x21, #0
    6aa8: 14 00 80 d2  	mov	x20, #0
    6aac: 20 01 00 b4  	cbz	x0, 0x6ad0 <bpf_object__unload+0xb0>
    6ab0: 60 2e 40 f9  	ldr	x0, [x19, #88]
    6ab4: 94 06 00 91  	add	x20, x20, #1
    6ab8: 00 00 15 8b  	add	x0, x0, x21
    6abc: 00 00 00 94  	bl	0x6abc <bpf_object__unload+0x9c>
    6ac0: 60 32 40 f9  	ldr	x0, [x19, #96]
    6ac4: b5 62 03 91  	add	x21, x21, #216
    6ac8: 9f 02 00 eb  	cmp	x20, x0
    6acc: 23 ff ff 54  	b.lo	0x6ab0 <bpf_object__unload+0x90>
    6ad0: f3 53 41 a9  	ldp	x19, x20, [sp, #16]
    6ad4: 00 00 80 52  	mov	w0, #0
    6ad8: f5 5b 42 a9  	ldp	x21, x22, [sp, #32]
    6adc: fd 7b c3 a8  	ldp	x29, x30, [sp], #48
    6ae0: c0 03 5f d6  	ret
    6ae4: 00 00 00 94  	bl	0x6ae4 <bpf_object__unload+0xc4>
    6ae8: e1 03 00 aa  	mov	x1, x0
    6aec: c2 02 80 52  	mov	w2, #22
    6af0: a0 02 80 12  	mov	w0, #-22
    6af4: 22 00 00 b9  	str	w2, [x1]
    6af8: f9 ff ff 17  	b	0x6adc <bpf_object__unload+0xbc>
    6afc: 1f 20 03 d5  	nop

0000000000006b00 <bpf_object__close.part.0>:
    6b00: fd 7b bd a9  	stp	x29, x30, [sp, #-48]!
    6b04: fd 03 00 91  	mov	x29, sp
    6b08: 02 e8 40 f9  	ldr	x2, [x0, #464]
    6b0c: f3 53 01 a9  	stp	x19, x20, [sp, #16]
    6b10: f3 03 00 aa  	mov	x19, x0
    6b14: f5 13 00 f9  	str	x21, [sp, #32]
    6b18: 62 00 00 b4  	cbz	x2, 0x6b24 <bpf_object__close.part.0+0x24>
    6b1c: 01 e4 40 f9  	ldr	x1, [x0, #456]
    6b20: 40 00 3f d6  	blr	x2
    6b24: 60 52 40 f9  	ldr	x0, [x19, #160]
    6b28: 15 00 80 d2  	mov	x21, #0
    6b2c: 14 00 80 d2  	mov	x20, #0
    6b30: 00 00 00 94  	bl	0x6b30 <bpf_object__close.part.0+0x30>
    6b34: e0 03 13 aa  	mov	x0, x19
    6b38: 8e e7 ff 97  	bl	0x970 <bpf_object__elf_finish>
    6b3c: e0 03 13 aa  	mov	x0, x19
    6b40: 00 00 00 94  	bl	0x6b40 <bpf_object__close.part.0+0x40>
    6b44: 60 c2 40 f9  	ldr	x0, [x19, #384]
    6b48: 00 00 00 94  	bl	0x6b48 <bpf_object__close.part.0+0x48>
    6b4c: 60 c6 40 f9  	ldr	x0, [x19, #392]
    6b50: 00 00 00 94  	bl	0x6b50 <bpf_object__close.part.0+0x50>
    6b54: 60 3a 40 f9  	ldr	x0, [x19, #112]
    6b58: 40 01 00 b4  	cbz	x0, 0x6b80 <bpf_object__close.part.0+0x80>
    6b5c: 1f 20 03 d5  	nop
    6b60: 60 36 40 f9  	ldr	x0, [x19, #104]
    6b64: 94 06 00 91  	add	x20, x20, #1
    6b68: 00 00 15 8b  	add	x0, x0, x21
    6b6c: 9a e7 ff 97  	bl	0x9d4 <bpf_map__destroy>
    6b70: 60 3a 40 f9  	ldr	x0, [x19, #112]
    6b74: b5 62 02 91  	add	x21, x21, #152
    6b78: 9f 02 00 eb  	cmp	x20, x0
    6b7c: 23 ff ff 54  	b.lo	0x6b60 <bpf_object__close.part.0+0x60>
    6b80: 60 ce 40 f9  	ldr	x0, [x19, #408]
    6b84: 00 00 00 94  	bl	0x6b84 <bpf_object__close.part.0+0x84>
    6b88: 7f ce 00 f9  	str	xzr, [x19, #408]
    6b8c: 60 42 40 f9  	ldr	x0, [x19, #128]
    6b90: 00 00 00 94  	bl	0x6b90 <bpf_object__close.part.0+0x90>
    6b94: 7f 42 00 f9  	str	xzr, [x19, #128]
    6b98: 60 46 40 f9  	ldr	x0, [x19, #136]
    6b9c: 00 00 00 94  	bl	0x6b9c <bpf_object__close.part.0+0x9c>
    6ba0: 7f 46 00 f9  	str	xzr, [x19, #136]
    6ba4: 60 36 40 f9  	ldr	x0, [x19, #104]
    6ba8: 7f 92 00 b9  	str	wzr, [x19, #144]
    6bac: 00 00 00 94  	bl	0x6bac <bpf_object__close.part.0+0xac>
    6bb0: 7f fe 06 a9  	stp	xzr, xzr, [x19, #104]
    6bb4: 60 2e 40 f9  	ldr	x0, [x19, #88]
    6bb8: c0 01 00 b4  	cbz	x0, 0x6bf0 <bpf_object__close.part.0+0xf0>
    6bbc: 61 32 40 f9  	ldr	x1, [x19, #96]
    6bc0: 81 01 00 b4  	cbz	x1, 0x6bf0 <bpf_object__close.part.0+0xf0>
    6bc4: 15 00 80 d2  	mov	x21, #0
    6bc8: 14 00 80 d2  	mov	x20, #0
    6bcc: 1f 20 03 d5  	nop
    6bd0: 00 00 15 8b  	add	x0, x0, x21
    6bd4: bf f9 ff 97  	bl	0x52d0 <bpf_program__exit>
    6bd8: 60 32 40 f9  	ldr	x0, [x19, #96]
    6bdc: 94 06 00 91  	add	x20, x20, #1
    6be0: b5 62 03 91  	add	x21, x21, #216
    6be4: 9f 02 00 eb  	cmp	x20, x0
    6be8: 60 2e 40 f9  	ldr	x0, [x19, #88]
    6bec: 23 ff ff 54  	b.lo	0x6bd0 <bpf_object__close.part.0+0xd0>
    6bf0: 00 00 00 94  	bl	0x6bf0 <bpf_object__close.part.0+0xf0>
    6bf4: 62 06 57 a9  	ldp	x2, x1, [x19, #368]
    6bf8: 41 04 00 f9  	str	x1, [x2, #8]
    6bfc: e0 03 13 aa  	mov	x0, x19
    6c00: 22 00 00 f9  	str	x2, [x1]
    6c04: f3 53 41 a9  	ldp	x19, x20, [sp, #16]
    6c08: f5 13 40 f9  	ldr	x21, [sp, #32]
    6c0c: fd 7b c3 a8  	ldp	x29, x30, [sp], #48
    6c10: 00 00 00 14  	b	0x6c10 <bpf_object__close.part.0+0x110>

0000000000006c14 <bpf_program__pin_instance>:
    6c14: fd 7b b4 a9  	stp	x29, x30, [sp, #-192]!
    6c18: 03 00 00 90  	adrp	x3, 0x6000 <bpf_program__pin_instance+0x4>
    6c1c: fd 03 00 91  	mov	x29, sp
    6c20: 63 00 40 f9  	ldr	x3, [x3]
    6c24: f3 53 01 a9  	stp	x19, x20, [sp, #16]
    6c28: f4 03 01 aa  	mov	x20, x1
    6c2c: f5 5b 02 a9  	stp	x21, x22, [sp, #32]
    6c30: f5 03 00 aa  	mov	x21, x0
    6c34: e0 03 01 aa  	mov	x0, x1
    6c38: 61 00 40 f9  	ldr	x1, [x3]
    6c3c: e1 5f 00 f9  	str	x1, [sp, #184]
    6c40: 01 00 80 d2  	mov	x1, #0
    6c44: f6 03 02 2a  	mov	w22, w2
    6c48: af f2 ff 97  	bl	0x3704 <make_parent_dir>
    6c4c: a0 02 00 34  	cbz	w0, 0x6ca0 <bpf_program__pin_instance+0x8c>
    6c50: f3 03 00 2a  	mov	w19, w0
    6c54: 1f 00 00 71  	cmp	w0, #0
    6c58: cb 01 00 54  	b.lt	0x6c90 <bpf_program__pin_instance+0x7c>
    6c5c: 00 00 00 90  	adrp	x0, 0x6000 <bpf_program__pin_instance+0x48>
    6c60: 00 00 40 f9  	ldr	x0, [x0]
    6c64: e2 5f 40 f9  	ldr	x2, [sp, #184]
    6c68: 01 00 40 f9  	ldr	x1, [x0]
    6c6c: 42 00 01 eb  	subs	x2, x2, x1
    6c70: 01 00 80 d2  	mov	x1, #0
    6c74: 81 08 00 54  	b.ne	0x6d84 <bpf_program__pin_instance+0x170>
    6c78: e0 03 13 2a  	mov	w0, w19
    6c7c: f3 53 41 a9  	ldp	x19, x20, [sp, #16]
    6c80: f5 5b 42 a9  	ldp	x21, x22, [sp, #32]
    6c84: fd 7b cc a8  	ldp	x29, x30, [sp], #192
    6c88: c0 03 5f d6  	ret
    6c8c: 8a fe ff 54  	b.ge	0x6c5c <bpf_program__pin_instance+0x48>
    6c90: 00 00 00 94  	bl	0x6c90 <bpf_program__pin_instance+0x7c>
    6c94: e1 03 13 4b  	neg	w1, w19
    6c98: 01 00 00 b9  	str	w1, [x0]
    6c9c: f0 ff ff 17  	b	0x6c5c <bpf_program__pin_instance+0x48>
    6ca0: e0 03 14 aa  	mov	x0, x20
    6ca4: d3 f2 ff 97  	bl	0x37f0 <check_path>
    6ca8: f3 03 00 2a  	mov	w19, w0
    6cac: 1f 00 00 71  	cmp	w0, #0
    6cb0: e0 fe ff 35  	cbnz	w0, 0x6c8c <bpf_program__pin_instance+0x78>
    6cb4: b5 05 00 b4  	cbz	x21, 0x6d68 <bpf_program__pin_instance+0x154>
    6cb8: a4 62 40 b9  	ldr	w4, [x21, #96]
    6cbc: 16 04 f8 37  	tbnz	w22, #31, 0x6d3c <bpf_program__pin_instance+0x128>
    6cc0: df 02 04 6b  	cmp	w22, w4
    6cc4: ca 03 00 54  	b.ge	0x6d3c <bpf_program__pin_instance+0x128>
    6cc8: a0 36 40 f9  	ldr	x0, [x21, #104]
    6ccc: e1 03 14 aa  	mov	x1, x20
    6cd0: 00 d8 76 b8  	ldr	w0, [x0, w22, sxtw #2]
    6cd4: 00 00 00 94  	bl	0x6cd4 <bpf_program__pin_instance+0xc0>
    6cd8: f3 03 00 2a  	mov	w19, w0
    6cdc: e0 00 00 35  	cbnz	w0, 0x6cf8 <bpf_program__pin_instance+0xe4>
    6ce0: e2 03 14 aa  	mov	x2, x20
    6ce4: 01 00 00 90  	adrp	x1, 0x6000 <bpf_program__pin_instance+0xd0>
    6ce8: 40 00 80 52  	mov	w0, #2
    6cec: 21 00 00 91  	add	x1, x1, #0
    6cf0: 00 00 00 94  	bl	0x6cf0 <bpf_program__pin_instance+0xdc>
    6cf4: da ff ff 17  	b	0x6c5c <bpf_program__pin_instance+0x48>
    6cf8: 00 00 00 94  	bl	0x6cf8 <bpf_program__pin_instance+0xe4>
    6cfc: 15 00 40 b9  	ldr	w21, [x0]
    6d00: e1 e3 00 91  	add	x1, sp, #56
    6d04: 02 10 80 52  	mov	w2, #128
    6d08: f3 03 15 4b  	neg	w19, w21
    6d0c: f4 03 00 aa  	mov	x20, x0
    6d10: e0 03 13 2a  	mov	w0, w19
    6d14: 00 00 00 94  	bl	0x6d14 <bpf_program__pin_instance+0x100>
    6d18: 01 00 00 90  	adrp	x1, 0x6000 <bpf_program__pin_instance+0x104>
    6d1c: e2 03 00 aa  	mov	x2, x0
    6d20: 21 00 00 91  	add	x1, x1, #0
    6d24: 00 00 80 52  	mov	w0, #0
    6d28: 00 00 00 94  	bl	0x6d28 <bpf_program__pin_instance+0x114>
    6d2c: bf 02 00 71  	cmp	w21, #0
    6d30: 6d f9 ff 54  	b.le	0x6c5c <bpf_program__pin_instance+0x48>
    6d34: 95 02 00 b9  	str	w21, [x20]
    6d38: c9 ff ff 17  	b	0x6c5c <bpf_program__pin_instance+0x48>
    6d3c: a3 1a 40 f9  	ldr	x3, [x21, #48]
    6d40: e2 03 16 2a  	mov	w2, w22
    6d44: 01 00 00 90  	adrp	x1, 0x6000 <bpf_program__pin_instance+0x130>
    6d48: 21 00 00 91  	add	x1, x1, #0
    6d4c: 00 00 80 52  	mov	w0, #0
    6d50: b3 02 80 12  	mov	w19, #-22
    6d54: 00 00 00 94  	bl	0x6d54 <bpf_program__pin_instance+0x140>
    6d58: 00 00 00 94  	bl	0x6d58 <bpf_program__pin_instance+0x144>
    6d5c: c1 02 80 52  	mov	w1, #22
    6d60: 01 00 00 b9  	str	w1, [x0]
    6d64: be ff ff 17  	b	0x6c5c <bpf_program__pin_instance+0x48>
    6d68: 01 00 00 90  	adrp	x1, 0x6000 <bpf_program__pin_instance+0x154>
    6d6c: 21 00 00 91  	add	x1, x1, #0
    6d70: 00 00 00 94  	bl	0x6d70 <bpf_program__pin_instance+0x15c>
    6d74: b3 02 80 12  	mov	w19, #-22
    6d78: e0 03 13 2a  	mov	w0, w19
    6d7c: a9 e7 ff 97  	bl	0xc20 <libbpf_err.part.0>
    6d80: b7 ff ff 17  	b	0x6c5c <bpf_program__pin_instance+0x48>
    6d84: 00 00 00 94  	bl	0x6d84 <bpf_program__pin_instance+0x170>
    6d88: 1f 20 03 d5  	nop
    6d8c: 1f 20 03 d5  	nop

0000000000006d90 <bpf_program__unpin_instance>:
    6d90: fd 7b bd a9  	stp	x29, x30, [sp, #-48]!
    6d94: fd 03 00 91  	mov	x29, sp
    6d98: f3 53 01 a9  	stp	x19, x20, [sp, #16]
    6d9c: f4 03 00 aa  	mov	x20, x0
    6da0: e0 03 01 aa  	mov	x0, x1
    6da4: f5 5b 02 a9  	stp	x21, x22, [sp, #32]
    6da8: f5 03 01 aa  	mov	x21, x1
    6dac: f6 03 02 2a  	mov	w22, w2
    6db0: 90 f2 ff 97  	bl	0x37f0 <check_path>
    6db4: a0 03 00 35  	cbnz	w0, 0x6e28 <bpf_program__unpin_instance+0x98>
    6db8: 14 06 00 b4  	cbz	x20, 0x6e78 <bpf_program__unpin_instance+0xe8>
    6dbc: 84 62 40 b9  	ldr	w4, [x20, #96]
    6dc0: df 02 00 71  	cmp	w22, #0
    6dc4: 83 1a 40 f9  	ldr	x3, [x20, #48]
    6dc8: c0 a2 44 7a  	ccmp	w22, w4, #0, ge
    6dcc: 4a 04 00 54  	b.ge	0x6e54 <bpf_program__unpin_instance+0xc4>
    6dd0: e0 03 15 aa  	mov	x0, x21
    6dd4: 00 00 00 94  	bl	0x6dd4 <bpf_program__unpin_instance+0x44>
    6dd8: f3 03 00 2a  	mov	w19, w0
    6ddc: 20 01 00 34  	cbz	w0, 0x6e00 <bpf_program__unpin_instance+0x70>
    6de0: 00 00 00 94  	bl	0x6de0 <bpf_program__unpin_instance+0x50>
    6de4: 13 00 40 b9  	ldr	w19, [x0]
    6de8: f3 03 13 4b  	neg	w19, w19
    6dec: e0 03 13 2a  	mov	w0, w19
    6df0: f3 53 41 a9  	ldp	x19, x20, [sp, #16]
    6df4: f5 5b 42 a9  	ldp	x21, x22, [sp, #32]
    6df8: fd 7b c3 a8  	ldp	x29, x30, [sp], #48
    6dfc: c0 03 5f d6  	ret
    6e00: e2 03 15 aa  	mov	x2, x21
    6e04: 40 00 80 52  	mov	w0, #2
    6e08: 01 00 00 90  	adrp	x1, 0x6000 <bpf_program__unpin_instance+0x78>
    6e0c: 21 00 00 91  	add	x1, x1, #0
    6e10: 00 00 00 94  	bl	0x6e10 <bpf_program__unpin_instance+0x80>
    6e14: e0 03 13 2a  	mov	w0, w19
    6e18: f3 53 41 a9  	ldp	x19, x20, [sp, #16]
    6e1c: f5 5b 42 a9  	ldp	x21, x22, [sp, #32]
    6e20: fd 7b c3 a8  	ldp	x29, x30, [sp], #48
    6e24: c0 03 5f d6  	ret
    6e28: f3 03 00 2a  	mov	w19, w0
    6e2c: 1f 00 00 71  	cmp	w0, #0
    6e30: ea fd ff 54  	b.ge	0x6dec <bpf_program__unpin_instance+0x5c>
    6e34: 00 00 00 94  	bl	0x6e34 <bpf_program__unpin_instance+0xa4>
    6e38: e1 03 13 4b  	neg	w1, w19
    6e3c: 01 00 00 b9  	str	w1, [x0]
    6e40: e0 03 13 2a  	mov	w0, w19
    6e44: f3 53 41 a9  	ldp	x19, x20, [sp, #16]
    6e48: f5 5b 42 a9  	ldp	x21, x22, [sp, #32]
    6e4c: fd 7b c3 a8  	ldp	x29, x30, [sp], #48
    6e50: c0 03 5f d6  	ret
    6e54: e2 03 16 2a  	mov	w2, w22
    6e58: 01 00 00 90  	adrp	x1, 0x6000 <bpf_program__unpin_instance+0xc8>
    6e5c: 21 00 00 91  	add	x1, x1, #0
    6e60: 00 00 00 94  	bl	0x6e60 <bpf_program__unpin_instance+0xd0>
    6e64: b3 02 80 12  	mov	w19, #-22
    6e68: 00 00 00 94  	bl	0x6e68 <bpf_program__unpin_instance+0xd8>
    6e6c: c1 02 80 52  	mov	w1, #22
    6e70: 01 00 00 b9  	str	w1, [x0]
    6e74: de ff ff 17  	b	0x6dec <bpf_program__unpin_instance+0x5c>
    6e78: 01 00 00 90  	adrp	x1, 0x6000 <bpf_program__unpin_instance+0xe8>
    6e7c: 21 00 00 91  	add	x1, x1, #0
    6e80: 00 00 00 94  	bl	0x6e80 <bpf_program__unpin_instance+0xf0>
    6e84: b3 02 80 12  	mov	w19, #-22
    6e88: 00 00 00 94  	bl	0x6e88 <bpf_program__unpin_instance+0xf8>
    6e8c: c1 02 80 52  	mov	w1, #22
    6e90: 01 00 00 b9  	str	w1, [x0]
    6e94: d6 ff ff 17  	b	0x6dec <bpf_program__unpin_instance+0x5c>
    6e98: 1f 20 03 d5  	nop
    6e9c: 1f 20 03 d5  	nop

0000000000006ea0 <bpf_program__pin.part.0>:
    6ea0: 0c 0c 82 d2  	mov	x12, #4192
    6ea4: ff 63 2c cb  	sub	sp, sp, x12
    6ea8: 02 00 00 90  	adrp	x2, 0x6000 <bpf_program__pin.part.0+0x8>
    6eac: fd 7b 00 a9  	stp	x29, x30, [sp]
    6eb0: fd 03 00 91  	mov	x29, sp
    6eb4: 42 00 40 f9  	ldr	x2, [x2]
    6eb8: f3 53 01 a9  	stp	x19, x20, [sp, #16]
    6ebc: 43 00 40 f9  	ldr	x3, [x2]
    6ec0: e3 2f 08 f9  	str	x3, [sp, #4184]
    6ec4: 03 00 80 d2  	mov	x3, #0
    6ec8: c0 0e 00 b4  	cbz	x0, 0x70a0 <bpf_program__pin.part.0+0x200>
    6ecc: 02 60 40 b9  	ldr	w2, [x0, #96]
    6ed0: f7 63 03 a9  	stp	x23, x24, [sp, #48]
    6ed4: f7 03 00 aa  	mov	x23, x0
    6ed8: 5f 00 00 71  	cmp	w2, #0
    6edc: cd 0c 00 54  	b.le	0x7074 <bpf_program__pin.part.0+0x1d4>
    6ee0: 5f 04 00 71  	cmp	w2, #1
    6ee4: 60 0a 00 54  	b.eq	0x7030 <bpf_program__pin.part.0+0x190>
    6ee8: f8 03 01 aa  	mov	x24, x1
    6eec: 13 00 80 52  	mov	w19, #0
    6ef0: f5 5b 02 a9  	stp	x21, x22, [sp, #32]
    6ef4: f6 63 01 91  	add	x22, sp, #88
    6ef8: f9 23 00 f9  	str	x25, [sp, #64]
    6efc: 19 00 00 90  	adrp	x25, 0x6000 <bpf_program__pin.part.0+0x5c>
    6f00: 35 03 00 91  	add	x21, x25, #0
    6f04: 0d 00 00 14  	b	0x6f38 <bpf_program__pin.part.0+0x98>
    6f08: 1f fc 3f 71  	cmp	w0, #4095
    6f0c: 8c 08 00 54  	b.gt	0x701c <bpf_program__pin.part.0+0x17c>
    6f10: e2 03 13 2a  	mov	w2, w19
    6f14: e1 03 16 aa  	mov	x1, x22
    6f18: e0 03 17 aa  	mov	x0, x23
    6f1c: 00 00 00 94  	bl	0x6f1c <bpf_program__pin.part.0+0x7c>
    6f20: f4 03 00 2a  	mov	w20, w0
    6f24: 00 08 00 35  	cbnz	w0, 0x7024 <bpf_program__pin.part.0+0x184>
    6f28: e0 62 40 b9  	ldr	w0, [x23, #96]
    6f2c: 73 06 00 11  	add	w19, w19, #1
    6f30: 7f 02 00 6b  	cmp	w19, w0
    6f34: 4a 05 00 54  	b.ge	0x6fdc <bpf_program__pin.part.0+0x13c>
    6f38: 03 00 82 d2  	mov	x3, #4096
    6f3c: e6 03 13 2a  	mov	w6, w19
    6f40: e1 03 03 aa  	mov	x1, x3
    6f44: e5 03 18 aa  	mov	x5, x24
    6f48: e4 03 15 aa  	mov	x4, x21
    6f4c: e0 03 16 aa  	mov	x0, x22
    6f50: 22 00 80 52  	mov	w2, #1
    6f54: 00 00 00 94  	bl	0x6f54 <bpf_program__pin.part.0+0xb4>
    6f58: 80 fd ff 36  	tbz	w0, #31, 0x6f08 <bpf_program__pin.part.0+0x68>
    6f5c: b4 02 80 12  	mov	w20, #-22
    6f60: 75 06 00 51  	sub	w21, w19, #1
    6f64: 33 08 00 34  	cbz	w19, 0x7068 <bpf_program__pin.part.0+0x1c8>
    6f68: 39 03 00 91  	add	x25, x25, #0
    6f6c: 1f 20 03 d5  	nop
    6f70: 03 00 82 d2  	mov	x3, #4096
    6f74: e6 03 15 2a  	mov	w6, w21
    6f78: e1 03 03 aa  	mov	x1, x3
    6f7c: e5 03 18 aa  	mov	x5, x24
    6f80: e4 03 19 aa  	mov	x4, x25
    6f84: e0 03 16 aa  	mov	x0, x22
    6f88: 22 00 80 52  	mov	w2, #1
    6f8c: 00 00 00 94  	bl	0x6f8c <bpf_program__pin.part.0+0xec>
    6f90: 1f fc 3f 71  	cmp	w0, #4095
    6f94: a8 00 00 54  	b.hi	0x6fa8 <bpf_program__pin.part.0+0x108>
    6f98: e2 03 15 2a  	mov	w2, w21
    6f9c: e1 03 16 aa  	mov	x1, x22
    6fa0: e0 03 17 aa  	mov	x0, x23
    6fa4: 00 00 00 94  	bl	0x6fa4 <bpf_program__pin.part.0+0x104>
    6fa8: b5 06 00 51  	sub	w21, w21, #1
    6fac: bf 06 00 31  	cmn	w21, #1
    6fb0: 01 fe ff 54  	b.ne	0x6f70 <bpf_program__pin.part.0+0xd0>
    6fb4: e0 03 18 aa  	mov	x0, x24
    6fb8: 00 00 00 94  	bl	0x6fb8 <bpf_program__pin.part.0+0x118>
    6fbc: 14 01 f8 36  	tbz	w20, #31, 0x6fdc <bpf_program__pin.part.0+0x13c>
    6fc0: 00 00 00 94  	bl	0x6fc0 <bpf_program__pin.part.0+0x120>
    6fc4: e1 03 14 4b  	neg	w1, w20
    6fc8: f5 5b 42 a9  	ldp	x21, x22, [sp, #32]
    6fcc: f7 63 43 a9  	ldp	x23, x24, [sp, #48]
    6fd0: f9 23 40 f9  	ldr	x25, [sp, #64]
    6fd4: 01 00 00 b9  	str	w1, [x0]
    6fd8: 04 00 00 14  	b	0x6fe8 <bpf_program__pin.part.0+0x148>
    6fdc: f5 5b 42 a9  	ldp	x21, x22, [sp, #32]
    6fe0: f7 63 43 a9  	ldp	x23, x24, [sp, #48]
    6fe4: f9 23 40 f9  	ldr	x25, [sp, #64]
    6fe8: 00 00 00 90  	adrp	x0, 0x6000 <bpf_program__pin.part.0+0x148>
    6fec: 00 00 40 f9  	ldr	x0, [x0]
    6ff0: e2 2f 48 f9  	ldr	x2, [sp, #4184]
    6ff4: 01 00 40 f9  	ldr	x1, [x0]
    6ff8: 42 00 01 eb  	subs	x2, x2, x1
    6ffc: 01 00 80 d2  	mov	x1, #0
    7000: 81 06 00 54  	b.ne	0x70d0 <bpf_program__pin.part.0+0x230>
    7004: e0 03 14 2a  	mov	w0, w20
    7008: 0c 0c 82 d2  	mov	x12, #4192
    700c: fd 7b 40 a9  	ldp	x29, x30, [sp]
    7010: f3 53 41 a9  	ldp	x19, x20, [sp, #16]
    7014: ff 63 2c 8b  	add	sp, sp, x12
    7018: c0 03 5f d6  	ret
    701c: 74 04 80 12  	mov	w20, #-36
    7020: d0 ff ff 17  	b	0x6f60 <bpf_program__pin.part.0+0xc0>
    7024: 75 06 00 51  	sub	w21, w19, #1
    7028: 13 fa ff 35  	cbnz	w19, 0x6f68 <bpf_program__pin.part.0+0xc8>
    702c: e2 ff ff 17  	b	0x6fb4 <bpf_program__pin.part.0+0x114>
    7030: 02 00 00 90  	adrp	x2, 0x7000 <bpf_program__pin.part.0+0x190>
    7034: 42 00 40 f9  	ldr	x2, [x2]
    7038: e4 2f 48 f9  	ldr	x4, [sp, #4184]
    703c: 43 00 40 f9  	ldr	x3, [x2]
    7040: 84 00 03 eb  	subs	x4, x4, x3
    7044: 03 00 80 d2  	mov	x3, #0
    7048: e1 03 00 54  	b.ne	0x70c4 <bpf_program__pin.part.0+0x224>
    704c: fd 7b 40 a9  	ldp	x29, x30, [sp]
    7050: 0c 0c 82 d2  	mov	x12, #4192
    7054: f3 53 41 a9  	ldp	x19, x20, [sp, #16]
    7058: 02 00 80 52  	mov	w2, #0
    705c: f7 63 43 a9  	ldp	x23, x24, [sp, #48]
    7060: ff 63 2c 8b  	add	sp, sp, x12
    7064: 00 00 00 14  	b	0x7064 <bpf_program__pin.part.0+0x1c4>
    7068: e0 03 18 aa  	mov	x0, x24
    706c: 00 00 00 94  	bl	0x706c <bpf_program__pin.part.0+0x1cc>
    7070: d4 ff ff 17  	b	0x6fc0 <bpf_program__pin.part.0+0x120>
    7074: e2 1a 40 f9  	ldr	x2, [x23, #48]
    7078: 01 00 00 90  	adrp	x1, 0x7000 <bpf_program__pin.part.0+0x1d8>
    707c: 21 00 00 91  	add	x1, x1, #0
    7080: 00 00 80 52  	mov	w0, #0
    7084: b4 02 80 12  	mov	w20, #-22
    7088: 00 00 00 94  	bl	0x7088 <bpf_program__pin.part.0+0x1e8>
    708c: 00 00 00 94  	bl	0x708c <bpf_program__pin.part.0+0x1ec>
    7090: c1 02 80 52  	mov	w1, #22
    7094: f7 63 43 a9  	ldp	x23, x24, [sp, #48]
    7098: 01 00 00 b9  	str	w1, [x0]
    709c: d3 ff ff 17  	b	0x6fe8 <bpf_program__pin.part.0+0x148>
    70a0: 01 00 00 90  	adrp	x1, 0x7000 <bpf_program__pin.part.0+0x200>
    70a4: 21 00 00 91  	add	x1, x1, #0
    70a8: 00 00 80 52  	mov	w0, #0
    70ac: 00 00 00 94  	bl	0x70ac <bpf_program__pin.part.0+0x20c>
    70b0: b4 02 80 12  	mov	w20, #-22
    70b4: 00 00 00 94  	bl	0x70b4 <bpf_program__pin.part.0+0x214>
    70b8: c1 02 80 52  	mov	w1, #22
    70bc: 01 00 00 b9  	str	w1, [x0]
    70c0: ca ff ff 17  	b	0x6fe8 <bpf_program__pin.part.0+0x148>
    70c4: f5 5b 02 a9  	stp	x21, x22, [sp, #32]
    70c8: f9 23 00 f9  	str	x25, [sp, #64]
    70cc: 00 00 00 94  	bl	0x70cc <bpf_program__pin.part.0+0x22c>
    70d0: f5 5b 02 a9  	stp	x21, x22, [sp, #32]
    70d4: f7 63 03 a9  	stp	x23, x24, [sp, #48]
    70d8: f9 23 00 f9  	str	x25, [sp, #64]
    70dc: 00 00 00 94  	bl	0x70dc <bpf_program__pin.part.0+0x23c>

00000000000070e0 <bpf_program__unpin.part.0>:
    70e0: 0c 0a 82 d2  	mov	x12, #4176
    70e4: ff 63 2c cb  	sub	sp, sp, x12
    70e8: 02 00 00 90  	adrp	x2, 0x7000 <bpf_program__unpin.part.0+0x8>
    70ec: fd 7b 00 a9  	stp	x29, x30, [sp]
    70f0: fd 03 00 91  	mov	x29, sp
    70f4: 42 00 40 f9  	ldr	x2, [x2]
    70f8: f3 53 01 a9  	stp	x19, x20, [sp, #16]
    70fc: 03 60 40 b9  	ldr	w3, [x0, #96]
    7100: 44 00 40 f9  	ldr	x4, [x2]
    7104: e4 27 08 f9  	str	x4, [sp, #4168]
    7108: 04 00 80 d2  	mov	x4, #0
    710c: f4 03 00 aa  	mov	x20, x0
    7110: 7f 00 00 71  	cmp	w3, #0
    7114: 6d 0a 00 54  	b.le	0x7260 <bpf_program__unpin.part.0+0x180>
    7118: 7f 04 00 71  	cmp	w3, #1
    711c: 80 08 00 54  	b.eq	0x722c <bpf_program__unpin.part.0+0x14c>
    7120: 13 00 80 52  	mov	w19, #0
    7124: f5 5b 02 a9  	stp	x21, x22, [sp, #32]
    7128: f6 03 01 aa  	mov	x22, x1
    712c: f5 23 01 91  	add	x21, sp, #72
    7130: f7 1b 00 f9  	str	x23, [sp, #48]
    7134: 17 00 00 90  	adrp	x23, 0x7000 <bpf_program__unpin.part.0+0x54>
    7138: f7 02 00 91  	add	x23, x23, #0
    713c: 0c 00 00 14  	b	0x716c <bpf_program__unpin.part.0+0x8c>
    7140: 1f fc 3f 71  	cmp	w0, #4095
    7144: 8c 05 00 54  	b.gt	0x71f4 <bpf_program__unpin.part.0+0x114>
    7148: e2 03 13 2a  	mov	w2, w19
    714c: e1 03 15 aa  	mov	x1, x21
    7150: e0 03 14 aa  	mov	x0, x20
    7154: 00 00 00 94  	bl	0x7154 <bpf_program__unpin.part.0+0x74>
    7158: 80 04 00 35  	cbnz	w0, 0x71e8 <bpf_program__unpin.part.0+0x108>
    715c: 80 62 40 b9  	ldr	w0, [x20, #96]
    7160: 73 06 00 11  	add	w19, w19, #1
    7164: 7f 02 00 6b  	cmp	w19, w0
    7168: aa 03 00 54  	b.ge	0x71dc <bpf_program__unpin.part.0+0xfc>
    716c: 03 00 82 d2  	mov	x3, #4096
    7170: e6 03 13 2a  	mov	w6, w19
    7174: e1 03 03 aa  	mov	x1, x3
    7178: e5 03 16 aa  	mov	x5, x22
    717c: e4 03 17 aa  	mov	x4, x23
    7180: e0 03 15 aa  	mov	x0, x21
    7184: 22 00 80 52  	mov	w2, #1
    7188: 00 00 00 94  	bl	0x7188 <bpf_program__unpin.part.0+0xa8>
    718c: a0 fd ff 36  	tbz	w0, #31, 0x7140 <bpf_program__unpin.part.0+0x60>
    7190: 00 00 00 94  	bl	0x7190 <bpf_program__unpin.part.0+0xb0>
    7194: e1 03 00 aa  	mov	x1, x0
    7198: c2 02 80 52  	mov	w2, #22
    719c: a0 02 80 12  	mov	w0, #-22
    71a0: f5 5b 42 a9  	ldp	x21, x22, [sp, #32]
    71a4: f7 1b 40 f9  	ldr	x23, [sp, #48]
    71a8: 22 00 00 b9  	str	w2, [x1]
    71ac: 01 00 00 90  	adrp	x1, 0x7000 <bpf_program__unpin.part.0+0xcc>
    71b0: 21 00 40 f9  	ldr	x1, [x1]
    71b4: e3 27 48 f9  	ldr	x3, [sp, #4168]
    71b8: 22 00 40 f9  	ldr	x2, [x1]
    71bc: 63 00 02 eb  	subs	x3, x3, x2
    71c0: 02 00 80 d2  	mov	x2, #0
    71c4: 41 06 00 54  	b.ne	0x728c <bpf_program__unpin.part.0+0x1ac>
    71c8: 0c 0a 82 d2  	mov	x12, #4176
    71cc: fd 7b 40 a9  	ldp	x29, x30, [sp]
    71d0: f3 53 41 a9  	ldp	x19, x20, [sp, #16]
    71d4: ff 63 2c 8b  	add	sp, sp, x12
    71d8: c0 03 5f d6  	ret
    71dc: e0 03 16 aa  	mov	x0, x22
    71e0: 00 00 00 94  	bl	0x71e0 <bpf_program__unpin.part.0+0x100>
    71e4: 80 01 00 35  	cbnz	w0, 0x7214 <bpf_program__unpin.part.0+0x134>
    71e8: f5 5b 42 a9  	ldp	x21, x22, [sp, #32]
    71ec: f7 1b 40 f9  	ldr	x23, [sp, #48]
    71f0: ef ff ff 17  	b	0x71ac <bpf_program__unpin.part.0+0xcc>
    71f4: 00 00 00 94  	bl	0x71f4 <bpf_program__unpin.part.0+0x114>
    71f8: e1 03 00 aa  	mov	x1, x0
    71fc: 82 04 80 52  	mov	w2, #36
    7200: 60 04 80 12  	mov	w0, #-36
    7204: f5 5b 42 a9  	ldp	x21, x22, [sp, #32]
    7208: f7 1b 40 f9  	ldr	x23, [sp, #48]
    720c: 22 00 00 b9  	str	w2, [x1]
    7210: e7 ff ff 17  	b	0x71ac <bpf_program__unpin.part.0+0xcc>
    7214: 00 00 00 94  	bl	0x7214 <bpf_program__unpin.part.0+0x134>
    7218: 00 00 40 b9  	ldr	w0, [x0]
    721c: f5 5b 42 a9  	ldp	x21, x22, [sp, #32]
    7220: e0 03 00 4b  	neg	w0, w0
    7224: f7 1b 40 f9  	ldr	x23, [sp, #48]
    7228: e1 ff ff 17  	b	0x71ac <bpf_program__unpin.part.0+0xcc>
    722c: 02 00 00 90  	adrp	x2, 0x7000 <bpf_program__unpin.part.0+0x14c>
    7230: 42 00 40 f9  	ldr	x2, [x2]
    7234: e4 27 48 f9  	ldr	x4, [sp, #4168]
    7238: 43 00 40 f9  	ldr	x3, [x2]
    723c: 84 00 03 eb  	subs	x4, x4, x3
    7240: 03 00 80 d2  	mov	x3, #0
    7244: 41 02 00 54  	b.ne	0x728c <bpf_program__unpin.part.0+0x1ac>
    7248: fd 7b 40 a9  	ldp	x29, x30, [sp]
    724c: 0c 0a 82 d2  	mov	x12, #4176
    7250: f3 53 41 a9  	ldp	x19, x20, [sp, #16]
    7254: 02 00 80 52  	mov	w2, #0
    7258: ff 63 2c 8b  	add	sp, sp, x12
    725c: 00 00 00 14  	b	0x725c <bpf_program__unpin.part.0+0x17c>
    7260: 82 1a 40 f9  	ldr	x2, [x20, #48]
    7264: 01 00 00 90  	adrp	x1, 0x7000 <bpf_program__unpin.part.0+0x184>
    7268: 21 00 00 91  	add	x1, x1, #0
    726c: 00 00 80 52  	mov	w0, #0
    7270: 00 00 00 94  	bl	0x7270 <bpf_program__unpin.part.0+0x190>
    7274: 00 00 00 94  	bl	0x7274 <bpf_program__unpin.part.0+0x194>
    7278: e1 03 00 aa  	mov	x1, x0
    727c: c2 02 80 52  	mov	w2, #22
    7280: a0 02 80 12  	mov	w0, #-22
    7284: 22 00 00 b9  	str	w2, [x1]
    7288: c9 ff ff 17  	b	0x71ac <bpf_program__unpin.part.0+0xcc>
    728c: f5 5b 02 a9  	stp	x21, x22, [sp, #32]
    7290: f7 1b 00 f9  	str	x23, [sp, #48]
    7294: 00 00 00 94  	bl	0x7294 <bpf_program__unpin.part.0+0x1b4>
    7298: 1f 20 03 d5  	nop
    729c: 1f 20 03 d5  	nop

00000000000072a0 <bpf_program__pin>:
    72a0: fd 7b bd a9  	stp	x29, x30, [sp, #-48]!
    72a4: fd 03 00 91  	mov	x29, sp
    72a8: f3 53 01 a9  	stp	x19, x20, [sp, #16]
    72ac: f4 03 01 aa  	mov	x20, x1
    72b0: f5 13 00 f9  	str	x21, [sp, #32]
    72b4: f5 03 00 aa  	mov	x21, x0
    72b8: e0 03 01 aa  	mov	x0, x1
    72bc: 12 f1 ff 97  	bl	0x3704 <make_parent_dir>
    72c0: 40 02 00 34  	cbz	w0, 0x7308 <bpf_program__pin+0x68>
    72c4: f3 03 00 2a  	mov	w19, w0
    72c8: 1f 00 00 71  	cmp	w0, #0
    72cc: eb 00 00 54  	b.lt	0x72e8 <bpf_program__pin+0x48>
    72d0: e0 03 13 2a  	mov	w0, w19
    72d4: f3 53 41 a9  	ldp	x19, x20, [sp, #16]
    72d8: f5 13 40 f9  	ldr	x21, [sp, #32]
    72dc: fd 7b c3 a8  	ldp	x29, x30, [sp], #48
    72e0: c0 03 5f d6  	ret
    72e4: 6a ff ff 54  	b.ge	0x72d0 <bpf_program__pin+0x30>
    72e8: 00 00 00 94  	bl	0x72e8 <bpf_program__pin+0x48>
    72ec: e1 03 13 4b  	neg	w1, w19
    72f0: 01 00 00 b9  	str	w1, [x0]
    72f4: e0 03 13 2a  	mov	w0, w19
    72f8: f3 53 41 a9  	ldp	x19, x20, [sp, #16]
    72fc: f5 13 40 f9  	ldr	x21, [sp, #32]
    7300: fd 7b c3 a8  	ldp	x29, x30, [sp], #48
    7304: c0 03 5f d6  	ret
    7308: e0 03 14 aa  	mov	x0, x20
    730c: 39 f1 ff 97  	bl	0x37f0 <check_path>
    7310: f3 03 00 2a  	mov	w19, w0
    7314: 1f 00 00 71  	cmp	w0, #0
    7318: 60 fe ff 35  	cbnz	w0, 0x72e4 <bpf_program__pin+0x44>
    731c: e1 03 14 aa  	mov	x1, x20
    7320: e0 03 15 aa  	mov	x0, x21
    7324: f3 53 41 a9  	ldp	x19, x20, [sp, #16]
    7328: f5 13 40 f9  	ldr	x21, [sp, #32]
    732c: fd 7b c3 a8  	ldp	x29, x30, [sp], #48
    7330: dc fe ff 17  	b	0x6ea0 <bpf_program__pin.part.0>

0000000000007334 <bpf_program__unpin>:
    7334: fd 7b bd a9  	stp	x29, x30, [sp, #-48]!
    7338: fd 03 00 91  	mov	x29, sp
    733c: f3 53 01 a9  	stp	x19, x20, [sp, #16]
    7340: f4 03 01 aa  	mov	x20, x1
    7344: f5 13 00 f9  	str	x21, [sp, #32]
    7348: f5 03 00 aa  	mov	x21, x0
    734c: e0 03 01 aa  	mov	x0, x1
    7350: 28 f1 ff 97  	bl	0x37f0 <check_path>
    7354: 00 01 00 35  	cbnz	w0, 0x7374 <bpf_program__unpin+0x40>
    7358: 55 02 00 b4  	cbz	x21, 0x73a0 <bpf_program__unpin+0x6c>
    735c: e1 03 14 aa  	mov	x1, x20
    7360: e0 03 15 aa  	mov	x0, x21
    7364: f3 53 41 a9  	ldp	x19, x20, [sp, #16]
    7368: f5 13 40 f9  	ldr	x21, [sp, #32]
    736c: fd 7b c3 a8  	ldp	x29, x30, [sp], #48
    7370: 5c ff ff 17  	b	0x70e0 <bpf_program__unpin.part.0>
    7374: f3 03 00 2a  	mov	w19, w0
    7378: 1f 00 00 71  	cmp	w0, #0
    737c: 8a 00 00 54  	b.ge	0x738c <bpf_program__unpin+0x58>
    7380: 00 00 00 94  	bl	0x7380 <bpf_program__unpin+0x4c>
    7384: e1 03 13 4b  	neg	w1, w19
    7388: 01 00 00 b9  	str	w1, [x0]
    738c: e0 03 13 2a  	mov	w0, w19
    7390: f3 53 41 a9  	ldp	x19, x20, [sp, #16]
    7394: f5 13 40 f9  	ldr	x21, [sp, #32]
    7398: fd 7b c3 a8  	ldp	x29, x30, [sp], #48
    739c: c0 03 5f d6  	ret
    73a0: 01 00 00 90  	adrp	x1, 0x7000 <bpf_program__unpin+0x6c>
    73a4: 21 00 00 91  	add	x1, x1, #0
    73a8: 00 00 00 94  	bl	0x73a8 <bpf_program__unpin+0x74>
    73ac: b3 02 80 12  	mov	w19, #-22
    73b0: 00 00 00 94  	bl	0x73b0 <bpf_program__unpin+0x7c>
    73b4: c1 02 80 52  	mov	w1, #22
    73b8: 01 00 00 b9  	str	w1, [x0]
    73bc: f4 ff ff 17  	b	0x738c <bpf_program__unpin+0x58>

00000000000073c0 <bpf_map__pin>:
    73c0: fd 7b b4 a9  	stp	x29, x30, [sp, #-192]!
    73c4: 02 00 00 90  	adrp	x2, 0x7000 <bpf_map__pin+0x4>
    73c8: fd 03 00 91  	mov	x29, sp
    73cc: 42 00 40 f9  	ldr	x2, [x2]
    73d0: f3 53 01 a9  	stp	x19, x20, [sp, #16]
    73d4: f4 03 00 aa  	mov	x20, x0
    73d8: 40 00 40 f9  	ldr	x0, [x2]
    73dc: e0 5f 00 f9  	str	x0, [sp, #184]
    73e0: 00 00 80 d2  	mov	x0, #0
    73e4: 34 0e 00 b4  	cbz	x20, 0x75a8 <bpf_map__pin+0x1e8>
    73e8: 93 46 40 f9  	ldr	x19, [x20, #136]
    73ec: f5 13 00 f9  	str	x21, [sp, #32]
    73f0: f5 03 01 aa  	mov	x21, x1
    73f4: 53 07 00 b4  	cbz	x19, 0x74dc <bpf_map__pin+0x11c>
    73f8: a1 00 00 b4  	cbz	x1, 0x740c <bpf_map__pin+0x4c>
    73fc: e1 03 13 aa  	mov	x1, x19
    7400: e0 03 15 aa  	mov	x0, x21
    7404: 00 00 00 94  	bl	0x7404 <bpf_map__pin+0x44>
    7408: 00 0a 00 35  	cbnz	w0, 0x7548 <bpf_map__pin+0x188>
    740c: 80 42 42 39  	ldrb	w0, [x20, #144]
    7410: a0 08 00 35  	cbnz	w0, 0x7524 <bpf_map__pin+0x164>
    7414: e0 03 13 aa  	mov	x0, x19
    7418: bb f0 ff 97  	bl	0x3704 <make_parent_dir>
    741c: f3 03 00 2a  	mov	w19, w0
    7420: 1f 00 00 71  	cmp	w0, #0
    7424: c0 01 00 34  	cbz	w0, 0x745c <bpf_map__pin+0x9c>
    7428: 0b 05 00 54  	b.lt	0x74c8 <bpf_map__pin+0x108>
    742c: f5 13 40 f9  	ldr	x21, [sp, #32]
    7430: 00 00 00 90  	adrp	x0, 0x7000 <bpf_map__pin+0x70>
    7434: 00 00 40 f9  	ldr	x0, [x0]
    7438: e2 5f 40 f9  	ldr	x2, [sp, #184]
    743c: 01 00 40 f9  	ldr	x1, [x0]
    7440: 42 00 01 eb  	subs	x2, x2, x1
    7444: 01 00 80 d2  	mov	x1, #0
    7448: 41 0d 00 54  	b.ne	0x75f0 <bpf_map__pin+0x230>
    744c: e0 03 13 2a  	mov	w0, w19
    7450: f3 53 41 a9  	ldp	x19, x20, [sp, #16]
    7454: fd 7b cc a8  	ldp	x29, x30, [sp], #192
    7458: c0 03 5f d6  	ret
    745c: 80 46 40 f9  	ldr	x0, [x20, #136]
    7460: e4 f0 ff 97  	bl	0x37f0 <check_path>
    7464: f3 03 00 2a  	mov	w19, w0
    7468: 1f 00 00 71  	cmp	w0, #0
    746c: e0 fd ff 35  	cbnz	w0, 0x7428 <bpf_map__pin+0x68>
    7470: 80 0a 40 b9  	ldr	w0, [x20, #8]
    7474: 81 46 40 f9  	ldr	x1, [x20, #136]
    7478: 00 00 00 94  	bl	0x7478 <bpf_map__pin+0xb8>
    747c: f3 03 00 2a  	mov	w19, w0
    7480: 00 04 00 34  	cbz	w0, 0x7500 <bpf_map__pin+0x140>
    7484: 00 00 00 94  	bl	0x7484 <bpf_map__pin+0xc4>
    7488: 14 00 40 b9  	ldr	w20, [x0]
    748c: e1 e3 00 91  	add	x1, sp, #56
    7490: 02 10 80 52  	mov	w2, #128
    7494: e0 03 14 2a  	mov	w0, w20
    7498: 00 00 00 94  	bl	0x7498 <bpf_map__pin+0xd8>
    749c: f3 03 14 4b  	neg	w19, w20
    74a0: e2 03 00 aa  	mov	x2, x0
    74a4: 01 00 00 90  	adrp	x1, 0x7000 <bpf_map__pin+0xe4>
    74a8: 00 00 80 52  	mov	w0, #0
    74ac: 21 00 00 91  	add	x1, x1, #0
    74b0: 00 00 00 94  	bl	0x74b0 <bpf_map__pin+0xf0>
    74b4: d3 fb ff 36  	tbz	w19, #31, 0x742c <bpf_map__pin+0x6c>
    74b8: 00 00 00 94  	bl	0x74b8 <bpf_map__pin+0xf8>
    74bc: f5 13 40 f9  	ldr	x21, [sp, #32]
    74c0: 14 00 00 b9  	str	w20, [x0]
    74c4: db ff ff 17  	b	0x7430 <bpf_map__pin+0x70>
    74c8: 00 00 00 94  	bl	0x74c8 <bpf_map__pin+0x108>
    74cc: e1 03 13 4b  	neg	w1, w19
    74d0: f5 13 40 f9  	ldr	x21, [sp, #32]
    74d4: 01 00 00 b9  	str	w1, [x0]
    74d8: d6 ff ff 17  	b	0x7430 <bpf_map__pin+0x70>
    74dc: 61 07 00 b4  	cbz	x1, 0x75c8 <bpf_map__pin+0x208>
    74e0: 80 42 42 39  	ldrb	w0, [x20, #144]
    74e4: c0 04 00 35  	cbnz	w0, 0x757c <bpf_map__pin+0x1bc>
    74e8: e0 03 01 aa  	mov	x0, x1
    74ec: 00 00 00 94  	bl	0x74ec <bpf_map__pin+0x12c>
    74f0: 80 46 00 f9  	str	x0, [x20, #136]
    74f4: f3 03 00 aa  	mov	x19, x0
    74f8: e0 f8 ff b5  	cbnz	x0, 0x7414 <bpf_map__pin+0x54>
    74fc: e2 ff ff 17  	b	0x7484 <bpf_map__pin+0xc4>
    7500: 82 46 40 f9  	ldr	x2, [x20, #136]
    7504: 20 00 80 52  	mov	w0, #1
    7508: 80 42 02 39  	strb	w0, [x20, #144]
    750c: 01 00 00 90  	adrp	x1, 0x7000 <bpf_map__pin+0x14c>
    7510: 40 00 80 52  	mov	w0, #2
    7514: 21 00 00 91  	add	x1, x1, #0
    7518: 00 00 00 94  	bl	0x7518 <bpf_map__pin+0x158>
    751c: f5 13 40 f9  	ldr	x21, [sp, #32]
    7520: c4 ff ff 17  	b	0x7430 <bpf_map__pin+0x70>
    7524: 82 02 40 f9  	ldr	x2, [x20]
    7528: e3 03 13 aa  	mov	x3, x19
    752c: 01 00 00 90  	adrp	x1, 0x7000 <bpf_map__pin+0x16c>
    7530: 40 00 80 52  	mov	w0, #2
    7534: 21 00 00 91  	add	x1, x1, #0
    7538: 13 00 80 52  	mov	w19, #0
    753c: 00 00 00 94  	bl	0x753c <bpf_map__pin+0x17c>
    7540: f5 13 40 f9  	ldr	x21, [sp, #32]
    7544: bb ff ff 17  	b	0x7430 <bpf_map__pin+0x70>
    7548: 82 02 40 f9  	ldr	x2, [x20]
    754c: e4 03 15 aa  	mov	x4, x21
    7550: e3 03 13 aa  	mov	x3, x19
    7554: 01 00 00 90  	adrp	x1, 0x7000 <bpf_map__pin+0x194>
    7558: 21 00 00 91  	add	x1, x1, #0
    755c: 00 00 80 52  	mov	w0, #0
    7560: 00 00 00 94  	bl	0x7560 <bpf_map__pin+0x1a0>
    7564: b3 02 80 12  	mov	w19, #-22
    7568: 00 00 00 94  	bl	0x7568 <bpf_map__pin+0x1a8>
    756c: c1 02 80 52  	mov	w1, #22
    7570: f5 13 40 f9  	ldr	x21, [sp, #32]
    7574: 01 00 00 b9  	str	w1, [x0]
    7578: ae ff ff 17  	b	0x7430 <bpf_map__pin+0x70>
    757c: 82 02 40 f9  	ldr	x2, [x20]
    7580: 01 00 00 90  	adrp	x1, 0x7000 <bpf_map__pin+0x1c0>
    7584: 21 00 00 91  	add	x1, x1, #0
    7588: 00 00 80 52  	mov	w0, #0
    758c: 13 02 80 12  	mov	w19, #-17
    7590: 00 00 00 94  	bl	0x7590 <bpf_map__pin+0x1d0>
    7594: 00 00 00 94  	bl	0x7594 <bpf_map__pin+0x1d4>
    7598: 21 02 80 52  	mov	w1, #17
    759c: f5 13 40 f9  	ldr	x21, [sp, #32]
    75a0: 01 00 00 b9  	str	w1, [x0]
    75a4: a3 ff ff 17  	b	0x7430 <bpf_map__pin+0x70>
    75a8: 01 00 00 90  	adrp	x1, 0x7000 <bpf_map__pin+0x1e8>
    75ac: 21 00 00 91  	add	x1, x1, #0
    75b0: 00 00 00 94  	bl	0x75b0 <bpf_map__pin+0x1f0>
    75b4: b3 02 80 12  	mov	w19, #-22
    75b8: 00 00 00 94  	bl	0x75b8 <bpf_map__pin+0x1f8>
    75bc: c1 02 80 52  	mov	w1, #22
    75c0: 01 00 00 b9  	str	w1, [x0]
    75c4: 9b ff ff 17  	b	0x7430 <bpf_map__pin+0x70>
    75c8: 82 02 40 f9  	ldr	x2, [x20]
    75cc: 01 00 00 90  	adrp	x1, 0x7000 <bpf_map__pin+0x20c>
    75d0: 21 00 00 91  	add	x1, x1, #0
    75d4: 00 00 80 52  	mov	w0, #0
    75d8: b3 02 80 12  	mov	w19, #-22
    75dc: 00 00 00 94  	bl	0x75dc <bpf_map__pin+0x21c>
    75e0: e0 03 13 2a  	mov	w0, w19
    75e4: 8f e5 ff 97  	bl	0xc20 <libbpf_err.part.0>
    75e8: f5 13 40 f9  	ldr	x21, [sp, #32]
    75ec: 91 ff ff 17  	b	0x7430 <bpf_map__pin+0x70>
    75f0: f5 13 00 f9  	str	x21, [sp, #32]
    75f4: 00 00 00 94  	bl	0x75f4 <bpf_map__pin+0x234>
    75f8: 1f 20 03 d5  	nop
    75fc: 1f 20 03 d5  	nop

0000000000007600 <bpf_map__unpin>:
    7600: fd 7b bd a9  	stp	x29, x30, [sp, #-48]!
    7604: fd 03 00 91  	mov	x29, sp
    7608: f3 53 01 a9  	stp	x19, x20, [sp, #16]
    760c: e0 09 00 b4  	cbz	x0, 0x7748 <bpf_map__unpin+0x148>
    7610: f5 13 00 f9  	str	x21, [sp, #32]
    7614: f4 03 00 aa  	mov	x20, x0
    7618: 15 44 40 f9  	ldr	x21, [x0, #136]
    761c: f3 03 01 aa  	mov	x19, x1
    7620: b5 04 00 b4  	cbz	x21, 0x76b4 <bpf_map__unpin+0xb4>
    7624: a1 00 00 b4  	cbz	x1, 0x7638 <bpf_map__unpin+0x38>
    7628: e1 03 15 aa  	mov	x1, x21
    762c: e0 03 13 aa  	mov	x0, x19
    7630: 00 00 00 94  	bl	0x7630 <bpf_map__unpin+0x30>
    7634: 00 07 00 35  	cbnz	w0, 0x7714 <bpf_map__unpin+0x114>
    7638: e0 03 15 aa  	mov	x0, x21
    763c: 6d f0 ff 97  	bl	0x37f0 <check_path>
    7640: f3 03 00 2a  	mov	w19, w0
    7644: 1f 00 00 71  	cmp	w0, #0
    7648: e0 01 00 34  	cbz	w0, 0x7684 <bpf_map__unpin+0x84>
    764c: cb 00 00 54  	b.lt	0x7664 <bpf_map__unpin+0x64>
    7650: f5 13 40 f9  	ldr	x21, [sp, #32]
    7654: e0 03 13 2a  	mov	w0, w19
    7658: f3 53 41 a9  	ldp	x19, x20, [sp, #16]
    765c: fd 7b c3 a8  	ldp	x29, x30, [sp], #48
    7660: c0 03 5f d6  	ret
    7664: 00 00 00 94  	bl	0x7664 <bpf_map__unpin+0x64>
    7668: e1 03 13 4b  	neg	w1, w19
    766c: f5 13 40 f9  	ldr	x21, [sp, #32]
    7670: 01 00 00 b9  	str	w1, [x0]
    7674: e0 03 13 2a  	mov	w0, w19
    7678: f3 53 41 a9  	ldp	x19, x20, [sp, #16]
    767c: fd 7b c3 a8  	ldp	x29, x30, [sp], #48
    7680: c0 03 5f d6  	ret
    7684: e0 03 15 aa  	mov	x0, x21
    7688: 00 00 00 94  	bl	0x7688 <bpf_map__unpin+0x88>
    768c: f3 03 00 2a  	mov	w19, w0
    7690: a0 02 00 34  	cbz	w0, 0x76e4 <bpf_map__unpin+0xe4>
    7694: 00 00 00 94  	bl	0x7694 <bpf_map__unpin+0x94>
    7698: 13 00 40 b9  	ldr	w19, [x0]
    769c: f5 13 40 f9  	ldr	x21, [sp, #32]
    76a0: f3 03 13 4b  	neg	w19, w19
    76a4: e0 03 13 2a  	mov	w0, w19
    76a8: f3 53 41 a9  	ldp	x19, x20, [sp, #16]
    76ac: fd 7b c3 a8  	ldp	x29, x30, [sp], #48
    76b0: c0 03 5f d6  	ret
    76b4: f5 03 01 aa  	mov	x21, x1
    76b8: 01 fc ff b5  	cbnz	x1, 0x7638 <bpf_map__unpin+0x38>
    76bc: 82 02 40 f9  	ldr	x2, [x20]
    76c0: 01 00 00 90  	adrp	x1, 0x7000 <bpf_map__unpin+0xc0>
    76c4: 21 00 00 91  	add	x1, x1, #0
    76c8: 00 00 80 52  	mov	w0, #0
    76cc: b3 02 80 12  	mov	w19, #-22
    76d0: 00 00 00 94  	bl	0x76d0 <bpf_map__unpin+0xd0>
    76d4: e0 03 13 2a  	mov	w0, w19
    76d8: 52 e5 ff 97  	bl	0xc20 <libbpf_err.part.0>
    76dc: f5 13 40 f9  	ldr	x21, [sp, #32]
    76e0: dd ff ff 17  	b	0x7654 <bpf_map__unpin+0x54>
    76e4: 82 02 40 f9  	ldr	x2, [x20]
    76e8: 9f 42 02 39  	strb	wzr, [x20, #144]
    76ec: e3 03 15 aa  	mov	x3, x21
    76f0: 40 00 80 52  	mov	w0, #2
    76f4: 01 00 00 90  	adrp	x1, 0x7000 <bpf_map__unpin+0xf4>
    76f8: 21 00 00 91  	add	x1, x1, #0
    76fc: 00 00 00 94  	bl	0x76fc <bpf_map__unpin+0xfc>
    7700: e0 03 13 2a  	mov	w0, w19
    7704: f3 53 41 a9  	ldp	x19, x20, [sp, #16]
    7708: f5 13 40 f9  	ldr	x21, [sp, #32]
    770c: fd 7b c3 a8  	ldp	x29, x30, [sp], #48
    7710: c0 03 5f d6  	ret
    7714: 82 02 40 f9  	ldr	x2, [x20]
    7718: e4 03 13 aa  	mov	x4, x19
    771c: e3 03 15 aa  	mov	x3, x21
    7720: 01 00 00 90  	adrp	x1, 0x7000 <bpf_map__unpin+0x120>
    7724: 21 00 00 91  	add	x1, x1, #0
    7728: 00 00 80 52  	mov	w0, #0
    772c: 00 00 00 94  	bl	0x772c <bpf_map__unpin+0x12c>
    7730: b3 02 80 12  	mov	w19, #-22
    7734: 00 00 00 94  	bl	0x7734 <bpf_map__unpin+0x134>
    7738: c1 02 80 52  	mov	w1, #22
    773c: f5 13 40 f9  	ldr	x21, [sp, #32]
    7740: 01 00 00 b9  	str	w1, [x0]
    7744: c4 ff ff 17  	b	0x7654 <bpf_map__unpin+0x54>
    7748: 01 00 00 90  	adrp	x1, 0x7000 <bpf_map__unpin+0x148>
    774c: 21 00 00 91  	add	x1, x1, #0
    7750: 00 00 80 52  	mov	w0, #0
    7754: 00 00 00 94  	bl	0x7754 <bpf_map__unpin+0x154>
    7758: b3 02 80 12  	mov	w19, #-22
    775c: 00 00 00 94  	bl	0x775c <bpf_map__unpin+0x15c>
    7760: c1 02 80 52  	mov	w1, #22
    7764: 01 00 00 b9  	str	w1, [x0]
    7768: bb ff ff 17  	b	0x7654 <bpf_map__unpin+0x54>
    776c: 1f 20 03 d5  	nop

0000000000007770 <bpf_map__set_pin_path>:
    7770: fd 7b be a9  	stp	x29, x30, [sp, #-32]!
    7774: fd 03 00 91  	mov	x29, sp
    7778: f3 53 01 a9  	stp	x19, x20, [sp, #16]
    777c: f4 03 00 aa  	mov	x20, x0
    7780: f3 03 01 aa  	mov	x19, x1
    7784: a1 00 00 b4  	cbz	x1, 0x7798 <bpf_map__set_pin_path+0x28>
    7788: e0 03 01 aa  	mov	x0, x1
    778c: 00 00 00 94  	bl	0x778c <bpf_map__set_pin_path+0x1c>
    7790: f3 03 00 aa  	mov	x19, x0
    7794: 00 01 00 b4  	cbz	x0, 0x77b4 <bpf_map__set_pin_path+0x44>
    7798: 80 46 40 f9  	ldr	x0, [x20, #136]
    779c: 00 00 00 94  	bl	0x779c <bpf_map__set_pin_path+0x2c>
    77a0: 93 46 00 f9  	str	x19, [x20, #136]
    77a4: 00 00 80 52  	mov	w0, #0
    77a8: f3 53 41 a9  	ldp	x19, x20, [sp, #16]
    77ac: fd 7b c2 a8  	ldp	x29, x30, [sp], #32
    77b0: c0 03 5f d6  	ret
    77b4: f3 53 41 a9  	ldp	x19, x20, [sp, #16]
    77b8: fd 7b c2 a8  	ldp	x29, x30, [sp], #32
    77bc: 52 e6 ff 17  	b	0x1104 <bpf_map__set_pin_path.part.0>

00000000000077c0 <bpf_map__get_pin_path>:
    77c0: 00 44 40 f9  	ldr	x0, [x0, #136]
    77c4: c0 03 5f d6  	ret
    77c8: 1f 20 03 d5  	nop
    77cc: 1f 20 03 d5  	nop

00000000000077d0 <bpf_map__pin_path>:
    77d0: 00 44 40 f9  	ldr	x0, [x0, #136]
    77d4: c0 03 5f d6  	ret
    77d8: 1f 20 03 d5  	nop
    77dc: 1f 20 03 d5  	nop

00000000000077e0 <bpf_map__is_pinned>:
    77e0: 00 40 42 39  	ldrb	w0, [x0, #144]
    77e4: c0 03 5f d6  	ret
    77e8: 1f 20 03 d5  	nop
    77ec: 1f 20 03 d5  	nop

00000000000077f0 <bpf_object__pin_maps>:
    77f0: 0c 0c 82 d2  	mov	x12, #4192
    77f4: ff 63 2c cb  	sub	sp, sp, x12
    77f8: 02 00 00 90  	adrp	x2, 0x7000 <bpf_object__pin_maps+0x8>
    77fc: fd 7b 00 a9  	stp	x29, x30, [sp]
    7800: fd 03 00 91  	mov	x29, sp
    7804: 42 00 40 f9  	ldr	x2, [x2]
    7808: f3 53 01 a9  	stp	x19, x20, [sp, #16]
    780c: f4 03 00 aa  	mov	x20, x0
    7810: f9 6b 04 a9  	stp	x25, x26, [sp, #64]
    7814: 40 00 40 f9  	ldr	x0, [x2]
    7818: e0 2f 08 f9  	str	x0, [sp, #4184]
    781c: 00 00 80 d2  	mov	x0, #0
    7820: d4 0c 00 b4  	cbz	x20, 0x79b8 <bpf_object__pin_maps+0x1c8>
    7824: 80 72 42 39  	ldrb	w0, [x20, #156]
    7828: 80 0b 00 34  	cbz	w0, 0x7998 <bpf_object__pin_maps+0x1a8>
    782c: 93 36 40 f9  	ldr	x19, [x20, #104]
    7830: 53 03 00 b4  	cbz	x19, 0x7898 <bpf_object__pin_maps+0xa8>
    7834: 3f 00 00 f1  	cmp	x1, #0
    7838: f7 63 03 a9  	stp	x23, x24, [sp, #48]
    783c: f8 63 01 91  	add	x24, sp, #88
    7840: 19 00 00 90  	adrp	x25, 0x7000 <bpf_object__pin_maps+0x50>
    7844: 39 03 00 91  	add	x25, x25, #0
    7848: f5 5b 02 a9  	stp	x21, x22, [sp, #32]
    784c: f5 03 01 aa  	mov	x21, x1
    7850: 16 13 9f 9a  	csel	x22, x24, xzr, ne
    7854: f7 0b 80 52  	mov	w23, #95
    7858: 95 06 00 b5  	cbnz	x21, 0x7928 <bpf_object__pin_maps+0x138>
    785c: 60 46 40 f9  	ldr	x0, [x19, #136]
    7860: c0 00 00 b4  	cbz	x0, 0x7878 <bpf_object__pin_maps+0x88>
    7864: e1 03 16 aa  	mov	x1, x22
    7868: e0 03 13 aa  	mov	x0, x19
    786c: 00 00 00 94  	bl	0x786c <bpf_object__pin_maps+0x7c>
    7870: fa 03 00 2a  	mov	w26, w0
    7874: 20 03 00 35  	cbnz	w0, 0x78d8 <bpf_object__pin_maps+0xe8>
    7878: e0 03 13 aa  	mov	x0, x19
    787c: e1 03 14 aa  	mov	x1, x20
    7880: 22 00 80 52  	mov	w2, #1
    7884: 23 f0 ff 97  	bl	0x3910 <__bpf_map__iter>
    7888: f3 03 00 aa  	mov	x19, x0
    788c: 60 fe ff b5  	cbnz	x0, 0x7858 <bpf_object__pin_maps+0x68>
    7890: f5 5b 42 a9  	ldp	x21, x22, [sp, #32]
    7894: f7 63 43 a9  	ldp	x23, x24, [sp, #48]
    7898: 1a 00 80 52  	mov	w26, #0
    789c: 00 00 00 90  	adrp	x0, 0x7000 <bpf_object__pin_maps+0xac>
    78a0: 00 00 40 f9  	ldr	x0, [x0]
    78a4: e2 2f 48 f9  	ldr	x2, [sp, #4184]
    78a8: 01 00 40 f9  	ldr	x1, [x0]
    78ac: 42 00 01 eb  	subs	x2, x2, x1
    78b0: 01 00 80 d2  	mov	x1, #0
    78b4: c1 08 00 54  	b.ne	0x79cc <bpf_object__pin_maps+0x1dc>
    78b8: e0 03 1a 2a  	mov	w0, w26
    78bc: 0c 0c 82 d2  	mov	x12, #4192
    78c0: fd 7b 40 a9  	ldp	x29, x30, [sp]
    78c4: f3 53 41 a9  	ldp	x19, x20, [sp, #16]
    78c8: f9 6b 44 a9  	ldp	x25, x26, [sp, #64]
    78cc: ff 63 2c 8b  	add	sp, sp, x12
    78d0: c0 03 5f d6  	ret
    78d4: ba 02 80 12  	mov	w26, #-22
    78d8: e0 03 13 aa  	mov	x0, x19
    78dc: e1 03 14 aa  	mov	x1, x20
    78e0: 02 00 80 12  	mov	w2, #-1
    78e4: 0b f0 ff 97  	bl	0x3910 <__bpf_map__iter>
    78e8: f3 03 00 aa  	mov	x19, x0
    78ec: 60 01 00 b4  	cbz	x0, 0x7918 <bpf_object__pin_maps+0x128>
    78f0: 61 46 40 f9  	ldr	x1, [x19, #136]
    78f4: 21 ff ff b4  	cbz	x1, 0x78d8 <bpf_object__pin_maps+0xe8>
    78f8: 01 00 80 d2  	mov	x1, #0
    78fc: 00 00 00 94  	bl	0x78fc <bpf_object__pin_maps+0x10c>
    7900: e0 03 13 aa  	mov	x0, x19
    7904: e1 03 14 aa  	mov	x1, x20
    7908: 02 00 80 12  	mov	w2, #-1
    790c: 01 f0 ff 97  	bl	0x3910 <__bpf_map__iter>
    7910: f3 03 00 aa  	mov	x19, x0
    7914: e0 fe ff b5  	cbnz	x0, 0x78f0 <bpf_object__pin_maps+0x100>
    7918: 1a 03 f8 37  	tbnz	w26, #31, 0x7978 <bpf_object__pin_maps+0x188>
    791c: f5 5b 42 a9  	ldp	x21, x22, [sp, #32]
    7920: f7 63 43 a9  	ldp	x23, x24, [sp, #48]
    7924: de ff ff 17  	b	0x789c <bpf_object__pin_maps+0xac>
    7928: 66 02 40 f9  	ldr	x6, [x19]
    792c: 03 00 82 d2  	mov	x3, #4096
    7930: e5 03 15 aa  	mov	x5, x21
    7934: e1 03 03 aa  	mov	x1, x3
    7938: e4 03 19 aa  	mov	x4, x25
    793c: e0 03 18 aa  	mov	x0, x24
    7940: 22 00 80 52  	mov	w2, #1
    7944: 00 00 00 94  	bl	0x7944 <bpf_object__pin_maps+0x154>
    7948: 60 fc ff 37  	tbnz	w0, #31, 0x78d4 <bpf_object__pin_maps+0xe4>
    794c: 1f fc 3f 71  	cmp	w0, #4095
    7950: 0c 02 00 54  	b.gt	0x7990 <bpf_object__pin_maps+0x1a0>
    7954: e2 63 41 39  	ldrb	w2, [sp, #88]
    7958: 62 f8 ff 34  	cbz	w2, 0x7864 <bpf_object__pin_maps+0x74>
    795c: e3 03 18 aa  	mov	x3, x24
    7960: 5f b8 00 71  	cmp	w2, #46
    7964: 41 00 00 54  	b.ne	0x796c <bpf_object__pin_maps+0x17c>
    7968: 77 00 00 39  	strb	w23, [x3]
    796c: 62 1c 40 38  	ldrb	w2, [x3, #1]!
    7970: 82 ff ff 35  	cbnz	w2, 0x7960 <bpf_object__pin_maps+0x170>
    7974: bc ff ff 17  	b	0x7864 <bpf_object__pin_maps+0x74>
    7978: 00 00 00 94  	bl	0x7978 <bpf_object__pin_maps+0x188>
    797c: e1 03 1a 4b  	neg	w1, w26
    7980: f5 5b 42 a9  	ldp	x21, x22, [sp, #32]
    7984: f7 63 43 a9  	ldp	x23, x24, [sp, #48]
    7988: 01 00 00 b9  	str	w1, [x0]
    798c: c4 ff ff 17  	b	0x789c <bpf_object__pin_maps+0xac>
    7990: 7a 04 80 12  	mov	w26, #-36
    7994: d1 ff ff 17  	b	0x78d8 <bpf_object__pin_maps+0xe8>
    7998: 01 00 00 90  	adrp	x1, 0x7000 <bpf_object__pin_maps+0x1a8>
    799c: 21 00 00 91  	add	x1, x1, #0
    79a0: 00 00 00 94  	bl	0x79a0 <bpf_object__pin_maps+0x1b0>
    79a4: 3a 00 80 12  	mov	w26, #-2
    79a8: 00 00 00 94  	bl	0x79a8 <bpf_object__pin_maps+0x1b8>
    79ac: 41 00 80 52  	mov	w1, #2
    79b0: 01 00 00 b9  	str	w1, [x0]
    79b4: ba ff ff 17  	b	0x789c <bpf_object__pin_maps+0xac>
    79b8: 00 00 00 94  	bl	0x79b8 <bpf_object__pin_maps+0x1c8>
    79bc: 3a 00 80 12  	mov	w26, #-2
    79c0: 41 00 80 52  	mov	w1, #2
    79c4: 01 00 00 b9  	str	w1, [x0]
    79c8: b5 ff ff 17  	b	0x789c <bpf_object__pin_maps+0xac>
    79cc: f5 5b 02 a9  	stp	x21, x22, [sp, #32]
    79d0: f7 63 03 a9  	stp	x23, x24, [sp, #48]
    79d4: 00 00 00 94  	bl	0x79d4 <bpf_object__pin_maps+0x1e4>
    79d8: 1f 20 03 d5  	nop
    79dc: 1f 20 03 d5  	nop

00000000000079e0 <bpf_object__unpin_maps>:
    79e0: 0c 0c 82 d2  	mov	x12, #4192
    79e4: ff 63 2c cb  	sub	sp, sp, x12
    79e8: 02 00 00 90  	adrp	x2, 0x7000 <bpf_object__unpin_maps+0x8>
    79ec: fd 7b 00 a9  	stp	x29, x30, [sp]
    79f0: fd 03 00 91  	mov	x29, sp
    79f4: 42 00 40 f9  	ldr	x2, [x2]
    79f8: f5 5b 02 a9  	stp	x21, x22, [sp, #32]
    79fc: f5 03 00 aa  	mov	x21, x0
    7a00: f9 6b 04 a9  	stp	x25, x26, [sp, #64]
    7a04: 40 00 40 f9  	ldr	x0, [x2]
    7a08: e0 2f 08 f9  	str	x0, [sp, #4184]
    7a0c: 00 00 80 d2  	mov	x0, #0
    7a10: b5 0b 00 b4  	cbz	x21, 0x7b84 <bpf_object__unpin_maps+0x1a4>
    7a14: f3 53 01 a9  	stp	x19, x20, [sp, #16]
    7a18: b3 36 40 f9  	ldr	x19, [x21, #104]
    7a1c: 33 03 00 b4  	cbz	x19, 0x7a80 <bpf_object__unpin_maps+0xa0>
    7a20: 3f 00 00 f1  	cmp	x1, #0
    7a24: f7 63 03 a9  	stp	x23, x24, [sp, #48]
    7a28: f8 63 01 91  	add	x24, sp, #88
    7a2c: 19 00 00 90  	adrp	x25, 0x7000 <bpf_object__unpin_maps+0x4c>
    7a30: f4 03 01 aa  	mov	x20, x1
    7a34: 16 13 9f 9a  	csel	x22, x24, xzr, ne
    7a38: 39 03 00 91  	add	x25, x25, #0
    7a3c: f7 0b 80 52  	mov	w23, #95
    7a40: 14 04 00 b5  	cbnz	x20, 0x7ac0 <bpf_object__unpin_maps+0xe0>
    7a44: 60 46 40 f9  	ldr	x0, [x19, #136]
    7a48: e0 00 00 b4  	cbz	x0, 0x7a64 <bpf_object__unpin_maps+0x84>
    7a4c: e1 03 16 aa  	mov	x1, x22
    7a50: e0 03 13 aa  	mov	x0, x19
    7a54: 00 00 00 94  	bl	0x7a54 <bpf_object__unpin_maps+0x74>
    7a58: fa 03 00 2a  	mov	w26, w0
    7a5c: 1f 00 00 71  	cmp	w0, #0
    7a60: 20 06 00 35  	cbnz	w0, 0x7b24 <bpf_object__unpin_maps+0x144>
    7a64: e0 03 13 aa  	mov	x0, x19
    7a68: e1 03 15 aa  	mov	x1, x21
    7a6c: 22 00 80 52  	mov	w2, #1
    7a70: a8 ef ff 97  	bl	0x3910 <__bpf_map__iter>
    7a74: f3 03 00 aa  	mov	x19, x0
    7a78: 40 fe ff b5  	cbnz	x0, 0x7a40 <bpf_object__unpin_maps+0x60>
    7a7c: f7 63 43 a9  	ldp	x23, x24, [sp, #48]
    7a80: 1a 00 80 52  	mov	w26, #0
    7a84: f3 53 41 a9  	ldp	x19, x20, [sp, #16]
    7a88: 00 00 00 90  	adrp	x0, 0x7000 <bpf_object__unpin_maps+0xa8>
    7a8c: 00 00 40 f9  	ldr	x0, [x0]
    7a90: e2 2f 48 f9  	ldr	x2, [sp, #4184]
    7a94: 01 00 40 f9  	ldr	x1, [x0]
    7a98: 42 00 01 eb  	subs	x2, x2, x1
    7a9c: 01 00 80 d2  	mov	x1, #0
    7aa0: c1 07 00 54  	b.ne	0x7b98 <bpf_object__unpin_maps+0x1b8>
    7aa4: e0 03 1a 2a  	mov	w0, w26
    7aa8: 0c 0c 82 d2  	mov	x12, #4192
    7aac: fd 7b 40 a9  	ldp	x29, x30, [sp]
    7ab0: f5 5b 42 a9  	ldp	x21, x22, [sp, #32]
    7ab4: f9 6b 44 a9  	ldp	x25, x26, [sp, #64]
    7ab8: ff 63 2c 8b  	add	sp, sp, x12
    7abc: c0 03 5f d6  	ret
    7ac0: 66 02 40 f9  	ldr	x6, [x19]
    7ac4: 03 00 82 d2  	mov	x3, #4096
    7ac8: e5 03 14 aa  	mov	x5, x20
    7acc: e1 03 03 aa  	mov	x1, x3
    7ad0: e4 03 19 aa  	mov	x4, x25
    7ad4: e0 03 18 aa  	mov	x0, x24
    7ad8: 22 00 80 52  	mov	w2, #1
    7adc: 00 00 00 94  	bl	0x7adc <bpf_object__unpin_maps+0xfc>
    7ae0: 60 03 f8 37  	tbnz	w0, #31, 0x7b4c <bpf_object__unpin_maps+0x16c>
    7ae4: 1f fc 3f 71  	cmp	w0, #4095
    7ae8: 0c 04 00 54  	b.gt	0x7b68 <bpf_object__unpin_maps+0x188>
    7aec: e2 63 41 39  	ldrb	w2, [sp, #88]
    7af0: e3 03 18 aa  	mov	x3, x24
    7af4: c2 fa ff 34  	cbz	w2, 0x7a4c <bpf_object__unpin_maps+0x6c>
    7af8: 5f b8 00 71  	cmp	w2, #46
    7afc: 41 00 00 54  	b.ne	0x7b04 <bpf_object__unpin_maps+0x124>
    7b00: 77 00 00 39  	strb	w23, [x3]
    7b04: 62 1c 40 38  	ldrb	w2, [x3, #1]!
    7b08: 82 ff ff 35  	cbnz	w2, 0x7af8 <bpf_object__unpin_maps+0x118>
    7b0c: e1 03 16 aa  	mov	x1, x22
    7b10: e0 03 13 aa  	mov	x0, x19
    7b14: 00 00 00 94  	bl	0x7b14 <bpf_object__unpin_maps+0x134>
    7b18: fa 03 00 2a  	mov	w26, w0
    7b1c: 1f 00 00 71  	cmp	w0, #0
    7b20: 20 fa ff 34  	cbz	w0, 0x7a64 <bpf_object__unpin_maps+0x84>
    7b24: 8b 00 00 54  	b.lt	0x7b34 <bpf_object__unpin_maps+0x154>
    7b28: f3 53 41 a9  	ldp	x19, x20, [sp, #16]
    7b2c: f7 63 43 a9  	ldp	x23, x24, [sp, #48]
    7b30: d6 ff ff 17  	b	0x7a88 <bpf_object__unpin_maps+0xa8>
    7b34: 00 00 00 94  	bl	0x7b34 <bpf_object__unpin_maps+0x154>
    7b38: e1 03 1a 4b  	neg	w1, w26
    7b3c: f3 53 41 a9  	ldp	x19, x20, [sp, #16]
    7b40: f7 63 43 a9  	ldp	x23, x24, [sp, #48]
    7b44: 01 00 00 b9  	str	w1, [x0]
    7b48: d0 ff ff 17  	b	0x7a88 <bpf_object__unpin_maps+0xa8>
    7b4c: 00 00 00 94  	bl	0x7b4c <bpf_object__unpin_maps+0x16c>
    7b50: ba 02 80 12  	mov	w26, #-22
    7b54: c1 02 80 52  	mov	w1, #22
    7b58: f3 53 41 a9  	ldp	x19, x20, [sp, #16]
    7b5c: f7 63 43 a9  	ldp	x23, x24, [sp, #48]
    7b60: 01 00 00 b9  	str	w1, [x0]
    7b64: c9 ff ff 17  	b	0x7a88 <bpf_object__unpin_maps+0xa8>
    7b68: 00 00 00 94  	bl	0x7b68 <bpf_object__unpin_maps+0x188>
    7b6c: 7a 04 80 12  	mov	w26, #-36
    7b70: 81 04 80 52  	mov	w1, #36
    7b74: f3 53 41 a9  	ldp	x19, x20, [sp, #16]
    7b78: f7 63 43 a9  	ldp	x23, x24, [sp, #48]
    7b7c: 01 00 00 b9  	str	w1, [x0]
    7b80: c2 ff ff 17  	b	0x7a88 <bpf_object__unpin_maps+0xa8>
    7b84: 00 00 00 94  	bl	0x7b84 <bpf_object__unpin_maps+0x1a4>
    7b88: 3a 00 80 12  	mov	w26, #-2
    7b8c: 41 00 80 52  	mov	w1, #2
    7b90: 01 00 00 b9  	str	w1, [x0]
    7b94: bd ff ff 17  	b	0x7a88 <bpf_object__unpin_maps+0xa8>
    7b98: f3 53 01 a9  	stp	x19, x20, [sp, #16]
    7b9c: f7 63 03 a9  	stp	x23, x24, [sp, #48]
    7ba0: 00 00 00 94  	bl	0x7ba0 <bpf_object__unpin_maps+0x1c0>

0000000000007ba4 <bpf_object__close>:
    7ba4: 80 00 00 b4  	cbz	x0, 0x7bb4 <bpf_object__close+0x10>
    7ba8: 1f 04 40 b1  	cmn	x0, #1, lsl #12         // =4096
    7bac: 48 00 00 54  	b.hi	0x7bb4 <bpf_object__close+0x10>
    7bb0: d4 fb ff 17  	b	0x6b00 <bpf_object__close.part.0>
    7bb4: c0 03 5f d6  	ret
    7bb8: 1f 20 03 d5  	nop
    7bbc: 1f 20 03 d5  	nop

0000000000007bc0 <bpf_object__next>:
    7bc0: 40 01 00 b4  	cbz	x0, 0x7be8 <bpf_object__next+0x28>
    7bc4: 00 b8 40 f9  	ldr	x0, [x0, #368]
    7bc8: 01 00 00 90  	adrp	x1, 0x7000 <bpf_object__next+0x8>
    7bcc: 21 00 00 91  	add	x1, x1, #0
    7bd0: 00 c0 05 d1  	sub	x0, x0, #368
    7bd4: 21 00 05 91  	add	x1, x1, #320
    7bd8: 02 c0 05 91  	add	x2, x0, #368
    7bdc: 5f 00 01 eb  	cmp	x2, x1
    7be0: 00 10 9f 9a  	csel	x0, x0, xzr, ne
    7be4: c0 03 5f d6  	ret
    7be8: 01 00 00 90  	adrp	x1, 0x7000 <bpf_object__next+0x28>
    7bec: 20 00 00 91  	add	x0, x1, #0
    7bf0: 21 00 00 91  	add	x1, x1, #0
    7bf4: 21 00 05 91  	add	x1, x1, #320
    7bf8: 00 a0 40 f9  	ldr	x0, [x0, #320]
    7bfc: 00 c0 05 d1  	sub	x0, x0, #368
    7c00: 02 c0 05 91  	add	x2, x0, #368
    7c04: 5f 00 01 eb  	cmp	x2, x1
    7c08: 00 10 9f 9a  	csel	x0, x0, xzr, ne
    7c0c: c0 03 5f d6  	ret

0000000000007c10 <bpf_object__name>:
    7c10: 40 00 00 b4  	cbz	x0, 0x7c18 <bpf_object__name+0x8>
    7c14: c0 03 5f d6  	ret
    7c18: fd 7b bf a9  	stp	x29, x30, [sp, #-16]!
    7c1c: fd 03 00 91  	mov	x29, sp
    7c20: 00 00 00 94  	bl	0x7c20 <bpf_object__name+0x10>
    7c24: c3 02 80 52  	mov	w3, #22
    7c28: 02 00 00 90  	adrp	x2, 0x7000 <bpf_object__name+0x18>
    7c2c: 03 00 00 b9  	str	w3, [x0]
    7c30: a1 02 80 92  	mov	x1, #-22
    7c34: 40 00 40 b9  	ldr	w0, [x2]
    7c38: fd 7b c1 a8  	ldp	x29, x30, [sp], #16
    7c3c: 1f 00 40 f2  	tst	x0, #0x1
    7c40: e0 13 81 9a  	csel	x0, xzr, x1, ne
    7c44: c0 03 5f d6  	ret
    7c48: 1f 20 03 d5  	nop
    7c4c: 1f 20 03 d5  	nop

0000000000007c50 <bpf_object__kversion>:
    7c50: 60 00 00 b4  	cbz	x0, 0x7c5c <bpf_object__kversion+0xc>
    7c54: 00 50 40 b9  	ldr	w0, [x0, #80]
    7c58: c0 03 5f d6  	ret
    7c5c: 00 00 80 52  	mov	w0, #0
    7c60: c0 03 5f d6  	ret

0000000000007c64 <bpf_object__btf>:
    7c64: 60 00 00 b4  	cbz	x0, 0x7c70 <bpf_object__btf+0xc>
    7c68: 00 c0 40 f9  	ldr	x0, [x0, #384]
    7c6c: c0 03 5f d6  	ret
    7c70: 00 00 80 d2  	mov	x0, #0
    7c74: c0 03 5f d6  	ret
    7c78: 1f 20 03 d5  	nop
    7c7c: 1f 20 03 d5  	nop

0000000000007c80 <bpf_object__btf_fd>:
    7c80: 00 c0 40 f9  	ldr	x0, [x0, #384]
    7c84: 40 00 00 b4  	cbz	x0, 0x7c8c <bpf_object__btf_fd+0xc>
    7c88: 00 00 00 14  	b	0x7c88 <bpf_object__btf_fd+0x8>
    7c8c: 00 00 80 12  	mov	w0, #-1
    7c90: c0 03 5f d6  	ret

0000000000007c94 <bpf_object__set_kversion>:
    7c94: e2 03 00 aa  	mov	x2, x0
    7c98: 00 70 42 39  	ldrb	w0, [x0, #156]
    7c9c: 80 00 00 35  	cbnz	w0, 0x7cac <bpf_object__set_kversion+0x18>
    7ca0: 00 00 80 52  	mov	w0, #0
    7ca4: 41 50 00 b9  	str	w1, [x2, #80]
    7ca8: c0 03 5f d6  	ret
    7cac: fd 7b bf a9  	stp	x29, x30, [sp, #-16]!
    7cb0: fd 03 00 91  	mov	x29, sp
    7cb4: 00 00 00 94  	bl	0x7cb4 <bpf_object__set_kversion+0x20>
    7cb8: e1 03 00 aa  	mov	x1, x0
    7cbc: c2 02 80 52  	mov	w2, #22
    7cc0: a0 02 80 12  	mov	w0, #-22
    7cc4: 22 00 00 b9  	str	w2, [x1]
    7cc8: fd 7b c1 a8  	ldp	x29, x30, [sp], #16
    7ccc: c0 03 5f d6  	ret

0000000000007cd0 <bpf_object__set_priv>:
    7cd0: fd 7b bd a9  	stp	x29, x30, [sp, #-48]!
    7cd4: fd 03 00 91  	mov	x29, sp
    7cd8: f5 13 00 f9  	str	x21, [sp, #32]
    7cdc: f5 03 01 aa  	mov	x21, x1
    7ce0: 01 e4 40 f9  	ldr	x1, [x0, #456]
    7ce4: f3 53 01 a9  	stp	x19, x20, [sp, #16]
    7ce8: f3 03 00 aa  	mov	x19, x0
    7cec: f4 03 02 aa  	mov	x20, x2
    7cf0: 81 00 00 b4  	cbz	x1, 0x7d00 <bpf_object__set_priv+0x30>
    7cf4: 02 e8 40 f9  	ldr	x2, [x0, #464]
    7cf8: 42 00 00 b4  	cbz	x2, 0x7d00 <bpf_object__set_priv+0x30>
    7cfc: 40 00 3f d6  	blr	x2
    7d00: 75 d2 1c a9  	stp	x21, x20, [x19, #456]
    7d04: 00 00 80 52  	mov	w0, #0
    7d08: f3 53 41 a9  	ldp	x19, x20, [sp, #16]
    7d0c: f5 13 40 f9  	ldr	x21, [sp, #32]
    7d10: fd 7b c3 a8  	ldp	x29, x30, [sp], #48
    7d14: c0 03 5f d6  	ret
    7d18: 1f 20 03 d5  	nop
    7d1c: 1f 20 03 d5  	nop

0000000000007d20 <bpf_object__priv>:
    7d20: 60 00 00 b4  	cbz	x0, 0x7d2c <bpf_object__priv+0xc>
    7d24: 00 e4 40 f9  	ldr	x0, [x0, #456]
    7d28: c0 03 5f d6  	ret
    7d2c: fd 7b bf a9  	stp	x29, x30, [sp, #-16]!
    7d30: fd 03 00 91  	mov	x29, sp
    7d34: 00 00 00 94  	bl	0x7d34 <bpf_object__priv+0x14>
    7d38: c3 02 80 52  	mov	w3, #22
    7d3c: 02 00 00 90  	adrp	x2, 0x7000 <bpf_object__priv+0x1c>
    7d40: 03 00 00 b9  	str	w3, [x0]
    7d44: a1 02 80 92  	mov	x1, #-22
    7d48: 40 00 40 b9  	ldr	w0, [x2]
    7d4c: fd 7b c1 a8  	ldp	x29, x30, [sp], #16
    7d50: 1f 00 40 f2  	tst	x0, #0x1
    7d54: e0 13 81 9a  	csel	x0, xzr, x1, ne
    7d58: c0 03 5f d6  	ret
    7d5c: 1f 20 03 d5  	nop

0000000000007d60 <bpf_object__gen_loader>:
    7d60: 61 06 00 b4  	cbz	x1, 0x7e2c <bpf_object__gen_loader+0xcc>
    7d64: fd 7b be a9  	stp	x29, x30, [sp, #-32]!
    7d68: fd 03 00 91  	mov	x29, sp
    7d6c: 23 00 40 f9  	ldr	x3, [x1]
    7d70: f3 53 01 a9  	stp	x19, x20, [sp, #16]
    7d74: f3 03 01 aa  	mov	x19, x1
    7d78: 7f 1c 00 f1  	cmp	x3, #7
    7d7c: 49 04 00 54  	b.ls	0x7e04 <bpf_object__gen_loader+0xa4>
    7d80: f4 03 00 aa  	mov	x20, x0
    7d84: 60 80 00 d1  	sub	x0, x3, #32
    7d88: 22 80 00 91  	add	x2, x1, #32
    7d8c: 1f 00 00 f1  	cmp	x0, #0
    7d90: 4d 02 00 54  	b.le	0x7dd8 <bpf_object__gen_loader+0x78>
    7d94: 23 00 03 8b  	add	x3, x1, x3
    7d98: 03 00 00 14  	b	0x7da4 <bpf_object__gen_loader+0x44>
    7d9c: 5f 00 03 eb  	cmp	x2, x3
    7da0: c0 01 00 54  	b.eq	0x7dd8 <bpf_object__gen_loader+0x78>
    7da4: 44 00 40 39  	ldrb	w4, [x2]
    7da8: 42 04 00 91  	add	x2, x2, #1
    7dac: 84 ff ff 34  	cbz	w4, 0x7d9c <bpf_object__gen_loader+0x3c>
    7db0: 00 00 80 52  	mov	w0, #0
    7db4: 02 00 00 90  	adrp	x2, 0x7000 <bpf_object__gen_loader+0x54>
    7db8: 01 00 00 90  	adrp	x1, 0x7000 <bpf_object__gen_loader+0x58>
    7dbc: 42 00 00 91  	add	x2, x2, #0
    7dc0: 21 00 00 91  	add	x1, x1, #0
    7dc4: 00 00 00 94  	bl	0x7dc4 <bpf_object__gen_loader+0x64>
    7dc8: a0 02 80 12  	mov	w0, #-22
    7dcc: f3 53 41 a9  	ldp	x19, x20, [sp, #16]
    7dd0: fd 7b c2 a8  	ldp	x29, x30, [sp], #32
    7dd4: c0 03 5f d6  	ret
    7dd8: 21 00 80 d2  	mov	x1, #1
    7ddc: 00 1a 80 d2  	mov	x0, #208
    7de0: 00 00 00 94  	bl	0x7de0 <bpf_object__gen_loader+0x80>
    7de4: e1 03 00 aa  	mov	x1, x0
    7de8: 60 02 00 b4  	cbz	x0, 0x7e34 <bpf_object__gen_loader+0xd4>
    7dec: 00 00 80 52  	mov	w0, #0
    7df0: 33 00 00 f9  	str	x19, [x1]
    7df4: 81 52 00 f9  	str	x1, [x20, #160]
    7df8: f3 53 41 a9  	ldp	x19, x20, [sp, #16]
    7dfc: fd 7b c2 a8  	ldp	x29, x30, [sp], #32
    7e00: c0 03 5f d6  	ret
    7e04: 00 00 80 52  	mov	w0, #0
    7e08: 02 00 00 90  	adrp	x2, 0x7000 <bpf_object__gen_loader+0xa8>
    7e0c: 01 00 00 90  	adrp	x1, 0x7000 <bpf_object__gen_loader+0xac>
    7e10: 42 00 00 91  	add	x2, x2, #0
    7e14: 21 00 00 91  	add	x1, x1, #0
    7e18: 00 00 00 94  	bl	0x7e18 <bpf_object__gen_loader+0xb8>
    7e1c: a0 02 80 12  	mov	w0, #-22
    7e20: f3 53 41 a9  	ldp	x19, x20, [sp, #16]
    7e24: fd 7b c2 a8  	ldp	x29, x30, [sp], #32
    7e28: c0 03 5f d6  	ret
    7e2c: a0 01 80 12  	mov	w0, #-14
    7e30: c0 03 5f d6  	ret
    7e34: 60 01 80 12  	mov	w0, #-12
    7e38: f0 ff ff 17  	b	0x7df8 <bpf_object__gen_loader+0x98>
    7e3c: 1f 20 03 d5  	nop

0000000000007e40 <bpf_program__next>:
    7e40: 66 42 9b d2  	mov	x6, #55827
    7e44: 66 09 ad f2  	movk	x6, #26699, lsl #16
    7e48: 23 30 40 f9  	ldr	x3, [x1, #96]
    7e4c: e6 25 d4 f2  	movk	x6, #41263, lsl #32
    7e50: a6 97 f0 f2  	movk	x6, #33981, lsl #48
    7e54: e3 02 00 b4  	cbz	x3, 0x7eb0 <bpf_program__next+0x70>
    7e58: 00 03 00 b4  	cbz	x0, 0x7eb8 <bpf_program__next+0x78>
    7e5c: 02 3c 40 f9  	ldr	x2, [x0, #120]
    7e60: 3f 00 02 eb  	cmp	x1, x2
    7e64: e1 02 00 54  	b.ne	0x7ec0 <bpf_program__next+0x80>
    7e68: 24 2c 40 f9  	ldr	x4, [x1, #88]
    7e6c: 00 00 04 cb  	sub	x0, x0, x4
    7e70: 05 60 03 91  	add	x5, x0, #216
    7e74: 02 fc 43 93  	asr	x2, x0, #3
    7e78: 80 00 05 8b  	add	x0, x4, x5
    7e7c: 42 7c 06 9b  	mul	x2, x2, x6
    7e80: 42 04 00 b1  	adds	x2, x2, #1
    7e84: 60 50 42 fa  	ccmp	x3, x2, #0, pl
    7e88: 49 01 00 54  	b.ls	0x7eb0 <bpf_program__next+0x70>
    7e8c: a0 00 00 b4  	cbz	x0, 0x7ea0 <bpf_program__next+0x60>
    7e90: 04 08 40 f9  	ldr	x4, [x0, #16]
    7e94: 22 58 81 b9  	ldrsw	x2, [x1, #344]
    7e98: 9f 00 02 eb  	cmp	x4, x2
    7e9c: 40 00 00 54  	b.eq	0x7ea4 <bpf_program__next+0x64>
    7ea0: c0 03 5f d6  	ret
    7ea4: 7f 04 00 f1  	cmp	x3, #1
    7ea8: 61 fd ff 54  	b.ne	0x7e54 <bpf_program__next+0x14>
    7eac: c0 03 5f d6  	ret
    7eb0: 00 00 80 d2  	mov	x0, #0
    7eb4: c0 03 5f d6  	ret
    7eb8: 20 2c 40 f9  	ldr	x0, [x1, #88]
    7ebc: f4 ff ff 17  	b	0x7e8c <bpf_program__next+0x4c>
    7ec0: fd 7b bf a9  	stp	x29, x30, [sp, #-16]!
    7ec4: 01 00 00 90  	adrp	x1, 0x7000 <bpf_program__next+0x84>
    7ec8: 21 00 00 91  	add	x1, x1, #0
    7ecc: 00 00 80 52  	mov	w0, #0
    7ed0: fd 03 00 91  	mov	x29, sp
    7ed4: 00 00 00 94  	bl	0x7ed4 <bpf_program__next+0x94>
    7ed8: 00 00 00 94  	bl	0x7ed8 <bpf_program__next+0x98>
    7edc: e1 03 00 aa  	mov	x1, x0
    7ee0: c2 02 80 52  	mov	w2, #22
    7ee4: 00 00 80 d2  	mov	x0, #0
    7ee8: 22 00 00 b9  	str	w2, [x1]
    7eec: fd 7b c1 a8  	ldp	x29, x30, [sp], #16
    7ef0: c0 03 5f d6  	ret

0000000000007ef4 <bpf_object__find_program_by_title>:
    7ef4: fd 7b bd a9  	stp	x29, x30, [sp, #-48]!
    7ef8: fd 03 00 91  	mov	x29, sp
    7efc: f3 53 01 a9  	stp	x19, x20, [sp, #16]
    7f00: f4 03 00 aa  	mov	x20, x0
    7f04: f5 13 00 f9  	str	x21, [sp, #32]
    7f08: f5 03 01 aa  	mov	x21, x1
    7f0c: e1 03 00 aa  	mov	x1, x0
    7f10: 00 00 80 d2  	mov	x0, #0
    7f14: 00 00 00 94  	bl	0x7f14 <bpf_object__find_program_by_title+0x20>
    7f18: 80 01 00 b4  	cbz	x0, 0x7f48 <bpf_object__find_program_by_title+0x54>
    7f1c: f3 03 00 aa  	mov	x19, x0
    7f20: 60 06 40 f9  	ldr	x0, [x19, #8]
    7f24: e1 03 15 aa  	mov	x1, x21
    7f28: 60 00 00 b4  	cbz	x0, 0x7f34 <bpf_object__find_program_by_title+0x40>
    7f2c: 00 00 00 94  	bl	0x7f2c <bpf_object__find_program_by_title+0x38>
    7f30: 40 01 00 34  	cbz	w0, 0x7f58 <bpf_object__find_program_by_title+0x64>
    7f34: e0 03 13 aa  	mov	x0, x19
    7f38: e1 03 14 aa  	mov	x1, x20
    7f3c: 00 00 00 94  	bl	0x7f3c <bpf_object__find_program_by_title+0x48>
    7f40: f3 03 00 aa  	mov	x19, x0
    7f44: e0 fe ff b5  	cbnz	x0, 0x7f20 <bpf_object__find_program_by_title+0x2c>
    7f48: 00 00 00 94  	bl	0x7f48 <bpf_object__find_program_by_title+0x54>
    7f4c: 13 00 80 d2  	mov	x19, #0
    7f50: 41 00 80 52  	mov	w1, #2
    7f54: 01 00 00 b9  	str	w1, [x0]
    7f58: e0 03 13 aa  	mov	x0, x19
    7f5c: f3 53 41 a9  	ldp	x19, x20, [sp, #16]
    7f60: f5 13 40 f9  	ldr	x21, [sp, #32]
    7f64: fd 7b c3 a8  	ldp	x29, x30, [sp], #48
    7f68: c0 03 5f d6  	ret
    7f6c: 1f 20 03 d5  	nop

0000000000007f70 <bpf_object__find_program_by_name>:
    7f70: fd 7b bd a9  	stp	x29, x30, [sp, #-48]!
    7f74: fd 03 00 91  	mov	x29, sp
    7f78: f3 53 01 a9  	stp	x19, x20, [sp, #16]
    7f7c: f4 03 00 aa  	mov	x20, x0
    7f80: f5 13 00 f9  	str	x21, [sp, #32]
    7f84: f5 03 01 aa  	mov	x21, x1
    7f88: e1 03 00 aa  	mov	x1, x0
    7f8c: 00 00 80 d2  	mov	x0, #0
    7f90: 00 00 00 94  	bl	0x7f90 <bpf_object__find_program_by_name+0x20>
    7f94: 20 03 00 b4  	cbz	x0, 0x7ff8 <bpf_object__find_program_by_name+0x88>
    7f98: f3 03 00 aa  	mov	x19, x0
    7f9c: 09 00 00 14  	b	0x7fc0 <bpf_object__find_program_by_name+0x50>
    7fa0: 60 1a 40 f9  	ldr	x0, [x19, #48]
    7fa4: 00 00 00 94  	bl	0x7fa4 <bpf_object__find_program_by_name+0x34>
    7fa8: 00 03 00 34  	cbz	w0, 0x8008 <bpf_object__find_program_by_name+0x98>
    7fac: e0 03 13 aa  	mov	x0, x19
    7fb0: e1 03 14 aa  	mov	x1, x20
    7fb4: 00 00 00 94  	bl	0x7fb4 <bpf_object__find_program_by_name+0x44>
    7fb8: f3 03 00 aa  	mov	x19, x0
    7fbc: e0 01 00 b4  	cbz	x0, 0x7ff8 <bpf_object__find_program_by_name+0x88>
    7fc0: 62 0a 40 f9  	ldr	x2, [x19, #16]
    7fc4: e1 03 15 aa  	mov	x1, x21
    7fc8: 80 5a 81 b9  	ldrsw	x0, [x20, #344]
    7fcc: 5f 00 00 eb  	cmp	x2, x0
    7fd0: 81 fe ff 54  	b.ne	0x7fa0 <bpf_object__find_program_by_name+0x30>
    7fd4: 80 32 40 f9  	ldr	x0, [x20, #96]
    7fd8: 1f 04 00 f1  	cmp	x0, #1
    7fdc: 29 fe ff 54  	b.ls	0x7fa0 <bpf_object__find_program_by_name+0x30>
    7fe0: e0 03 13 aa  	mov	x0, x19
    7fe4: e1 03 14 aa  	mov	x1, x20
    7fe8: 00 00 00 94  	bl	0x7fe8 <bpf_object__find_program_by_name+0x78>
    7fec: f3 03 00 aa  	mov	x19, x0
    7ff0: 80 fe ff b5  	cbnz	x0, 0x7fc0 <bpf_object__find_program_by_name+0x50>
    7ff4: 1f 20 03 d5  	nop
    7ff8: 00 00 00 94  	bl	0x7ff8 <bpf_object__find_program_by_name+0x88>
    7ffc: 13 00 80 d2  	mov	x19, #0
    8000: 41 00 80 52  	mov	w1, #2
    8004: 01 00 00 b9  	str	w1, [x0]
    8008: e0 03 13 aa  	mov	x0, x19
    800c: f3 53 41 a9  	ldp	x19, x20, [sp, #16]
    8010: f5 13 40 f9  	ldr	x21, [sp, #32]
    8014: fd 7b c3 a8  	ldp	x29, x30, [sp], #48
    8018: c0 03 5f d6  	ret
    801c: 1f 20 03 d5  	nop

0000000000008020 <bpf_object__unpin_programs>:
    8020: 0c 0a 82 d2  	mov	x12, #4176
    8024: ff 63 2c cb  	sub	sp, sp, x12
    8028: 02 00 00 90  	adrp	x2, 0x8000 <bpf_object__unpin_programs+0x8>
    802c: fd 7b 00 a9  	stp	x29, x30, [sp]
    8030: fd 03 00 91  	mov	x29, sp
    8034: 42 00 40 f9  	ldr	x2, [x2]
    8038: f3 53 01 a9  	stp	x19, x20, [sp, #16]
    803c: f5 5b 02 a9  	stp	x21, x22, [sp, #32]
    8040: f6 03 00 aa  	mov	x22, x0
    8044: 40 00 40 f9  	ldr	x0, [x2]
    8048: e0 27 08 f9  	str	x0, [sp, #4168]
    804c: 00 00 80 d2  	mov	x0, #0
    8050: d6 08 00 b4  	cbz	x22, 0x8168 <bpf_object__unpin_programs+0x148>
    8054: 00 00 80 d2  	mov	x0, #0
    8058: f5 23 01 91  	add	x21, sp, #72
    805c: f7 63 03 a9  	stp	x23, x24, [sp, #48]
    8060: f7 03 01 aa  	mov	x23, x1
    8064: 18 00 00 90  	adrp	x24, 0x8000 <bpf_object__unpin_programs+0x44>
    8068: e1 03 16 aa  	mov	x1, x22
    806c: 18 03 00 91  	add	x24, x24, #0
    8070: 00 00 00 94  	bl	0x8070 <bpf_object__unpin_programs+0x50>
    8074: f3 03 00 aa  	mov	x19, x0
    8078: e0 01 00 b5  	cbnz	x0, 0x80b4 <bpf_object__unpin_programs+0x94>
    807c: 2a 00 00 14  	b	0x8124 <bpf_object__unpin_programs+0x104>
    8080: 1f fc 3f 71  	cmp	w0, #4095
    8084: 6c 05 00 54  	b.gt	0x8130 <bpf_object__unpin_programs+0x110>
    8088: e1 03 15 aa  	mov	x1, x21
    808c: e0 03 13 aa  	mov	x0, x19
    8090: 00 00 00 94  	bl	0x8090 <bpf_object__unpin_programs+0x70>
    8094: f4 03 00 2a  	mov	w20, w0
    8098: 1f 00 00 71  	cmp	w0, #0
    809c: 60 05 00 35  	cbnz	w0, 0x8148 <bpf_object__unpin_programs+0x128>
    80a0: e0 03 13 aa  	mov	x0, x19
    80a4: e1 03 16 aa  	mov	x1, x22
    80a8: 00 00 00 94  	bl	0x80a8 <bpf_object__unpin_programs+0x88>
    80ac: f3 03 00 aa  	mov	x19, x0
    80b0: a0 03 00 b4  	cbz	x0, 0x8124 <bpf_object__unpin_programs+0x104>
    80b4: 66 1e 40 f9  	ldr	x6, [x19, #56]
    80b8: 03 00 82 d2  	mov	x3, #4096
    80bc: e5 03 17 aa  	mov	x5, x23
    80c0: e1 03 03 aa  	mov	x1, x3
    80c4: e4 03 18 aa  	mov	x4, x24
    80c8: e0 03 15 aa  	mov	x0, x21
    80cc: 22 00 80 52  	mov	w2, #1
    80d0: 00 00 00 94  	bl	0x80d0 <bpf_object__unpin_programs+0xb0>
    80d4: 60 fd ff 36  	tbz	w0, #31, 0x8080 <bpf_object__unpin_programs+0x60>
    80d8: 00 00 00 94  	bl	0x80d8 <bpf_object__unpin_programs+0xb8>
    80dc: b4 02 80 12  	mov	w20, #-22
    80e0: c1 02 80 52  	mov	w1, #22
    80e4: f7 63 43 a9  	ldp	x23, x24, [sp, #48]
    80e8: 01 00 00 b9  	str	w1, [x0]
    80ec: 00 00 00 90  	adrp	x0, 0x8000 <bpf_object__unpin_programs+0xcc>
    80f0: 00 00 40 f9  	ldr	x0, [x0]
    80f4: e2 27 48 f9  	ldr	x2, [sp, #4168]
    80f8: 01 00 40 f9  	ldr	x1, [x0]
    80fc: 42 00 01 eb  	subs	x2, x2, x1
    8100: 01 00 80 d2  	mov	x1, #0
    8104: c1 03 00 54  	b.ne	0x817c <bpf_object__unpin_programs+0x15c>
    8108: e0 03 14 2a  	mov	w0, w20
    810c: 0c 0a 82 d2  	mov	x12, #4176
    8110: fd 7b 40 a9  	ldp	x29, x30, [sp]
    8114: f3 53 41 a9  	ldp	x19, x20, [sp, #16]
    8118: f5 5b 42 a9  	ldp	x21, x22, [sp, #32]
    811c: ff 63 2c 8b  	add	sp, sp, x12
    8120: c0 03 5f d6  	ret
    8124: 14 00 80 52  	mov	w20, #0
    8128: f7 63 43 a9  	ldp	x23, x24, [sp, #48]
    812c: f0 ff ff 17  	b	0x80ec <bpf_object__unpin_programs+0xcc>
    8130: 00 00 00 94  	bl	0x8130 <bpf_object__unpin_programs+0x110>
    8134: 74 04 80 12  	mov	w20, #-36
    8138: 81 04 80 52  	mov	w1, #36
    813c: f7 63 43 a9  	ldp	x23, x24, [sp, #48]
    8140: 01 00 00 b9  	str	w1, [x0]
    8144: ea ff ff 17  	b	0x80ec <bpf_object__unpin_programs+0xcc>
    8148: 6b 00 00 54  	b.lt	0x8154 <bpf_object__unpin_programs+0x134>
    814c: f7 63 43 a9  	ldp	x23, x24, [sp, #48]
    8150: e7 ff ff 17  	b	0x80ec <bpf_object__unpin_programs+0xcc>
    8154: 00 00 00 94  	bl	0x8154 <bpf_object__unpin_programs+0x134>
    8158: e1 03 14 4b  	neg	w1, w20
    815c: f7 63 43 a9  	ldp	x23, x24, [sp, #48]
    8160: 01 00 00 b9  	str	w1, [x0]
    8164: e2 ff ff 17  	b	0x80ec <bpf_object__unpin_programs+0xcc>
    8168: 00 00 00 94  	bl	0x8168 <bpf_object__unpin_programs+0x148>
    816c: 34 00 80 12  	mov	w20, #-2
    8170: 41 00 80 52  	mov	w1, #2
    8174: 01 00 00 b9  	str	w1, [x0]
    8178: dd ff ff 17  	b	0x80ec <bpf_object__unpin_programs+0xcc>
    817c: f7 63 03 a9  	stp	x23, x24, [sp, #48]
    8180: 00 00 00 94  	bl	0x8180 <bpf_object__unpin_programs+0x160>

0000000000008184 <bpf_program__prev>:
    8184: 23 30 40 f9  	ldr	x3, [x1, #96]
    8188: 67 42 9b d2  	mov	x7, #55827
    818c: 67 09 ad f2  	movk	x7, #26699, lsl #16
    8190: e7 25 d4 f2  	movk	x7, #41263, lsl #32
    8194: 65 f0 7d d3  	lsl	x5, x3, #3
    8198: a7 97 f0 f2  	movk	x7, #33981, lsl #48
    819c: a5 00 03 cb  	sub	x5, x5, x3
    81a0: a5 f4 7e d3  	lsl	x5, x5, #2
    81a4: a5 00 03 cb  	sub	x5, x5, x3
    81a8: a5 f0 7d d3  	lsl	x5, x5, #3
    81ac: a5 60 03 d1  	sub	x5, x5, #216
    81b0: e3 02 00 b4  	cbz	x3, 0x820c <bpf_program__prev+0x88>
    81b4: 00 03 00 b4  	cbz	x0, 0x8214 <bpf_program__prev+0x90>
    81b8: 02 3c 40 f9  	ldr	x2, [x0, #120]
    81bc: 3f 00 02 eb  	cmp	x1, x2
    81c0: 01 03 00 54  	b.ne	0x8220 <bpf_program__prev+0x9c>
    81c4: 24 2c 40 f9  	ldr	x4, [x1, #88]
    81c8: 00 00 04 cb  	sub	x0, x0, x4
    81cc: 06 60 03 d1  	sub	x6, x0, #216
    81d0: 02 fc 43 93  	asr	x2, x0, #3
    81d4: 80 00 06 8b  	add	x0, x4, x6
    81d8: 42 7c 07 9b  	mul	x2, x2, x7
    81dc: 42 04 00 f1  	subs	x2, x2, #1
    81e0: 60 50 42 fa  	ccmp	x3, x2, #0, pl
    81e4: 49 01 00 54  	b.ls	0x820c <bpf_program__prev+0x88>
    81e8: a0 00 00 b4  	cbz	x0, 0x81fc <bpf_program__prev+0x78>
    81ec: 04 08 40 f9  	ldr	x4, [x0, #16]
    81f0: 22 58 81 b9  	ldrsw	x2, [x1, #344]
    81f4: 9f 00 02 eb  	cmp	x4, x2
    81f8: 40 00 00 54  	b.eq	0x8200 <bpf_program__prev+0x7c>
    81fc: c0 03 5f d6  	ret
    8200: 7f 04 00 f1  	cmp	x3, #1
    8204: 61 fd ff 54  	b.ne	0x81b0 <bpf_program__prev+0x2c>
    8208: c0 03 5f d6  	ret
    820c: 00 00 80 d2  	mov	x0, #0
    8210: c0 03 5f d6  	ret
    8214: 20 2c 40 f9  	ldr	x0, [x1, #88]
    8218: 00 00 05 8b  	add	x0, x0, x5
    821c: f3 ff ff 17  	b	0x81e8 <bpf_program__prev+0x64>
    8220: fd 7b bf a9  	stp	x29, x30, [sp, #-16]!
    8224: 01 00 00 90  	adrp	x1, 0x8000 <bpf_program__prev+0xa0>
    8228: 21 00 00 91  	add	x1, x1, #0
    822c: 00 00 80 52  	mov	w0, #0
    8230: fd 03 00 91  	mov	x29, sp
    8234: 00 00 00 94  	bl	0x8234 <bpf_program__prev+0xb0>
    8238: 00 00 00 94  	bl	0x8238 <bpf_program__prev+0xb4>
    823c: e1 03 00 aa  	mov	x1, x0
    8240: c2 02 80 52  	mov	w2, #22
    8244: 00 00 80 d2  	mov	x0, #0
    8248: 22 00 00 b9  	str	w2, [x1]
    824c: fd 7b c1 a8  	ldp	x29, x30, [sp], #16
    8250: c0 03 5f d6  	ret

0000000000008254 <bpf_object__pin_programs>:
    8254: 0c 0c 82 d2  	mov	x12, #4192
    8258: ff 63 2c cb  	sub	sp, sp, x12
    825c: 02 00 00 90  	adrp	x2, 0x8000 <bpf_object__pin_programs+0x8>
    8260: fd 7b 00 a9  	stp	x29, x30, [sp]
    8264: fd 03 00 91  	mov	x29, sp
    8268: 42 00 40 f9  	ldr	x2, [x2]
    826c: f3 53 01 a9  	stp	x19, x20, [sp, #16]
    8270: f5 5b 02 a9  	stp	x21, x22, [sp, #32]
    8274: f6 03 00 aa  	mov	x22, x0
    8278: 40 00 40 f9  	ldr	x0, [x2]
    827c: e0 2f 08 f9  	str	x0, [sp, #4184]
    8280: 00 00 80 d2  	mov	x0, #0
    8284: 76 0c 00 b4  	cbz	x22, 0x8410 <bpf_object__pin_programs+0x1bc>
    8288: c0 72 42 39  	ldrb	w0, [x22, #156]
    828c: 20 0b 00 34  	cbz	w0, 0x83f0 <bpf_object__pin_programs+0x19c>
    8290: 00 00 80 d2  	mov	x0, #0
    8294: f5 63 01 91  	add	x21, sp, #88
    8298: f7 63 03 a9  	stp	x23, x24, [sp, #48]
    829c: f7 03 01 aa  	mov	x23, x1
    82a0: e1 03 16 aa  	mov	x1, x22
    82a4: f9 23 00 f9  	str	x25, [sp, #64]
    82a8: 19 00 00 90  	adrp	x25, 0x8000 <bpf_object__pin_programs+0x54>
    82ac: 00 00 00 94  	bl	0x82ac <bpf_object__pin_programs+0x58>
    82b0: 38 03 00 91  	add	x24, x25, #0
    82b4: f3 03 00 aa  	mov	x19, x0
    82b8: c0 01 00 b5  	cbnz	x0, 0x82f0 <bpf_object__pin_programs+0x9c>
    82bc: 47 00 00 14  	b	0x83d8 <bpf_object__pin_programs+0x184>
    82c0: 1f fc 3f 71  	cmp	w0, #4095
    82c4: 2c 09 00 54  	b.gt	0x83e8 <bpf_object__pin_programs+0x194>
    82c8: e1 03 15 aa  	mov	x1, x21
    82cc: e0 03 13 aa  	mov	x0, x19
    82d0: 00 00 00 94  	bl	0x82d0 <bpf_object__pin_programs+0x7c>
    82d4: f4 03 00 2a  	mov	w20, w0
    82d8: 00 02 00 35  	cbnz	w0, 0x8318 <bpf_object__pin_programs+0xc4>
    82dc: e0 03 13 aa  	mov	x0, x19
    82e0: e1 03 16 aa  	mov	x1, x22
    82e4: 00 00 00 94  	bl	0x82e4 <bpf_object__pin_programs+0x90>
    82e8: f3 03 00 aa  	mov	x19, x0
    82ec: 60 07 00 b4  	cbz	x0, 0x83d8 <bpf_object__pin_programs+0x184>
    82f0: 66 1e 40 f9  	ldr	x6, [x19, #56]
    82f4: 03 00 82 d2  	mov	x3, #4096
    82f8: e5 03 17 aa  	mov	x5, x23
    82fc: e1 03 03 aa  	mov	x1, x3
    8300: e4 03 18 aa  	mov	x4, x24
    8304: e0 03 15 aa  	mov	x0, x21
    8308: 22 00 80 52  	mov	w2, #1
    830c: 00 00 00 94  	bl	0x830c <bpf_object__pin_programs+0xb8>
    8310: 80 fd ff 36  	tbz	w0, #31, 0x82c0 <bpf_object__pin_programs+0x6c>
    8314: b4 02 80 12  	mov	w20, #-22
    8318: 39 03 00 91  	add	x25, x25, #0
    831c: 1f 20 03 d5  	nop
    8320: e0 03 13 aa  	mov	x0, x19
    8324: e1 03 16 aa  	mov	x1, x22
    8328: 00 00 00 94  	bl	0x8328 <bpf_object__pin_programs+0xd4>
    832c: f3 03 00 aa  	mov	x19, x0
    8330: 60 02 00 b4  	cbz	x0, 0x837c <bpf_object__pin_programs+0x128>
    8334: 66 1e 40 f9  	ldr	x6, [x19, #56]
    8338: 03 00 82 d2  	mov	x3, #4096
    833c: e5 03 17 aa  	mov	x5, x23
    8340: e1 03 03 aa  	mov	x1, x3
    8344: e4 03 19 aa  	mov	x4, x25
    8348: e0 03 15 aa  	mov	x0, x21
    834c: 22 00 80 52  	mov	w2, #1
    8350: 00 00 00 94  	bl	0x8350 <bpf_object__pin_programs+0xfc>
    8354: 1f fc 3f 71  	cmp	w0, #4095
    8358: 48 fe ff 54  	b.hi	0x8320 <bpf_object__pin_programs+0xcc>
    835c: e1 03 15 aa  	mov	x1, x21
    8360: e0 03 13 aa  	mov	x0, x19
    8364: 00 00 00 94  	bl	0x8364 <bpf_object__pin_programs+0x110>
    8368: e0 03 13 aa  	mov	x0, x19
    836c: e1 03 16 aa  	mov	x1, x22
    8370: 00 00 00 94  	bl	0x8370 <bpf_object__pin_programs+0x11c>
    8374: f3 03 00 aa  	mov	x19, x0
    8378: e0 fd ff b5  	cbnz	x0, 0x8334 <bpf_object__pin_programs+0xe0>
    837c: 34 02 f8 37  	tbnz	w20, #31, 0x83c0 <bpf_object__pin_programs+0x16c>
    8380: f7 63 43 a9  	ldp	x23, x24, [sp, #48]
    8384: f9 23 40 f9  	ldr	x25, [sp, #64]
    8388: 00 00 00 90  	adrp	x0, 0x8000 <bpf_object__pin_programs+0x134>
    838c: 00 00 40 f9  	ldr	x0, [x0]
    8390: e2 2f 48 f9  	ldr	x2, [sp, #4184]
    8394: 01 00 40 f9  	ldr	x1, [x0]
    8398: 42 00 01 eb  	subs	x2, x2, x1
    839c: 01 00 80 d2  	mov	x1, #0
    83a0: 21 04 00 54  	b.ne	0x8424 <bpf_object__pin_programs+0x1d0>
    83a4: e0 03 14 2a  	mov	w0, w20
    83a8: 0c 0c 82 d2  	mov	x12, #4192
    83ac: fd 7b 40 a9  	ldp	x29, x30, [sp]
    83b0: f3 53 41 a9  	ldp	x19, x20, [sp, #16]
    83b4: f5 5b 42 a9  	ldp	x21, x22, [sp, #32]
    83b8: ff 63 2c 8b  	add	sp, sp, x12
    83bc: c0 03 5f d6  	ret
    83c0: 00 00 00 94  	bl	0x83c0 <bpf_object__pin_programs+0x16c>
    83c4: e1 03 14 4b  	neg	w1, w20
    83c8: f7 63 43 a9  	ldp	x23, x24, [sp, #48]
    83cc: f9 23 40 f9  	ldr	x25, [sp, #64]
    83d0: 01 00 00 b9  	str	w1, [x0]
    83d4: ed ff ff 17  	b	0x8388 <bpf_object__pin_programs+0x134>
    83d8: 14 00 80 52  	mov	w20, #0
    83dc: f7 63 43 a9  	ldp	x23, x24, [sp, #48]
    83e0: f9 23 40 f9  	ldr	x25, [sp, #64]
    83e4: e9 ff ff 17  	b	0x8388 <bpf_object__pin_programs+0x134>
    83e8: 74 04 80 12  	mov	w20, #-36
    83ec: cb ff ff 17  	b	0x8318 <bpf_object__pin_programs+0xc4>
    83f0: 01 00 00 90  	adrp	x1, 0x8000 <bpf_object__pin_programs+0x19c>
    83f4: 21 00 00 91  	add	x1, x1, #0
    83f8: 00 00 00 94  	bl	0x83f8 <bpf_object__pin_programs+0x1a4>
    83fc: 34 00 80 12  	mov	w20, #-2
    8400: 00 00 00 94  	bl	0x8400 <bpf_object__pin_programs+0x1ac>
    8404: 41 00 80 52  	mov	w1, #2
    8408: 01 00 00 b9  	str	w1, [x0]
    840c: df ff ff 17  	b	0x8388 <bpf_object__pin_programs+0x134>
    8410: 00 00 00 94  	bl	0x8410 <bpf_object__pin_programs+0x1bc>
    8414: 34 00 80 12  	mov	w20, #-2
    8418: 41 00 80 52  	mov	w1, #2
    841c: 01 00 00 b9  	str	w1, [x0]
    8420: da ff ff 17  	b	0x8388 <bpf_object__pin_programs+0x134>
    8424: f7 63 03 a9  	stp	x23, x24, [sp, #48]
    8428: f9 23 00 f9  	str	x25, [sp, #64]
    842c: 00 00 00 94  	bl	0x842c <bpf_object__pin_programs+0x1d8>

0000000000008430 <bpf_object__pin>:
    8430: fd 7b bd a9  	stp	x29, x30, [sp, #-48]!
    8434: fd 03 00 91  	mov	x29, sp
    8438: f3 53 01 a9  	stp	x19, x20, [sp, #16]
    843c: f4 03 00 aa  	mov	x20, x0
    8440: f5 13 00 f9  	str	x21, [sp, #32]
    8444: f5 03 01 aa  	mov	x21, x1
    8448: 00 00 00 94  	bl	0x8448 <bpf_object__pin+0x18>
    844c: 20 01 00 34  	cbz	w0, 0x8470 <bpf_object__pin+0x40>
    8450: f3 03 00 2a  	mov	w19, w0
    8454: 1f 00 00 71  	cmp	w0, #0
    8458: eb 01 00 54  	b.lt	0x8494 <bpf_object__pin+0x64>
    845c: e0 03 13 2a  	mov	w0, w19
    8460: f3 53 41 a9  	ldp	x19, x20, [sp, #16]
    8464: f5 13 40 f9  	ldr	x21, [sp, #32]
    8468: fd 7b c3 a8  	ldp	x29, x30, [sp], #48
    846c: c0 03 5f d6  	ret
    8470: e1 03 15 aa  	mov	x1, x21
    8474: e0 03 14 aa  	mov	x0, x20
    8478: 00 00 00 94  	bl	0x8478 <bpf_object__pin+0x48>
    847c: f3 03 00 2a  	mov	w19, w0
    8480: e0 fe ff 34  	cbz	w0, 0x845c <bpf_object__pin+0x2c>
    8484: e1 03 15 aa  	mov	x1, x21
    8488: e0 03 14 aa  	mov	x0, x20
    848c: 00 00 00 94  	bl	0x848c <bpf_object__pin+0x5c>
    8490: 73 fe ff 36  	tbz	w19, #31, 0x845c <bpf_object__pin+0x2c>
    8494: 00 00 00 94  	bl	0x8494 <bpf_object__pin+0x64>
    8498: e1 03 13 4b  	neg	w1, w19
    849c: 01 00 00 b9  	str	w1, [x0]
    84a0: e0 03 13 2a  	mov	w0, w19
    84a4: f3 53 41 a9  	ldp	x19, x20, [sp, #16]
    84a8: f5 13 40 f9  	ldr	x21, [sp, #32]
    84ac: fd 7b c3 a8  	ldp	x29, x30, [sp], #48
    84b0: c0 03 5f d6  	ret

00000000000084b4 <bpf_program__set_priv>:
    84b4: fd 7b bd a9  	stp	x29, x30, [sp, #-48]!
    84b8: fd 03 00 91  	mov	x29, sp
    84bc: f5 13 00 f9  	str	x21, [sp, #32]
    84c0: f5 03 01 aa  	mov	x21, x1
    84c4: 01 40 40 f9  	ldr	x1, [x0, #128]
    84c8: f3 53 01 a9  	stp	x19, x20, [sp, #16]
    84cc: f3 03 00 aa  	mov	x19, x0
    84d0: f4 03 02 aa  	mov	x20, x2
    84d4: 81 00 00 b4  	cbz	x1, 0x84e4 <bpf_program__set_priv+0x30>
    84d8: 02 44 40 f9  	ldr	x2, [x0, #136]
    84dc: 42 00 00 b4  	cbz	x2, 0x84e4 <bpf_program__set_priv+0x30>
    84e0: 40 00 3f d6  	blr	x2
    84e4: 75 52 08 a9  	stp	x21, x20, [x19, #128]
    84e8: 00 00 80 52  	mov	w0, #0
    84ec: f3 53 41 a9  	ldp	x19, x20, [sp, #16]
    84f0: f5 13 40 f9  	ldr	x21, [sp, #32]
    84f4: fd 7b c3 a8  	ldp	x29, x30, [sp], #48
    84f8: c0 03 5f d6  	ret
    84fc: 1f 20 03 d5  	nop

0000000000008500 <bpf_program__priv>:
    8500: 60 00 00 b4  	cbz	x0, 0x850c <bpf_program__priv+0xc>
    8504: 00 40 40 f9  	ldr	x0, [x0, #128]
    8508: c0 03 5f d6  	ret
    850c: fd 7b bf a9  	stp	x29, x30, [sp, #-16]!
    8510: fd 03 00 91  	mov	x29, sp
    8514: 00 00 00 94  	bl	0x8514 <bpf_program__priv+0x14>
    8518: c3 02 80 52  	mov	w3, #22
    851c: 02 00 00 90  	adrp	x2, 0x8000 <bpf_program__priv+0x1c>
    8520: 03 00 00 b9  	str	w3, [x0]
    8524: a1 02 80 92  	mov	x1, #-22
    8528: 40 00 40 b9  	ldr	w0, [x2]
    852c: fd 7b c1 a8  	ldp	x29, x30, [sp], #16
    8530: 1f 00 40 f2  	tst	x0, #0x1
    8534: e0 13 81 9a  	csel	x0, xzr, x1, ne
    8538: c0 03 5f d6  	ret
    853c: 1f 20 03 d5  	nop

0000000000008540 <bpf_program__set_ifindex>:
    8540: 01 9c 00 b9  	str	w1, [x0, #156]
    8544: c0 03 5f d6  	ret
    8548: 1f 20 03 d5  	nop
    854c: 1f 20 03 d5  	nop

0000000000008550 <bpf_program__name>:
    8550: 00 18 40 f9  	ldr	x0, [x0, #48]
    8554: c0 03 5f d6  	ret
    8558: 1f 20 03 d5  	nop
    855c: 1f 20 03 d5  	nop

0000000000008560 <bpf_program__section_name>:
    8560: 00 04 40 f9  	ldr	x0, [x0, #8]
    8564: c0 03 5f d6  	ret
    8568: 1f 20 03 d5  	nop
    856c: 1f 20 03 d5  	nop

0000000000008570 <bpf_program__title>:
    8570: 00 04 40 f9  	ldr	x0, [x0, #8]
    8574: 3f 1c 00 72  	tst	w1, #0xff
    8578: 41 00 00 54  	b.ne	0x8580 <bpf_program__title+0x10>
    857c: c0 03 5f d6  	ret
    8580: fd 7b bf a9  	stp	x29, x30, [sp, #-16]!
    8584: fd 03 00 91  	mov	x29, sp
    8588: 00 00 00 94  	bl	0x8588 <bpf_program__title+0x18>
    858c: 60 00 00 b4  	cbz	x0, 0x8598 <bpf_program__title+0x28>
    8590: fd 7b c1 a8  	ldp	x29, x30, [sp], #16
    8594: c0 03 5f d6  	ret
    8598: 01 00 00 90  	adrp	x1, 0x8000 <bpf_program__title+0x28>
    859c: 21 00 00 91  	add	x1, x1, #0
    85a0: 00 00 00 94  	bl	0x85a0 <bpf_program__title+0x30>
    85a4: fd 7b c1 a8  	ldp	x29, x30, [sp], #16
    85a8: 60 01 80 12  	mov	w0, #-12
    85ac: 21 df ff 17  	b	0x230 <libbpf_err_ptr>

00000000000085b0 <bpf_program__autoload>:
    85b0: 00 40 42 39  	ldrb	w0, [x0, #144]
    85b4: c0 03 5f d6  	ret
    85b8: 1f 20 03 d5  	nop
    85bc: 1f 20 03 d5  	nop

00000000000085c0 <bpf_program__set_autoload>:
    85c0: e2 03 00 aa  	mov	x2, x0
    85c4: 00 3c 40 f9  	ldr	x0, [x0, #120]
    85c8: 00 70 42 39  	ldrb	w0, [x0, #156]
    85cc: a0 00 00 35  	cbnz	w0, 0x85e0 <bpf_program__set_autoload+0x20>
    85d0: 21 1c 00 12  	and	w1, w1, #0xff
    85d4: 00 00 80 52  	mov	w0, #0
    85d8: 41 40 02 39  	strb	w1, [x2, #144]
    85dc: c0 03 5f d6  	ret
    85e0: fd 7b bf a9  	stp	x29, x30, [sp, #-16]!
    85e4: fd 03 00 91  	mov	x29, sp
    85e8: 00 00 00 94  	bl	0x85e8 <bpf_program__set_autoload+0x28>
    85ec: e1 03 00 aa  	mov	x1, x0
    85f0: c2 02 80 52  	mov	w2, #22
    85f4: a0 02 80 12  	mov	w0, #-22
    85f8: 22 00 00 b9  	str	w2, [x1]
    85fc: fd 7b c1 a8  	ldp	x29, x30, [sp], #16
    8600: c0 03 5f d6  	ret

0000000000008604 <bpf_program__fd>:
    8604: fd 7b bf a9  	stp	x29, x30, [sp, #-16]!
    8608: fd 03 00 91  	mov	x29, sp
    860c: 00 02 00 b4  	cbz	x0, 0x864c <bpf_program__fd+0x48>
    8610: 04 60 40 b9  	ldr	w4, [x0, #96]
    8614: e1 03 00 aa  	mov	x1, x0
    8618: 9f 00 00 71  	cmp	w4, #0
    861c: cd 00 00 54  	b.le	0x8634 <bpf_program__fd+0x30>
    8620: 00 34 40 f9  	ldr	x0, [x0, #104]
    8624: 00 00 40 b9  	ldr	w0, [x0]
    8628: e0 01 f8 37  	tbnz	w0, #31, 0x8664 <bpf_program__fd+0x60>
    862c: fd 7b c1 a8  	ldp	x29, x30, [sp], #16
    8630: c0 03 5f d6  	ret
    8634: 23 18 40 f9  	ldr	x3, [x1, #48]
    8638: 02 00 80 52  	mov	w2, #0
    863c: 01 00 00 90  	adrp	x1, 0x8000 <bpf_program__fd+0x38>
    8640: 00 00 80 52  	mov	w0, #0
    8644: 21 00 00 91  	add	x1, x1, #0
    8648: 00 00 00 94  	bl	0x8648 <bpf_program__fd+0x44>
    864c: 00 00 00 94  	bl	0x864c <bpf_program__fd+0x48>
    8650: e1 03 00 aa  	mov	x1, x0
    8654: c2 02 80 52  	mov	w2, #22
    8658: a0 02 80 12  	mov	w0, #-22
    865c: 22 00 00 b9  	str	w2, [x1]
    8660: f3 ff ff 17  	b	0x862c <bpf_program__fd+0x28>
    8664: 23 18 40 f9  	ldr	x3, [x1, #48]
    8668: 01 00 00 90  	adrp	x1, 0x8000 <bpf_program__fd+0x64>
    866c: 21 00 00 91  	add	x1, x1, #0
    8670: 02 00 80 52  	mov	w2, #0
    8674: 00 00 80 52  	mov	w0, #0
    8678: 00 00 00 94  	bl	0x8678 <bpf_program__fd+0x74>
    867c: 00 00 00 94  	bl	0x867c <bpf_program__fd+0x78>
    8680: e1 03 00 aa  	mov	x1, x0
    8684: 42 00 80 52  	mov	w2, #2
    8688: 20 00 80 12  	mov	w0, #-2
    868c: 22 00 00 b9  	str	w2, [x1]
    8690: e7 ff ff 17  	b	0x862c <bpf_program__fd+0x28>

0000000000008694 <bpf_program__size>:
    8694: 00 24 40 f9  	ldr	x0, [x0, #72]
    8698: 00 f0 7d d3  	lsl	x0, x0, #3
    869c: c0 03 5f d6  	ret

00000000000086a0 <bpf_program__set_prep>:
    86a0: fd 7b bc a9  	stp	x29, x30, [sp, #-64]!
    86a4: 3f 00 00 71  	cmp	w1, #0
    86a8: 44 c8 40 fa  	ccmp	x2, #0, #4, gt
    86ac: fd 03 00 91  	mov	x29, sp
    86b0: e0 04 00 54  	b.eq	0x874c <bpf_program__set_prep+0xac>
    86b4: f3 53 01 a9  	stp	x19, x20, [sp, #16]
    86b8: f3 03 00 aa  	mov	x19, x0
    86bc: 00 60 40 b9  	ldr	w0, [x0, #96]
    86c0: 1f 00 00 71  	cmp	w0, #0
    86c4: ec 02 00 54  	b.gt	0x8720 <bpf_program__set_prep+0x80>
    86c8: 60 36 40 f9  	ldr	x0, [x19, #104]
    86cc: a0 02 00 b5  	cbnz	x0, 0x8720 <bpf_program__set_prep+0x80>
    86d0: f7 1b 00 f9  	str	x23, [sp, #48]
    86d4: 37 7c 7e 93  	sbfiz	x23, x1, #2, #32
    86d8: f4 03 01 2a  	mov	w20, w1
    86dc: e0 03 17 aa  	mov	x0, x23
    86e0: f5 5b 02 a9  	stp	x21, x22, [sp, #32]
    86e4: f5 03 02 aa  	mov	x21, x2
    86e8: 00 00 00 94  	bl	0x86e8 <bpf_program__set_prep+0x48>
    86ec: f6 03 00 aa  	mov	x22, x0
    86f0: a0 03 00 b4  	cbz	x0, 0x8764 <bpf_program__set_prep+0xc4>
    86f4: e2 03 17 aa  	mov	x2, x23
    86f8: 01 00 80 12  	mov	w1, #-1
    86fc: 00 00 00 94  	bl	0x86fc <bpf_program__set_prep+0x5c>
    8700: f7 1b 40 f9  	ldr	x23, [sp, #48]
    8704: 74 62 00 b9  	str	w20, [x19, #96]
    8708: 76 d6 06 a9  	stp	x22, x21, [x19, #104]
    870c: 00 00 80 52  	mov	w0, #0
    8710: f3 53 41 a9  	ldp	x19, x20, [sp, #16]
    8714: f5 5b 42 a9  	ldp	x21, x22, [sp, #32]
    8718: fd 7b c4 a8  	ldp	x29, x30, [sp], #64
    871c: c0 03 5f d6  	ret
    8720: 01 00 00 90  	adrp	x1, 0x8000 <bpf_program__set_prep+0x80>
    8724: 21 00 00 91  	add	x1, x1, #0
    8728: 00 00 80 52  	mov	w0, #0
    872c: 00 00 00 94  	bl	0x872c <bpf_program__set_prep+0x8c>
    8730: 00 00 00 94  	bl	0x8730 <bpf_program__set_prep+0x90>
    8734: e1 03 00 aa  	mov	x1, x0
    8738: c2 02 80 52  	mov	w2, #22
    873c: a0 02 80 12  	mov	w0, #-22
    8740: f3 53 41 a9  	ldp	x19, x20, [sp, #16]
    8744: 22 00 00 b9  	str	w2, [x1]
    8748: f4 ff ff 17  	b	0x8718 <bpf_program__set_prep+0x78>
    874c: 00 00 00 94  	bl	0x874c <bpf_program__set_prep+0xac>
    8750: e1 03 00 aa  	mov	x1, x0
    8754: c2 02 80 52  	mov	w2, #22
    8758: a0 02 80 12  	mov	w0, #-22
    875c: 22 00 00 b9  	str	w2, [x1]
    8760: ee ff ff 17  	b	0x8718 <bpf_program__set_prep+0x78>
    8764: 01 00 00 90  	adrp	x1, 0x8000 <bpf_program__set_prep+0xc4>
    8768: 21 00 00 91  	add	x1, x1, #0
    876c: 00 00 80 52  	mov	w0, #0
    8770: 00 00 00 94  	bl	0x8770 <bpf_program__set_prep+0xd0>
    8774: 60 01 80 12  	mov	w0, #-12
    8778: 2a e1 ff 97  	bl	0xc20 <libbpf_err.part.0>
    877c: 60 01 80 12  	mov	w0, #-12
    8780: f3 53 41 a9  	ldp	x19, x20, [sp, #16]
    8784: f5 5b 42 a9  	ldp	x21, x22, [sp, #32]
    8788: f7 1b 40 f9  	ldr	x23, [sp, #48]
    878c: e3 ff ff 17  	b	0x8718 <bpf_program__set_prep+0x78>

0000000000008790 <bpf_program__nth_fd>:
    8790: fd 7b bf a9  	stp	x29, x30, [sp, #-16]!
    8794: fd 03 00 91  	mov	x29, sp
    8798: 20 02 00 b4  	cbz	x0, 0x87dc <bpf_program__nth_fd+0x4c>
    879c: 04 60 40 b9  	ldr	w4, [x0, #96]
    87a0: 3f 00 00 71  	cmp	w1, #0
    87a4: e3 03 00 aa  	mov	x3, x0
    87a8: 84 a0 41 7a  	ccmp	w4, w1, #4, ge
    87ac: cd 00 00 54  	b.le	0x87c4 <bpf_program__nth_fd+0x34>
    87b0: 00 34 40 f9  	ldr	x0, [x0, #104]
    87b4: 00 d8 61 b8  	ldr	w0, [x0, w1, sxtw #2]
    87b8: e0 01 f8 37  	tbnz	w0, #31, 0x87f4 <bpf_program__nth_fd+0x64>
    87bc: fd 7b c1 a8  	ldp	x29, x30, [sp], #16
    87c0: c0 03 5f d6  	ret
    87c4: 63 18 40 f9  	ldr	x3, [x3, #48]
    87c8: e2 03 01 2a  	mov	w2, w1
    87cc: 00 00 80 52  	mov	w0, #0
    87d0: 01 00 00 90  	adrp	x1, 0x8000 <bpf_program__nth_fd+0x40>
    87d4: 21 00 00 91  	add	x1, x1, #0
    87d8: 00 00 00 94  	bl	0x87d8 <bpf_program__nth_fd+0x48>
    87dc: 00 00 00 94  	bl	0x87dc <bpf_program__nth_fd+0x4c>
    87e0: e1 03 00 aa  	mov	x1, x0
    87e4: c2 02 80 52  	mov	w2, #22
    87e8: a0 02 80 12  	mov	w0, #-22
    87ec: 22 00 00 b9  	str	w2, [x1]
    87f0: f3 ff ff 17  	b	0x87bc <bpf_program__nth_fd+0x2c>
    87f4: 63 18 40 f9  	ldr	x3, [x3, #48]
    87f8: e2 03 01 2a  	mov	w2, w1
    87fc: 01 00 00 90  	adrp	x1, 0x8000 <bpf_program__nth_fd+0x6c>
    8800: 21 00 00 91  	add	x1, x1, #0
    8804: 00 00 80 52  	mov	w0, #0
    8808: 00 00 00 94  	bl	0x8808 <bpf_program__nth_fd+0x78>
    880c: 00 00 00 94  	bl	0x880c <bpf_program__nth_fd+0x7c>
    8810: e1 03 00 aa  	mov	x1, x0
    8814: 42 00 80 52  	mov	w2, #2
    8818: 20 00 80 12  	mov	w0, #-2
    881c: 22 00 00 b9  	str	w2, [x1]
    8820: e7 ff ff 17  	b	0x87bc <bpf_program__nth_fd+0x2c>

0000000000008824 <bpf_program__attach_btf_id>:
    8824: fd 7b b4 a9  	stp	x29, x30, [sp, #-192]!
    8828: 02 00 00 90  	adrp	x2, 0x8000 <bpf_program__attach_btf_id+0x4>
    882c: 01 00 80 52  	mov	w1, #0
    8830: fd 03 00 91  	mov	x29, sp
    8834: 42 00 40 f9  	ldr	x2, [x2]
    8838: f3 53 01 a9  	stp	x19, x20, [sp, #16]
    883c: f5 5b 02 a9  	stp	x21, x22, [sp, #32]
    8840: f5 03 00 aa  	mov	x21, x0
    8844: 43 00 40 f9  	ldr	x3, [x2]
    8848: e3 5f 00 f9  	str	x3, [sp, #184]
    884c: 03 00 80 d2  	mov	x3, #0
    8850: 00 00 00 94  	bl	0x8850 <bpf_program__attach_btf_id+0x2c>
    8854: 60 03 f8 37  	tbnz	w0, #31, 0x88c0 <bpf_program__attach_btf_id+0x9c>
    8858: f4 03 00 2a  	mov	w20, w0
    885c: 01 04 80 d2  	mov	x1, #32
    8860: 20 00 80 d2  	mov	x0, #1
    8864: 00 00 00 94  	bl	0x8864 <bpf_program__attach_btf_id+0x40>
    8868: f3 03 00 aa  	mov	x19, x0
    886c: 60 07 00 b4  	cbz	x0, 0x8958 <bpf_program__attach_btf_id+0x134>
    8870: 00 00 00 90  	adrp	x0, 0x8000 <bpf_program__attach_btf_id+0x4c>
    8874: 00 00 00 91  	add	x0, x0, #0
    8878: 60 02 00 f9  	str	x0, [x19]
    887c: e1 03 14 2a  	mov	w1, w20
    8880: 00 00 80 d2  	mov	x0, #0
    8884: 00 00 00 94  	bl	0x8884 <bpf_program__attach_btf_id+0x60>
    8888: 80 03 f8 37  	tbnz	w0, #31, 0x88f8 <bpf_program__attach_btf_id+0xd4>
    888c: 60 1a 00 b9  	str	w0, [x19, #24]
    8890: 00 00 00 90  	adrp	x0, 0x8000 <bpf_program__attach_btf_id+0x6c>
    8894: 00 00 40 f9  	ldr	x0, [x0]
    8898: e2 5f 40 f9  	ldr	x2, [sp, #184]
    889c: 01 00 40 f9  	ldr	x1, [x0]
    88a0: 42 00 01 eb  	subs	x2, x2, x1
    88a4: 01 00 80 d2  	mov	x1, #0
    88a8: 61 05 00 54  	b.ne	0x8954 <bpf_program__attach_btf_id+0x130>
    88ac: e0 03 13 aa  	mov	x0, x19
    88b0: f3 53 41 a9  	ldp	x19, x20, [sp, #16]
    88b4: f5 5b 42 a9  	ldp	x21, x22, [sp, #32]
    88b8: fd 7b cc a8  	ldp	x29, x30, [sp], #192
    88bc: c0 03 5f d6  	ret
    88c0: a2 1a 40 f9  	ldr	x2, [x21, #48]
    88c4: 01 00 00 90  	adrp	x1, 0x8000 <bpf_program__attach_btf_id+0xa0>
    88c8: 21 00 00 91  	add	x1, x1, #0
    88cc: 00 00 80 52  	mov	w0, #0
    88d0: b3 02 80 92  	mov	x19, #-22
    88d4: 00 00 00 94  	bl	0x88d4 <bpf_program__attach_btf_id+0xb0>
    88d8: 00 00 00 94  	bl	0x88d8 <bpf_program__attach_btf_id+0xb4>
    88dc: c2 02 80 52  	mov	w2, #22
    88e0: 01 00 00 90  	adrp	x1, 0x8000 <bpf_program__attach_btf_id+0xbc>
    88e4: 02 00 00 b9  	str	w2, [x0]
    88e8: 20 00 40 b9  	ldr	w0, [x1]
    88ec: 20 fd 07 36  	tbz	w0, #0, 0x8890 <bpf_program__attach_btf_id+0x6c>
    88f0: 13 00 80 d2  	mov	x19, #0
    88f4: e7 ff ff 17  	b	0x8890 <bpf_program__attach_btf_id+0x6c>
    88f8: 00 00 00 94  	bl	0x88f8 <bpf_program__attach_btf_id+0xd4>
    88fc: f4 03 00 aa  	mov	x20, x0
    8900: e0 03 13 aa  	mov	x0, x19
    8904: 96 02 40 b9  	ldr	w22, [x20]
    8908: 00 00 00 94  	bl	0x8908 <bpf_program__attach_btf_id+0xe4>
    890c: b5 1a 40 f9  	ldr	x21, [x21, #48]
    8910: f3 03 16 4b  	neg	w19, w22
    8914: e1 e3 00 91  	add	x1, sp, #56
    8918: 02 10 80 52  	mov	w2, #128
    891c: e0 03 13 2a  	mov	w0, w19
    8920: 00 00 00 94  	bl	0x8920 <bpf_program__attach_btf_id+0xfc>
    8924: e2 03 15 aa  	mov	x2, x21
    8928: e3 03 00 aa  	mov	x3, x0
    892c: 01 00 00 90  	adrp	x1, 0x8000 <bpf_program__attach_btf_id+0x108>
    8930: 00 00 80 52  	mov	w0, #0
    8934: 21 00 00 91  	add	x1, x1, #0
    8938: 00 00 00 94  	bl	0x8938 <bpf_program__attach_btf_id+0x114>
    893c: 00 00 00 90  	adrp	x0, 0x8000 <bpf_program__attach_btf_id+0x118>
    8940: 96 02 00 b9  	str	w22, [x20]
    8944: 00 00 40 b9  	ldr	w0, [x0]
    8948: 40 fd 07 37  	tbnz	w0, #0, 0x88f0 <bpf_program__attach_btf_id+0xcc>
    894c: 73 7e 40 93  	sxtw	x19, w19
    8950: d0 ff ff 17  	b	0x8890 <bpf_program__attach_btf_id+0x6c>
    8954: 00 00 00 94  	bl	0x8954 <bpf_program__attach_btf_id+0x130>
    8958: 00 00 00 90  	adrp	x0, 0x8000 <bpf_program__attach_btf_id+0x134>
    895c: 00 00 40 f9  	ldr	x0, [x0]
    8960: e2 5f 40 f9  	ldr	x2, [sp, #184]
    8964: 01 00 40 f9  	ldr	x1, [x0]
    8968: 42 00 01 eb  	subs	x2, x2, x1
    896c: 01 00 80 d2  	mov	x1, #0
    8970: 21 ff ff 54  	b.ne	0x8954 <bpf_program__attach_btf_id+0x130>
    8974: f3 53 41 a9  	ldp	x19, x20, [sp, #16]
    8978: 60 01 80 12  	mov	w0, #-12
    897c: f5 5b 42 a9  	ldp	x21, x22, [sp, #32]
    8980: fd 7b cc a8  	ldp	x29, x30, [sp], #192
    8984: 2b de ff 17  	b	0x230 <libbpf_err_ptr>
    8988: 1f 20 03 d5  	nop
    898c: 1f 20 03 d5  	nop

0000000000008990 <attach_trace>:
    8990: e0 03 01 aa  	mov	x0, x1
    8994: a4 ff ff 17  	b	0x8824 <bpf_program__attach_btf_id>
    8998: 1f 20 03 d5  	nop
    899c: 1f 20 03 d5  	nop

00000000000089a0 <attach_lsm>:
    89a0: e0 03 01 aa  	mov	x0, x1
    89a4: a0 ff ff 17  	b	0x8824 <bpf_program__attach_btf_id>
    89a8: 1f 20 03 d5  	nop
    89ac: 1f 20 03 d5  	nop

00000000000089b0 <bpf_program__attach_fd>:
    89b0: fd 7b ae a9  	stp	x29, x30, [sp, #-288]!
    89b4: 05 00 00 90  	adrp	x5, 0x8000 <bpf_program__attach_fd+0x4>
    89b8: 06 05 80 d2  	mov	x6, #40
    89bc: fd 03 00 91  	mov	x29, sp
    89c0: a5 00 40 f9  	ldr	x5, [x5]
    89c4: f3 53 01 a9  	stp	x19, x20, [sp, #16]
    89c8: e4 c3 01 91  	add	x4, sp, #112
    89cc: f5 5b 02 a9  	stp	x21, x22, [sp, #32]
    89d0: f5 23 01 91  	add	x21, sp, #72
    89d4: f6 03 00 aa  	mov	x22, x0
    89d8: f7 63 03 a9  	stp	x23, x24, [sp, #48]
    89dc: f7 03 01 2a  	mov	w23, w1
    89e0: f8 03 03 aa  	mov	x24, x3
    89e4: a7 00 40 f9  	ldr	x7, [x5]
    89e8: e7 8f 00 f9  	str	x7, [sp, #280]
    89ec: 07 00 80 d2  	mov	x7, #0
    89f0: ff ff 08 a9  	stp	xzr, xzr, [sp, #136]
    89f4: 01 00 80 52  	mov	w1, #0
    89f8: e6 3b 00 f9  	str	x6, [sp, #112]
    89fc: ff ff 07 a9  	stp	xzr, xzr, [sp, #120]
    8a00: e2 8f 00 b9  	str	w2, [sp, #140]
    8a04: e2 4b 40 f9  	ldr	x2, [sp, #144]
    8a08: a2 12 00 f9  	str	x2, [x21, #32]
    8a0c: 80 04 40 ad  	ldp	q0, q1, [x4]
    8a10: a0 06 00 ad  	stp	q0, q1, [x21]
    8a14: 00 00 00 94  	bl	0x8a14 <bpf_program__attach_fd+0x64>
    8a18: c0 03 f8 37  	tbnz	w0, #31, 0x8a90 <bpf_program__attach_fd+0xe0>
    8a1c: f4 03 00 2a  	mov	w20, w0
    8a20: 01 04 80 d2  	mov	x1, #32
    8a24: 20 00 80 d2  	mov	x0, #1
    8a28: 00 00 00 94  	bl	0x8a28 <bpf_program__attach_fd+0x78>
    8a2c: f3 03 00 aa  	mov	x19, x0
    8a30: e0 07 00 b4  	cbz	x0, 0x8b2c <bpf_program__attach_fd+0x17c>
    8a34: c2 9a 40 b9  	ldr	w2, [x22, #152]
    8a38: 00 00 00 90  	adrp	x0, 0x8000 <bpf_program__attach_fd+0x88>
    8a3c: 00 00 00 91  	add	x0, x0, #0
    8a40: 60 02 00 f9  	str	x0, [x19]
    8a44: e3 03 15 aa  	mov	x3, x21
    8a48: e1 03 17 2a  	mov	w1, w23
    8a4c: e0 03 14 2a  	mov	w0, w20
    8a50: 00 00 00 94  	bl	0x8a50 <bpf_program__attach_fd+0xa0>
    8a54: a0 03 f8 37  	tbnz	w0, #31, 0x8ac8 <bpf_program__attach_fd+0x118>
    8a58: 60 1a 00 b9  	str	w0, [x19, #24]
    8a5c: 00 00 00 90  	adrp	x0, 0x8000 <bpf_program__attach_fd+0xac>
    8a60: 00 00 40 f9  	ldr	x0, [x0]
    8a64: e2 8f 40 f9  	ldr	x2, [sp, #280]
    8a68: 01 00 40 f9  	ldr	x1, [x0]
    8a6c: 42 00 01 eb  	subs	x2, x2, x1
    8a70: 01 00 80 d2  	mov	x1, #0
    8a74: a1 05 00 54  	b.ne	0x8b28 <bpf_program__attach_fd+0x178>
    8a78: e0 03 13 aa  	mov	x0, x19
    8a7c: f3 53 41 a9  	ldp	x19, x20, [sp, #16]
    8a80: f5 5b 42 a9  	ldp	x21, x22, [sp, #32]
    8a84: f7 63 43 a9  	ldp	x23, x24, [sp, #48]
    8a88: fd 7b d2 a8  	ldp	x29, x30, [sp], #288
    8a8c: c0 03 5f d6  	ret
    8a90: c2 1a 40 f9  	ldr	x2, [x22, #48]
    8a94: 01 00 00 90  	adrp	x1, 0x8000 <bpf_program__attach_fd+0xe4>
    8a98: 21 00 00 91  	add	x1, x1, #0
    8a9c: 00 00 80 52  	mov	w0, #0
    8aa0: b3 02 80 92  	mov	x19, #-22
    8aa4: 00 00 00 94  	bl	0x8aa4 <bpf_program__attach_fd+0xf4>
    8aa8: 00 00 00 94  	bl	0x8aa8 <bpf_program__attach_fd+0xf8>
    8aac: c2 02 80 52  	mov	w2, #22
    8ab0: 01 00 00 90  	adrp	x1, 0x8000 <bpf_program__attach_fd+0x100>
    8ab4: 02 00 00 b9  	str	w2, [x0]
    8ab8: 20 00 40 b9  	ldr	w0, [x1]
    8abc: 00 fd 07 36  	tbz	w0, #0, 0x8a5c <bpf_program__attach_fd+0xac>
    8ac0: 13 00 80 d2  	mov	x19, #0
    8ac4: e6 ff ff 17  	b	0x8a5c <bpf_program__attach_fd+0xac>
    8ac8: 00 00 00 94  	bl	0x8ac8 <bpf_program__attach_fd+0x118>
    8acc: f4 03 00 aa  	mov	x20, x0
    8ad0: e0 03 13 aa  	mov	x0, x19
    8ad4: 95 02 40 b9  	ldr	w21, [x20]
    8ad8: 00 00 00 94  	bl	0x8ad8 <bpf_program__attach_fd+0x128>
    8adc: d6 1a 40 f9  	ldr	x22, [x22, #48]
    8ae0: f3 03 15 4b  	neg	w19, w21
    8ae4: e1 63 02 91  	add	x1, sp, #152
    8ae8: 02 10 80 52  	mov	w2, #128
    8aec: e0 03 13 2a  	mov	w0, w19
    8af0: 00 00 00 94  	bl	0x8af0 <bpf_program__attach_fd+0x140>
    8af4: e2 03 16 aa  	mov	x2, x22
    8af8: e4 03 00 aa  	mov	x4, x0
    8afc: e3 03 18 aa  	mov	x3, x24
    8b00: 00 00 80 52  	mov	w0, #0
    8b04: 01 00 00 90  	adrp	x1, 0x8000 <bpf_program__attach_fd+0x154>
    8b08: 21 00 00 91  	add	x1, x1, #0
    8b0c: 00 00 00 94  	bl	0x8b0c <bpf_program__attach_fd+0x15c>
    8b10: 95 02 00 b9  	str	w21, [x20]
    8b14: 00 00 00 90  	adrp	x0, 0x8000 <bpf_program__attach_fd+0x164>
    8b18: 00 00 40 b9  	ldr	w0, [x0]
    8b1c: 20 fd 07 37  	tbnz	w0, #0, 0x8ac0 <bpf_program__attach_fd+0x110>
    8b20: 73 7e 40 93  	sxtw	x19, w19
    8b24: ce ff ff 17  	b	0x8a5c <bpf_program__attach_fd+0xac>
    8b28: 00 00 00 94  	bl	0x8b28 <bpf_program__attach_fd+0x178>
    8b2c: 60 01 80 12  	mov	w0, #-12
    8b30: c0 dd ff 97  	bl	0x230 <libbpf_err_ptr>
    8b34: f3 03 00 aa  	mov	x19, x0
    8b38: c9 ff ff 17  	b	0x8a5c <bpf_program__attach_fd+0xac>
    8b3c: 1f 20 03 d5  	nop

0000000000008b40 <bpf_program__get_type>:
    8b40: 00 94 40 b9  	ldr	w0, [x0, #148]
    8b44: c0 03 5f d6  	ret
    8b48: 1f 20 03 d5  	nop
    8b4c: 1f 20 03 d5  	nop

0000000000008b50 <bpf_program__set_type>:
    8b50: 01 94 00 b9  	str	w1, [x0, #148]
    8b54: c0 03 5f d6  	ret
    8b58: 1f 20 03 d5  	nop
    8b5c: 1f 20 03 d5  	nop

0000000000008b60 <bpf_program__set_socket_filter>:
    8b60: c0 00 00 b4  	cbz	x0, 0x8b78 <bpf_program__set_socket_filter+0x18>
    8b64: e1 03 00 aa  	mov	x1, x0
    8b68: 22 00 80 52  	mov	w2, #1
    8b6c: 00 00 80 52  	mov	w0, #0
    8b70: 22 94 00 b9  	str	w2, [x1, #148]
    8b74: c0 03 5f d6  	ret
    8b78: fd 7b bf a9  	stp	x29, x30, [sp, #-16]!
    8b7c: fd 03 00 91  	mov	x29, sp
    8b80: 00 00 00 94  	bl	0x8b80 <bpf_program__set_socket_filter+0x20>
    8b84: e1 03 00 aa  	mov	x1, x0
    8b88: c2 02 80 52  	mov	w2, #22
    8b8c: a0 02 80 12  	mov	w0, #-22
    8b90: 22 00 00 b9  	str	w2, [x1]
    8b94: fd 7b c1 a8  	ldp	x29, x30, [sp], #16
    8b98: c0 03 5f d6  	ret
    8b9c: 1f 20 03 d5  	nop

0000000000008ba0 <bpf_program__is_socket_filter>:
    8ba0: a0 00 00 b4  	cbz	x0, 0x8bb4 <bpf_program__is_socket_filter+0x14>
    8ba4: 00 94 40 b9  	ldr	w0, [x0, #148]
    8ba8: 1f 04 00 71  	cmp	w0, #1
    8bac: e0 17 9f 1a  	cset	w0, eq
    8bb0: c0 03 5f d6  	ret
    8bb4: 00 00 80 52  	mov	w0, #0
    8bb8: c0 03 5f d6  	ret
    8bbc: 1f 20 03 d5  	nop

0000000000008bc0 <bpf_program__set_lsm>:
    8bc0: c0 00 00 b4  	cbz	x0, 0x8bd8 <bpf_program__set_lsm+0x18>
    8bc4: e1 03 00 aa  	mov	x1, x0
    8bc8: a2 03 80 52  	mov	w2, #29
    8bcc: 00 00 80 52  	mov	w0, #0
    8bd0: 22 94 00 b9  	str	w2, [x1, #148]
    8bd4: c0 03 5f d6  	ret
    8bd8: fd 7b bf a9  	stp	x29, x30, [sp, #-16]!
    8bdc: fd 03 00 91  	mov	x29, sp
    8be0: 00 00 00 94  	bl	0x8be0 <bpf_program__set_lsm+0x20>
    8be4: e1 03 00 aa  	mov	x1, x0
    8be8: c2 02 80 52  	mov	w2, #22
    8bec: a0 02 80 12  	mov	w0, #-22
    8bf0: 22 00 00 b9  	str	w2, [x1]
    8bf4: fd 7b c1 a8  	ldp	x29, x30, [sp], #16
    8bf8: c0 03 5f d6  	ret
    8bfc: 1f 20 03 d5  	nop

0000000000008c00 <bpf_program__is_lsm>:
    8c00: a0 00 00 b4  	cbz	x0, 0x8c14 <bpf_program__is_lsm+0x14>
    8c04: 00 94 40 b9  	ldr	w0, [x0, #148]
    8c08: 1f 74 00 71  	cmp	w0, #29
    8c0c: e0 17 9f 1a  	cset	w0, eq
    8c10: c0 03 5f d6  	ret
    8c14: 00 00 80 52  	mov	w0, #0
    8c18: c0 03 5f d6  	ret
    8c1c: 1f 20 03 d5  	nop

0000000000008c20 <bpf_program__set_kprobe>:
    8c20: c0 00 00 b4  	cbz	x0, 0x8c38 <bpf_program__set_kprobe+0x18>
    8c24: e1 03 00 aa  	mov	x1, x0
    8c28: 42 00 80 52  	mov	w2, #2
    8c2c: 00 00 80 52  	mov	w0, #0
    8c30: 22 94 00 b9  	str	w2, [x1, #148]
    8c34: c0 03 5f d6  	ret
    8c38: fd 7b bf a9  	stp	x29, x30, [sp, #-16]!
    8c3c: fd 03 00 91  	mov	x29, sp
    8c40: 00 00 00 94  	bl	0x8c40 <bpf_program__set_kprobe+0x20>
    8c44: e1 03 00 aa  	mov	x1, x0
    8c48: c2 02 80 52  	mov	w2, #22
    8c4c: a0 02 80 12  	mov	w0, #-22
    8c50: 22 00 00 b9  	str	w2, [x1]
    8c54: fd 7b c1 a8  	ldp	x29, x30, [sp], #16
    8c58: c0 03 5f d6  	ret
    8c5c: 1f 20 03 d5  	nop

0000000000008c60 <bpf_program__is_kprobe>:
    8c60: a0 00 00 b4  	cbz	x0, 0x8c74 <bpf_program__is_kprobe+0x14>
    8c64: 00 94 40 b9  	ldr	w0, [x0, #148]
    8c68: 1f 08 00 71  	cmp	w0, #2
    8c6c: e0 17 9f 1a  	cset	w0, eq
    8c70: c0 03 5f d6  	ret
    8c74: 00 00 80 52  	mov	w0, #0
    8c78: c0 03 5f d6  	ret
    8c7c: 1f 20 03 d5  	nop

0000000000008c80 <bpf_program__set_sched_cls>:
    8c80: c0 00 00 b4  	cbz	x0, 0x8c98 <bpf_program__set_sched_cls+0x18>
    8c84: e1 03 00 aa  	mov	x1, x0
    8c88: 62 00 80 52  	mov	w2, #3
    8c8c: 00 00 80 52  	mov	w0, #0
    8c90: 22 94 00 b9  	str	w2, [x1, #148]
    8c94: c0 03 5f d6  	ret
    8c98: fd 7b bf a9  	stp	x29, x30, [sp, #-16]!
    8c9c: fd 03 00 91  	mov	x29, sp
    8ca0: 00 00 00 94  	bl	0x8ca0 <bpf_program__set_sched_cls+0x20>
    8ca4: e1 03 00 aa  	mov	x1, x0
    8ca8: c2 02 80 52  	mov	w2, #22
    8cac: a0 02 80 12  	mov	w0, #-22
    8cb0: 22 00 00 b9  	str	w2, [x1]
    8cb4: fd 7b c1 a8  	ldp	x29, x30, [sp], #16
    8cb8: c0 03 5f d6  	ret
    8cbc: 1f 20 03 d5  	nop

0000000000008cc0 <bpf_program__is_sched_cls>:
    8cc0: a0 00 00 b4  	cbz	x0, 0x8cd4 <bpf_program__is_sched_cls+0x14>
    8cc4: 00 94 40 b9  	ldr	w0, [x0, #148]
    8cc8: 1f 0c 00 71  	cmp	w0, #3
    8ccc: e0 17 9f 1a  	cset	w0, eq
    8cd0: c0 03 5f d6  	ret
    8cd4: 00 00 80 52  	mov	w0, #0
    8cd8: c0 03 5f d6  	ret
    8cdc: 1f 20 03 d5  	nop

0000000000008ce0 <bpf_program__set_sched_act>:
    8ce0: c0 00 00 b4  	cbz	x0, 0x8cf8 <bpf_program__set_sched_act+0x18>
    8ce4: e1 03 00 aa  	mov	x1, x0
    8ce8: 82 00 80 52  	mov	w2, #4
    8cec: 00 00 80 52  	mov	w0, #0
    8cf0: 22 94 00 b9  	str	w2, [x1, #148]
    8cf4: c0 03 5f d6  	ret
    8cf8: fd 7b bf a9  	stp	x29, x30, [sp, #-16]!
    8cfc: fd 03 00 91  	mov	x29, sp
    8d00: 00 00 00 94  	bl	0x8d00 <bpf_program__set_sched_act+0x20>
    8d04: e1 03 00 aa  	mov	x1, x0
    8d08: c2 02 80 52  	mov	w2, #22
    8d0c: a0 02 80 12  	mov	w0, #-22
    8d10: 22 00 00 b9  	str	w2, [x1]
    8d14: fd 7b c1 a8  	ldp	x29, x30, [sp], #16
    8d18: c0 03 5f d6  	ret
    8d1c: 1f 20 03 d5  	nop

0000000000008d20 <bpf_program__is_sched_act>:
    8d20: a0 00 00 b4  	cbz	x0, 0x8d34 <bpf_program__is_sched_act+0x14>
    8d24: 00 94 40 b9  	ldr	w0, [x0, #148]
    8d28: 1f 10 00 71  	cmp	w0, #4
    8d2c: e0 17 9f 1a  	cset	w0, eq
    8d30: c0 03 5f d6  	ret
    8d34: 00 00 80 52  	mov	w0, #0
    8d38: c0 03 5f d6  	ret
    8d3c: 1f 20 03 d5  	nop

0000000000008d40 <bpf_program__set_tracepoint>:
    8d40: c0 00 00 b4  	cbz	x0, 0x8d58 <bpf_program__set_tracepoint+0x18>
    8d44: e1 03 00 aa  	mov	x1, x0
    8d48: a2 00 80 52  	mov	w2, #5
    8d4c: 00 00 80 52  	mov	w0, #0
    8d50: 22 94 00 b9  	str	w2, [x1, #148]
    8d54: c0 03 5f d6  	ret
    8d58: fd 7b bf a9  	stp	x29, x30, [sp, #-16]!
    8d5c: fd 03 00 91  	mov	x29, sp
    8d60: 00 00 00 94  	bl	0x8d60 <bpf_program__set_tracepoint+0x20>
    8d64: e1 03 00 aa  	mov	x1, x0
    8d68: c2 02 80 52  	mov	w2, #22
    8d6c: a0 02 80 12  	mov	w0, #-22
    8d70: 22 00 00 b9  	str	w2, [x1]
    8d74: fd 7b c1 a8  	ldp	x29, x30, [sp], #16
    8d78: c0 03 5f d6  	ret
    8d7c: 1f 20 03 d5  	nop

0000000000008d80 <bpf_program__is_tracepoint>:
    8d80: a0 00 00 b4  	cbz	x0, 0x8d94 <bpf_program__is_tracepoint+0x14>
    8d84: 00 94 40 b9  	ldr	w0, [x0, #148]
    8d88: 1f 14 00 71  	cmp	w0, #5
    8d8c: e0 17 9f 1a  	cset	w0, eq
    8d90: c0 03 5f d6  	ret
    8d94: 00 00 80 52  	mov	w0, #0
    8d98: c0 03 5f d6  	ret
    8d9c: 1f 20 03 d5  	nop

0000000000008da0 <bpf_program__set_raw_tracepoint>:
    8da0: c0 00 00 b4  	cbz	x0, 0x8db8 <bpf_program__set_raw_tracepoint+0x18>
    8da4: e1 03 00 aa  	mov	x1, x0
    8da8: 22 02 80 52  	mov	w2, #17
    8dac: 00 00 80 52  	mov	w0, #0
    8db0: 22 94 00 b9  	str	w2, [x1, #148]
    8db4: c0 03 5f d6  	ret
    8db8: fd 7b bf a9  	stp	x29, x30, [sp, #-16]!
    8dbc: fd 03 00 91  	mov	x29, sp
    8dc0: 00 00 00 94  	bl	0x8dc0 <bpf_program__set_raw_tracepoint+0x20>
    8dc4: e1 03 00 aa  	mov	x1, x0
    8dc8: c2 02 80 52  	mov	w2, #22
    8dcc: a0 02 80 12  	mov	w0, #-22
    8dd0: 22 00 00 b9  	str	w2, [x1]
    8dd4: fd 7b c1 a8  	ldp	x29, x30, [sp], #16
    8dd8: c0 03 5f d6  	ret
    8ddc: 1f 20 03 d5  	nop

0000000000008de0 <bpf_program__is_raw_tracepoint>:
    8de0: a0 00 00 b4  	cbz	x0, 0x8df4 <bpf_program__is_raw_tracepoint+0x14>
    8de4: 00 94 40 b9  	ldr	w0, [x0, #148]
    8de8: 1f 44 00 71  	cmp	w0, #17
    8dec: e0 17 9f 1a  	cset	w0, eq
    8df0: c0 03 5f d6  	ret
    8df4: 00 00 80 52  	mov	w0, #0
    8df8: c0 03 5f d6  	ret
    8dfc: 1f 20 03 d5  	nop

0000000000008e00 <bpf_program__set_xdp>:
    8e00: c0 00 00 b4  	cbz	x0, 0x8e18 <bpf_program__set_xdp+0x18>
    8e04: e1 03 00 aa  	mov	x1, x0
    8e08: c2 00 80 52  	mov	w2, #6
    8e0c: 00 00 80 52  	mov	w0, #0
    8e10: 22 94 00 b9  	str	w2, [x1, #148]
    8e14: c0 03 5f d6  	ret
    8e18: fd 7b bf a9  	stp	x29, x30, [sp, #-16]!
    8e1c: fd 03 00 91  	mov	x29, sp
    8e20: 00 00 00 94  	bl	0x8e20 <bpf_program__set_xdp+0x20>
    8e24: e1 03 00 aa  	mov	x1, x0
    8e28: c2 02 80 52  	mov	w2, #22
    8e2c: a0 02 80 12  	mov	w0, #-22
    8e30: 22 00 00 b9  	str	w2, [x1]
    8e34: fd 7b c1 a8  	ldp	x29, x30, [sp], #16
    8e38: c0 03 5f d6  	ret
    8e3c: 1f 20 03 d5  	nop

0000000000008e40 <bpf_program__is_xdp>:
    8e40: a0 00 00 b4  	cbz	x0, 0x8e54 <bpf_program__is_xdp+0x14>
    8e44: 00 94 40 b9  	ldr	w0, [x0, #148]
    8e48: 1f 18 00 71  	cmp	w0, #6
    8e4c: e0 17 9f 1a  	cset	w0, eq
    8e50: c0 03 5f d6  	ret
    8e54: 00 00 80 52  	mov	w0, #0
    8e58: c0 03 5f d6  	ret
    8e5c: 1f 20 03 d5  	nop

0000000000008e60 <bpf_program__set_perf_event>:
    8e60: c0 00 00 b4  	cbz	x0, 0x8e78 <bpf_program__set_perf_event+0x18>
    8e64: e1 03 00 aa  	mov	x1, x0
    8e68: e2 00 80 52  	mov	w2, #7
    8e6c: 00 00 80 52  	mov	w0, #0
    8e70: 22 94 00 b9  	str	w2, [x1, #148]
    8e74: c0 03 5f d6  	ret
    8e78: fd 7b bf a9  	stp	x29, x30, [sp, #-16]!
    8e7c: fd 03 00 91  	mov	x29, sp
    8e80: 00 00 00 94  	bl	0x8e80 <bpf_program__set_perf_event+0x20>
    8e84: e1 03 00 aa  	mov	x1, x0
    8e88: c2 02 80 52  	mov	w2, #22
    8e8c: a0 02 80 12  	mov	w0, #-22
    8e90: 22 00 00 b9  	str	w2, [x1]
    8e94: fd 7b c1 a8  	ldp	x29, x30, [sp], #16
    8e98: c0 03 5f d6  	ret
    8e9c: 1f 20 03 d5  	nop

0000000000008ea0 <bpf_program__is_perf_event>:
    8ea0: a0 00 00 b4  	cbz	x0, 0x8eb4 <bpf_program__is_perf_event+0x14>
    8ea4: 00 94 40 b9  	ldr	w0, [x0, #148]
    8ea8: 1f 1c 00 71  	cmp	w0, #7
    8eac: e0 17 9f 1a  	cset	w0, eq
    8eb0: c0 03 5f d6  	ret
    8eb4: 00 00 80 52  	mov	w0, #0
    8eb8: c0 03 5f d6  	ret
    8ebc: 1f 20 03 d5  	nop

0000000000008ec0 <bpf_program__set_tracing>:
    8ec0: c0 00 00 b4  	cbz	x0, 0x8ed8 <bpf_program__set_tracing+0x18>
    8ec4: e1 03 00 aa  	mov	x1, x0
    8ec8: 42 03 80 52  	mov	w2, #26
    8ecc: 00 00 80 52  	mov	w0, #0
    8ed0: 22 94 00 b9  	str	w2, [x1, #148]
    8ed4: c0 03 5f d6  	ret
    8ed8: fd 7b bf a9  	stp	x29, x30, [sp, #-16]!
    8edc: fd 03 00 91  	mov	x29, sp
    8ee0: 00 00 00 94  	bl	0x8ee0 <bpf_program__set_tracing+0x20>
    8ee4: e1 03 00 aa  	mov	x1, x0
    8ee8: c2 02 80 52  	mov	w2, #22
    8eec: a0 02 80 12  	mov	w0, #-22
    8ef0: 22 00 00 b9  	str	w2, [x1]
    8ef4: fd 7b c1 a8  	ldp	x29, x30, [sp], #16
    8ef8: c0 03 5f d6  	ret
    8efc: 1f 20 03 d5  	nop

0000000000008f00 <bpf_program__is_tracing>:
    8f00: a0 00 00 b4  	cbz	x0, 0x8f14 <bpf_program__is_tracing+0x14>
    8f04: 00 94 40 b9  	ldr	w0, [x0, #148]
    8f08: 1f 68 00 71  	cmp	w0, #26
    8f0c: e0 17 9f 1a  	cset	w0, eq
    8f10: c0 03 5f d6  	ret
    8f14: 00 00 80 52  	mov	w0, #0
    8f18: c0 03 5f d6  	ret
    8f1c: 1f 20 03 d5  	nop

0000000000008f20 <bpf_program__set_struct_ops>:
    8f20: c0 00 00 b4  	cbz	x0, 0x8f38 <bpf_program__set_struct_ops+0x18>
    8f24: e1 03 00 aa  	mov	x1, x0
    8f28: 62 03 80 52  	mov	w2, #27
    8f2c: 00 00 80 52  	mov	w0, #0
    8f30: 22 94 00 b9  	str	w2, [x1, #148]
    8f34: c0 03 5f d6  	ret
    8f38: fd 7b bf a9  	stp	x29, x30, [sp, #-16]!
    8f3c: fd 03 00 91  	mov	x29, sp
    8f40: 00 00 00 94  	bl	0x8f40 <bpf_program__set_struct_ops+0x20>
    8f44: e1 03 00 aa  	mov	x1, x0
    8f48: c2 02 80 52  	mov	w2, #22
    8f4c: a0 02 80 12  	mov	w0, #-22
    8f50: 22 00 00 b9  	str	w2, [x1]
    8f54: fd 7b c1 a8  	ldp	x29, x30, [sp], #16
    8f58: c0 03 5f d6  	ret
    8f5c: 1f 20 03 d5  	nop

0000000000008f60 <bpf_program__is_struct_ops>:
    8f60: a0 00 00 b4  	cbz	x0, 0x8f74 <bpf_program__is_struct_ops+0x14>
    8f64: 00 94 40 b9  	ldr	w0, [x0, #148]
    8f68: 1f 6c 00 71  	cmp	w0, #27
    8f6c: e0 17 9f 1a  	cset	w0, eq
    8f70: c0 03 5f d6  	ret
    8f74: 00 00 80 52  	mov	w0, #0
    8f78: c0 03 5f d6  	ret
    8f7c: 1f 20 03 d5  	nop

0000000000008f80 <bpf_program__set_extension>:
    8f80: c0 00 00 b4  	cbz	x0, 0x8f98 <bpf_program__set_extension+0x18>
    8f84: e1 03 00 aa  	mov	x1, x0
    8f88: 82 03 80 52  	mov	w2, #28
    8f8c: 00 00 80 52  	mov	w0, #0
    8f90: 22 94 00 b9  	str	w2, [x1, #148]
    8f94: c0 03 5f d6  	ret
    8f98: fd 7b bf a9  	stp	x29, x30, [sp, #-16]!
    8f9c: fd 03 00 91  	mov	x29, sp
    8fa0: 00 00 00 94  	bl	0x8fa0 <bpf_program__set_extension+0x20>
    8fa4: e1 03 00 aa  	mov	x1, x0
    8fa8: c2 02 80 52  	mov	w2, #22
    8fac: a0 02 80 12  	mov	w0, #-22
    8fb0: 22 00 00 b9  	str	w2, [x1]
    8fb4: fd 7b c1 a8  	ldp	x29, x30, [sp], #16
    8fb8: c0 03 5f d6  	ret
    8fbc: 1f 20 03 d5  	nop

0000000000008fc0 <bpf_program__is_extension>:
    8fc0: a0 00 00 b4  	cbz	x0, 0x8fd4 <bpf_program__is_extension+0x14>
    8fc4: 00 94 40 b9  	ldr	w0, [x0, #148]
    8fc8: 1f 70 00 71  	cmp	w0, #28
    8fcc: e0 17 9f 1a  	cset	w0, eq
    8fd0: c0 03 5f d6  	ret
    8fd4: 00 00 80 52  	mov	w0, #0
    8fd8: c0 03 5f d6  	ret
    8fdc: 1f 20 03 d5  	nop

0000000000008fe0 <bpf_program__set_sk_lookup>:
    8fe0: c0 00 00 b4  	cbz	x0, 0x8ff8 <bpf_program__set_sk_lookup+0x18>
    8fe4: e1 03 00 aa  	mov	x1, x0
    8fe8: c2 03 80 52  	mov	w2, #30
    8fec: 00 00 80 52  	mov	w0, #0
    8ff0: 22 94 00 b9  	str	w2, [x1, #148]
    8ff4: c0 03 5f d6  	ret
    8ff8: fd 7b bf a9  	stp	x29, x30, [sp, #-16]!
    8ffc: fd 03 00 91  	mov	x29, sp
    9000: 00 00 00 94  	bl	0x9000 <bpf_program__set_sk_lookup+0x20>
    9004: e1 03 00 aa  	mov	x1, x0
    9008: c2 02 80 52  	mov	w2, #22
    900c: a0 02 80 12  	mov	w0, #-22
    9010: 22 00 00 b9  	str	w2, [x1]
    9014: fd 7b c1 a8  	ldp	x29, x30, [sp], #16
    9018: c0 03 5f d6  	ret
    901c: 1f 20 03 d5  	nop

0000000000009020 <bpf_program__is_sk_lookup>:
    9020: a0 00 00 b4  	cbz	x0, 0x9034 <bpf_program__is_sk_lookup+0x14>
    9024: 00 94 40 b9  	ldr	w0, [x0, #148]
    9028: 1f 78 00 71  	cmp	w0, #30
    902c: e0 17 9f 1a  	cset	w0, eq
    9030: c0 03 5f d6  	ret
    9034: 00 00 80 52  	mov	w0, #0
    9038: c0 03 5f d6  	ret
    903c: 1f 20 03 d5  	nop

0000000000009040 <bpf_program__get_expected_attach_type>:
    9040: 00 98 40 b9  	ldr	w0, [x0, #152]
    9044: c0 03 5f d6  	ret
    9048: 1f 20 03 d5  	nop
    904c: 1f 20 03 d5  	nop

0000000000009050 <bpf_program__set_expected_attach_type>:
    9050: 01 98 00 b9  	str	w1, [x0, #152]
    9054: c0 03 5f d6  	ret
    9058: 1f 20 03 d5  	nop
    905c: 1f 20 03 d5  	nop

0000000000009060 <libbpf_prog_type_by_name>:
    9060: fd 7b bc a9  	stp	x29, x30, [sp, #-64]!
    9064: fd 03 00 91  	mov	x29, sp
    9068: a0 07 00 b4  	cbz	x0, 0x915c <libbpf_prog_type_by_name+0xfc>
    906c: f5 5b 02 a9  	stp	x21, x22, [sp, #32]
    9070: 15 00 00 90  	adrp	x21, 0x9000 <libbpf_prog_type_by_name+0x10>
    9074: f6 03 02 aa  	mov	x22, x2
    9078: f7 63 03 a9  	stp	x23, x24, [sp, #48]
    907c: b8 02 00 91  	add	x24, x21, #0
    9080: f7 03 01 aa  	mov	x23, x1
    9084: 18 a3 00 91  	add	x24, x24, #40
    9088: 01 00 00 90  	adrp	x1, 0x9000 <libbpf_prog_type_by_name+0x28>
    908c: 21 00 00 91  	add	x1, x1, #0
    9090: f3 53 01 a9  	stp	x19, x20, [sp, #16]
    9094: f4 03 00 aa  	mov	x20, x0
    9098: c2 00 80 d2  	mov	x2, #6
    909c: 13 00 80 52  	mov	w19, #0
    90a0: e0 03 14 aa  	mov	x0, x20
    90a4: 00 00 00 94  	bl	0x90a4 <libbpf_prog_type_by_name+0x44>
    90a8: c0 01 00 35  	cbnz	w0, 0x90e0 <libbpf_prog_type_by_name+0x80>
    90ac: 61 7e 7e 93  	sbfiz	x1, x19, #2, #32
    90b0: b5 02 00 91  	add	x21, x21, #0
    90b4: 33 c0 33 8b  	add	x19, x1, w19, sxtw
    90b8: b3 0e 13 8b  	add	x19, x21, x19, lsl #3
    90bc: 61 12 40 b9  	ldr	w1, [x19, #16]
    90c0: e1 02 00 b9  	str	w1, [x23]
    90c4: 61 16 40 b9  	ldr	w1, [x19, #20]
    90c8: f3 53 41 a9  	ldp	x19, x20, [sp, #16]
    90cc: f7 63 43 a9  	ldp	x23, x24, [sp, #48]
    90d0: c1 02 00 b9  	str	w1, [x22]
    90d4: f5 5b 42 a9  	ldp	x21, x22, [sp, #32]
    90d8: fd 7b c4 a8  	ldp	x29, x30, [sp], #64
    90dc: c0 03 5f d6  	ret
    90e0: 73 06 00 11  	add	w19, w19, #1
    90e4: 7f 0a 01 71  	cmp	w19, #66
    90e8: 80 00 00 54  	b.eq	0x90f8 <libbpf_prog_type_by_name+0x98>
    90ec: 01 0b 40 a9  	ldp	x1, x2, [x24]
    90f0: 18 a3 00 91  	add	x24, x24, #40
    90f4: eb ff ff 17  	b	0x90a0 <libbpf_prog_type_by_name+0x40>
    90f8: e2 03 14 aa  	mov	x2, x20
    90fc: 01 00 00 90  	adrp	x1, 0x9000 <libbpf_prog_type_by_name+0x9c>
    9100: 21 00 00 91  	add	x1, x1, #0
    9104: 40 00 80 52  	mov	w0, #2
    9108: 00 00 00 94  	bl	0x9108 <libbpf_prog_type_by_name+0xa8>
    910c: 00 00 80 52  	mov	w0, #0
    9110: 70 de ff 97  	bl	0xad0 <libbpf_get_type_names>
    9114: f3 03 00 aa  	mov	x19, x0
    9118: 00 01 00 b4  	cbz	x0, 0x9138 <libbpf_prog_type_by_name+0xd8>
    911c: e2 03 13 aa  	mov	x2, x19
    9120: 01 00 00 90  	adrp	x1, 0x9000 <libbpf_prog_type_by_name+0xc0>
    9124: 21 00 00 91  	add	x1, x1, #0
    9128: 40 00 80 52  	mov	w0, #2
    912c: 00 00 00 94  	bl	0x912c <libbpf_prog_type_by_name+0xcc>
    9130: e0 03 13 aa  	mov	x0, x19
    9134: 00 00 00 94  	bl	0x9134 <libbpf_prog_type_by_name+0xd4>
    9138: 00 00 00 94  	bl	0x9138 <libbpf_prog_type_by_name+0xd8>
    913c: e1 03 00 aa  	mov	x1, x0
    9140: 62 00 80 52  	mov	w2, #3
    9144: 40 00 80 12  	mov	w0, #-3
    9148: f3 53 41 a9  	ldp	x19, x20, [sp, #16]
    914c: f5 5b 42 a9  	ldp	x21, x22, [sp, #32]
    9150: f7 63 43 a9  	ldp	x23, x24, [sp, #48]
    9154: 22 00 00 b9  	str	w2, [x1]
    9158: e0 ff ff 17  	b	0x90d8 <libbpf_prog_type_by_name+0x78>
    915c: 00 00 00 94  	bl	0x915c <libbpf_prog_type_by_name+0xfc>
    9160: e1 03 00 aa  	mov	x1, x0
    9164: c2 02 80 52  	mov	w2, #22
    9168: a0 02 80 12  	mov	w0, #-22
    916c: 22 00 00 b9  	str	w2, [x1]
    9170: da ff ff 17  	b	0x90d8 <libbpf_prog_type_by_name+0x78>

0000000000009174 <btf_get_kernel_prefix_kind>:
    9174: 1f 6c 00 71  	cmp	w0, #27
    9178: e0 02 00 54  	b.eq	0x91d4 <btf_get_kernel_prefix_kind+0x60>
    917c: 1f 70 00 71  	cmp	w0, #28
    9180: 20 01 00 54  	b.eq	0x91a4 <btf_get_kernel_prefix_kind+0x30>
    9184: 1f 5c 00 71  	cmp	w0, #23
    9188: a0 01 00 54  	b.eq	0x91bc <btf_get_kernel_prefix_kind+0x48>
    918c: 00 00 00 90  	adrp	x0, 0x9000 <btf_get_kernel_prefix_kind+0x18>
    9190: 00 00 00 91  	add	x0, x0, #0
    9194: 20 00 00 f9  	str	x0, [x1]
    9198: 83 01 80 52  	mov	w3, #12
    919c: 43 00 00 b9  	str	w3, [x2]
    91a0: c0 03 5f d6  	ret
    91a4: 00 00 00 90  	adrp	x0, 0x9000 <btf_get_kernel_prefix_kind+0x30>
    91a8: 00 00 00 91  	add	x0, x0, #0
    91ac: 20 00 00 f9  	str	x0, [x1]
    91b0: 83 01 80 52  	mov	w3, #12
    91b4: 43 00 00 b9  	str	w3, [x2]
    91b8: c0 03 5f d6  	ret
    91bc: 00 00 00 90  	adrp	x0, 0x9000 <btf_get_kernel_prefix_kind+0x48>
    91c0: 00 00 00 91  	add	x0, x0, #0
    91c4: 20 00 00 f9  	str	x0, [x1]
    91c8: 03 01 80 52  	mov	w3, #8
    91cc: 43 00 00 b9  	str	w3, [x2]
    91d0: c0 03 5f d6  	ret
    91d4: 00 00 00 90  	adrp	x0, 0x9000 <btf_get_kernel_prefix_kind+0x60>
    91d8: 00 00 00 91  	add	x0, x0, #0
    91dc: 20 00 00 f9  	str	x0, [x1]
    91e0: 83 01 80 52  	mov	w3, #12
    91e4: 43 00 00 b9  	str	w3, [x2]
    91e8: c0 03 5f d6  	ret
    91ec: 1f 20 03 d5  	nop

00000000000091f0 <libbpf_find_vmlinux_btf_id>:
    91f0: fd 7b b3 a9  	stp	x29, x30, [sp, #-208]!
    91f4: 02 00 00 90  	adrp	x2, 0x9000 <libbpf_find_vmlinux_btf_id+0x4>
    91f8: fd 03 00 91  	mov	x29, sp
    91fc: 42 00 40 f9  	ldr	x2, [x2]
    9200: f3 53 01 a9  	stp	x19, x20, [sp, #16]
    9204: f4 03 01 2a  	mov	w20, w1
    9208: f5 5b 02 a9  	stp	x21, x22, [sp, #32]
    920c: f6 03 00 aa  	mov	x22, x0
    9210: 40 00 40 f9  	ldr	x0, [x2]
    9214: e0 67 00 f9  	str	x0, [sp, #200]
    9218: 00 00 80 d2  	mov	x0, #0
    921c: 00 00 00 94  	bl	0x921c <libbpf_find_vmlinux_btf_id+0x2c>
    9220: f3 03 00 aa  	mov	x19, x0
    9224: 80 08 00 b4  	cbz	x0, 0x9334 <libbpf_find_vmlinux_btf_id+0x144>
    9228: 1f 04 40 b1  	cmn	x0, #1, lsl #12         // =4096
    922c: a8 0a 00 54  	b.hi	0x9380 <libbpf_find_vmlinux_btf_id+0x190>
    9230: 9f 6e 00 71  	cmp	w20, #27
    9234: 80 07 00 54  	b.eq	0x9324 <libbpf_find_vmlinux_btf_id+0x134>
    9238: 9f 72 00 71  	cmp	w20, #28
    923c: c0 06 00 54  	b.eq	0x9314 <libbpf_find_vmlinux_btf_id+0x124>
    9240: 9f 5e 00 71  	cmp	w20, #23
    9244: 00 06 00 54  	b.eq	0x9304 <libbpf_find_vmlinux_btf_id+0x114>
    9248: 05 00 00 90  	adrp	x5, 0x9000 <libbpf_find_vmlinux_btf_id+0x58>
    924c: a5 00 00 91  	add	x5, x5, #0
    9250: 94 01 80 52  	mov	w20, #12
    9254: f5 23 01 91  	add	x21, sp, #72
    9258: 04 00 00 90  	adrp	x4, 0x9000 <libbpf_find_vmlinux_btf_id+0x68>
    925c: 03 10 80 d2  	mov	x3, #128
    9260: e0 03 15 aa  	mov	x0, x21
    9264: 84 00 00 91  	add	x4, x4, #0
    9268: e1 03 03 aa  	mov	x1, x3
    926c: e6 03 16 aa  	mov	x6, x22
    9270: 22 00 80 52  	mov	w2, #1
    9274: 00 00 00 94  	bl	0x9274 <libbpf_find_vmlinux_btf_id+0x84>
    9278: 1f fc 01 71  	cmp	w0, #127
    927c: e8 08 00 54  	b.hi	0x9398 <libbpf_find_vmlinux_btf_id+0x1a8>
    9280: e1 03 15 aa  	mov	x1, x21
    9284: e2 03 14 2a  	mov	w2, w20
    9288: e0 03 13 aa  	mov	x0, x19
    928c: 00 00 00 94  	bl	0x928c <libbpf_find_vmlinux_btf_id+0x9c>
    9290: f5 03 00 2a  	mov	w21, w0
    9294: 1f 00 00 71  	cmp	w0, #0
    9298: ed 01 00 54  	b.le	0x92d4 <libbpf_find_vmlinux_btf_id+0xe4>
    929c: e0 03 13 aa  	mov	x0, x19
    92a0: 00 00 00 94  	bl	0x92a0 <libbpf_find_vmlinux_btf_id+0xb0>
    92a4: 00 00 00 90  	adrp	x0, 0x9000 <libbpf_find_vmlinux_btf_id+0xb4>
    92a8: 00 00 40 f9  	ldr	x0, [x0]
    92ac: e2 67 40 f9  	ldr	x2, [sp, #200]
    92b0: 01 00 40 f9  	ldr	x1, [x0]
    92b4: 42 00 01 eb  	subs	x2, x2, x1
    92b8: 01 00 80 d2  	mov	x1, #0
    92bc: 21 08 00 54  	b.ne	0x93c0 <libbpf_find_vmlinux_btf_id+0x1d0>
    92c0: e0 03 15 2a  	mov	w0, w21
    92c4: f3 53 41 a9  	ldp	x19, x20, [sp, #16]
    92c8: f5 5b 42 a9  	ldp	x21, x22, [sp, #32]
    92cc: fd 7b cd a8  	ldp	x29, x30, [sp], #208
    92d0: c0 03 5f d6  	ret
    92d4: e2 03 16 aa  	mov	x2, x22
    92d8: 01 00 00 90  	adrp	x1, 0x9000 <libbpf_find_vmlinux_btf_id+0xe8>
    92dc: 21 00 00 91  	add	x1, x1, #0
    92e0: 00 00 80 52  	mov	w0, #0
    92e4: 00 00 00 94  	bl	0x92e4 <libbpf_find_vmlinux_btf_id+0xf4>
    92e8: e0 03 13 aa  	mov	x0, x19
    92ec: 00 00 00 94  	bl	0x92ec <libbpf_find_vmlinux_btf_id+0xfc>
    92f0: b5 fd ff 34  	cbz	w21, 0x92a4 <libbpf_find_vmlinux_btf_id+0xb4>
    92f4: f4 03 15 4b  	neg	w20, w21
    92f8: 00 00 00 94  	bl	0x92f8 <libbpf_find_vmlinux_btf_id+0x108>
    92fc: 14 00 00 b9  	str	w20, [x0]
    9300: e9 ff ff 17  	b	0x92a4 <libbpf_find_vmlinux_btf_id+0xb4>
    9304: 05 00 00 90  	adrp	x5, 0x9000 <libbpf_find_vmlinux_btf_id+0x114>
    9308: 14 01 80 52  	mov	w20, #8
    930c: a5 00 00 91  	add	x5, x5, #0
    9310: d1 ff ff 17  	b	0x9254 <libbpf_find_vmlinux_btf_id+0x64>
    9314: 05 00 00 90  	adrp	x5, 0x9000 <libbpf_find_vmlinux_btf_id+0x124>
    9318: 94 01 80 52  	mov	w20, #12
    931c: a5 00 00 91  	add	x5, x5, #0
    9320: cd ff ff 17  	b	0x9254 <libbpf_find_vmlinux_btf_id+0x64>
    9324: 05 00 00 90  	adrp	x5, 0x9000 <libbpf_find_vmlinux_btf_id+0x134>
    9328: 94 01 80 52  	mov	w20, #12
    932c: a5 00 00 91  	add	x5, x5, #0
    9330: c9 ff ff 17  	b	0x9254 <libbpf_find_vmlinux_btf_id+0x64>
    9334: f7 63 03 a9  	stp	x23, x24, [sp, #48]
    9338: 00 00 00 94  	bl	0x9338 <libbpf_find_vmlinux_btf_id+0x148>
    933c: 17 00 40 b9  	ldr	w23, [x0]
    9340: f8 03 00 aa  	mov	x24, x0
    9344: f5 03 17 4b  	neg	w21, w23
    9348: 37 01 00 34  	cbz	w23, 0x936c <libbpf_find_vmlinux_btf_id+0x17c>
    934c: 01 00 00 90  	adrp	x1, 0x9000 <libbpf_find_vmlinux_btf_id+0x15c>
    9350: 00 00 80 52  	mov	w0, #0
    9354: 21 00 00 91  	add	x1, x1, #0
    9358: 00 00 00 94  	bl	0x9358 <libbpf_find_vmlinux_btf_id+0x168>
    935c: ff 02 00 71  	cmp	w23, #0
    9360: ac 00 00 54  	b.gt	0x9374 <libbpf_find_vmlinux_btf_id+0x184>
    9364: f7 63 43 a9  	ldp	x23, x24, [sp, #48]
    9368: cf ff ff 17  	b	0x92a4 <libbpf_find_vmlinux_btf_id+0xb4>
    936c: f7 63 43 a9  	ldp	x23, x24, [sp, #48]
    9370: b0 ff ff 17  	b	0x9230 <libbpf_find_vmlinux_btf_id+0x40>
    9374: 17 03 00 b9  	str	w23, [x24]
    9378: f7 63 43 a9  	ldp	x23, x24, [sp, #48]
    937c: ca ff ff 17  	b	0x92a4 <libbpf_find_vmlinux_btf_id+0xb4>
    9380: f7 63 03 a9  	stp	x23, x24, [sp, #48]
    9384: 00 00 00 94  	bl	0x9384 <libbpf_find_vmlinux_btf_id+0x194>
    9388: f7 03 13 4b  	neg	w23, w19
    938c: f8 03 00 aa  	mov	x24, x0
    9390: 17 00 00 b9  	str	w23, [x0]
    9394: ec ff ff 17  	b	0x9344 <libbpf_find_vmlinux_btf_id+0x154>
    9398: e2 03 16 aa  	mov	x2, x22
    939c: 01 00 00 90  	adrp	x1, 0x9000 <libbpf_find_vmlinux_btf_id+0x1ac>
    93a0: 21 00 00 91  	add	x1, x1, #0
    93a4: 00 00 80 52  	mov	w0, #0
    93a8: 00 00 00 94  	bl	0x93a8 <libbpf_find_vmlinux_btf_id+0x1b8>
    93ac: 94 04 80 52  	mov	w20, #36
    93b0: e0 03 13 aa  	mov	x0, x19
    93b4: 75 04 80 12  	mov	w21, #-36
    93b8: 00 00 00 94  	bl	0x93b8 <libbpf_find_vmlinux_btf_id+0x1c8>
    93bc: cf ff ff 17  	b	0x92f8 <libbpf_find_vmlinux_btf_id+0x108>
    93c0: f7 63 03 a9  	stp	x23, x24, [sp, #48]
    93c4: 00 00 00 94  	bl	0x93c4 <libbpf_find_vmlinux_btf_id+0x1d4>
    93c8: 1f 20 03 d5  	nop
    93cc: 1f 20 03 d5  	nop

00000000000093d0 <libbpf_attach_type_by_name>:
    93d0: fd 7b bc a9  	stp	x29, x30, [sp, #-64]!
    93d4: fd 03 00 91  	mov	x29, sp
    93d8: 80 07 00 b4  	cbz	x0, 0x94c8 <libbpf_attach_type_by_name+0xf8>
    93dc: f5 5b 02 a9  	stp	x21, x22, [sp, #32]
    93e0: 15 00 00 90  	adrp	x21, 0x9000 <libbpf_attach_type_by_name+0x10>
    93e4: f6 03 01 aa  	mov	x22, x1
    93e8: f7 1b 00 f9  	str	x23, [sp, #48]
    93ec: b7 02 00 91  	add	x23, x21, #0
    93f0: 01 00 00 90  	adrp	x1, 0x9000 <libbpf_attach_type_by_name+0x20>
    93f4: f7 a2 00 91  	add	x23, x23, #40
    93f8: 21 00 00 91  	add	x1, x1, #0
    93fc: f3 53 01 a9  	stp	x19, x20, [sp, #16]
    9400: f4 03 00 aa  	mov	x20, x0
    9404: c2 00 80 d2  	mov	x2, #6
    9408: 13 00 80 52  	mov	w19, #0
    940c: e0 03 14 aa  	mov	x0, x20
    9410: 00 00 00 94  	bl	0x9410 <libbpf_attach_type_by_name+0x40>
    9414: c0 01 00 35  	cbnz	w0, 0x944c <libbpf_attach_type_by_name+0x7c>
    9418: 61 7e 7e 93  	sbfiz	x1, x19, #2, #32
    941c: b5 02 00 91  	add	x21, x21, #0
    9420: 33 c0 33 8b  	add	x19, x1, w19, sxtw
    9424: b3 0e 13 8b  	add	x19, x21, x19, lsl #3
    9428: 61 66 40 39  	ldrb	w1, [x19, #25]
    942c: c1 03 00 34  	cbz	w1, 0x94a4 <libbpf_attach_type_by_name+0xd4>
    9430: 61 16 40 b9  	ldr	w1, [x19, #20]
    9434: f3 53 41 a9  	ldp	x19, x20, [sp, #16]
    9438: f7 1b 40 f9  	ldr	x23, [sp, #48]
    943c: c1 02 00 b9  	str	w1, [x22]
    9440: f5 5b 42 a9  	ldp	x21, x22, [sp, #32]
    9444: fd 7b c4 a8  	ldp	x29, x30, [sp], #64
    9448: c0 03 5f d6  	ret
    944c: 73 06 00 11  	add	w19, w19, #1
    9450: 7f 0a 01 71  	cmp	w19, #66
    9454: 80 00 00 54  	b.eq	0x9464 <libbpf_attach_type_by_name+0x94>
    9458: e1 0a 40 a9  	ldp	x1, x2, [x23]
    945c: f7 a2 00 91  	add	x23, x23, #40
    9460: eb ff ff 17  	b	0x940c <libbpf_attach_type_by_name+0x3c>
    9464: e2 03 14 aa  	mov	x2, x20
    9468: 01 00 00 90  	adrp	x1, 0x9000 <libbpf_attach_type_by_name+0x98>
    946c: 21 00 00 91  	add	x1, x1, #0
    9470: 40 00 80 52  	mov	w0, #2
    9474: 00 00 00 94  	bl	0x9474 <libbpf_attach_type_by_name+0xa4>
    9478: 20 00 80 52  	mov	w0, #1
    947c: 95 dd ff 97  	bl	0xad0 <libbpf_get_type_names>
    9480: f3 03 00 aa  	mov	x19, x0
    9484: 00 01 00 b4  	cbz	x0, 0x94a4 <libbpf_attach_type_by_name+0xd4>
    9488: e2 03 00 aa  	mov	x2, x0
    948c: 01 00 00 90  	adrp	x1, 0x9000 <libbpf_attach_type_by_name+0xbc>
    9490: 21 00 00 91  	add	x1, x1, #0
    9494: 40 00 80 52  	mov	w0, #2
    9498: 00 00 00 94  	bl	0x9498 <libbpf_attach_type_by_name+0xc8>
    949c: e0 03 13 aa  	mov	x0, x19
    94a0: 00 00 00 94  	bl	0x94a0 <libbpf_attach_type_by_name+0xd0>
    94a4: 00 00 00 94  	bl	0x94a4 <libbpf_attach_type_by_name+0xd4>
    94a8: e1 03 00 aa  	mov	x1, x0
    94ac: c2 02 80 52  	mov	w2, #22
    94b0: a0 02 80 12  	mov	w0, #-22
    94b4: f3 53 41 a9  	ldp	x19, x20, [sp, #16]
    94b8: f5 5b 42 a9  	ldp	x21, x22, [sp, #32]
    94bc: f7 1b 40 f9  	ldr	x23, [sp, #48]
    94c0: 22 00 00 b9  	str	w2, [x1]
    94c4: e0 ff ff 17  	b	0x9444 <libbpf_attach_type_by_name+0x74>
    94c8: 00 00 00 94  	bl	0x94c8 <libbpf_attach_type_by_name+0xf8>
    94cc: e1 03 00 aa  	mov	x1, x0
    94d0: c2 02 80 52  	mov	w2, #22
    94d4: a0 02 80 12  	mov	w0, #-22
    94d8: 22 00 00 b9  	str	w2, [x1]
    94dc: da ff ff 17  	b	0x9444 <libbpf_attach_type_by_name+0x74>

00000000000094e0 <bpf_map__fd>:
    94e0: 60 00 00 b4  	cbz	x0, 0x94ec <bpf_map__fd+0xc>
    94e4: 00 08 40 b9  	ldr	w0, [x0, #8]
    94e8: c0 03 5f d6  	ret
    94ec: fd 7b bf a9  	stp	x29, x30, [sp, #-16]!
    94f0: fd 03 00 91  	mov	x29, sp
    94f4: 00 00 00 94  	bl	0x94f4 <bpf_map__fd+0x14>
    94f8: e1 03 00 aa  	mov	x1, x0
    94fc: c2 02 80 52  	mov	w2, #22
    9500: a0 02 80 12  	mov	w0, #-22
    9504: 22 00 00 b9  	str	w2, [x1]
    9508: fd 7b c1 a8  	ldp	x29, x30, [sp], #16
    950c: c0 03 5f d6  	ret

0000000000009510 <bpf_map__def>:
    9510: 60 00 00 b4  	cbz	x0, 0x951c <bpf_map__def+0xc>
    9514: 00 80 00 91  	add	x0, x0, #32
    9518: c0 03 5f d6  	ret
    951c: fd 7b bf a9  	stp	x29, x30, [sp, #-16]!
    9520: fd 03 00 91  	mov	x29, sp
    9524: 00 00 00 94  	bl	0x9524 <bpf_map__def+0x14>
    9528: c3 02 80 52  	mov	w3, #22
    952c: 02 00 00 90  	adrp	x2, 0x9000 <bpf_map__def+0x1c>
    9530: 03 00 00 b9  	str	w3, [x0]
    9534: a1 02 80 92  	mov	x1, #-22
    9538: 40 00 40 b9  	ldr	w0, [x2]
    953c: fd 7b c1 a8  	ldp	x29, x30, [sp], #16
    9540: 1f 00 40 f2  	tst	x0, #0x1
    9544: e0 13 81 9a  	csel	x0, xzr, x1, ne
    9548: c0 03 5f d6  	ret
    954c: 1f 20 03 d5  	nop

0000000000009550 <bpf_map__name>:
    9550: 60 00 00 b4  	cbz	x0, 0x955c <bpf_map__name+0xc>
    9554: 00 00 40 f9  	ldr	x0, [x0]
    9558: c0 03 5f d6  	ret
    955c: 00 00 80 d2  	mov	x0, #0
    9560: c0 03 5f d6  	ret

0000000000009564 <bpf_map__type>:
    9564: 00 20 40 b9  	ldr	w0, [x0, #32]
    9568: c0 03 5f d6  	ret
    956c: 1f 20 03 d5  	nop

0000000000009570 <bpf_map__set_type>:
    9570: e2 03 00 aa  	mov	x2, x0
    9574: 00 08 40 b9  	ldr	w0, [x0, #8]
    9578: 80 00 f8 36  	tbz	w0, #31, 0x9588 <bpf_map__set_type+0x18>
    957c: 00 00 80 52  	mov	w0, #0
    9580: 41 20 00 b9  	str	w1, [x2, #32]
    9584: c0 03 5f d6  	ret
    9588: fd 7b bf a9  	stp	x29, x30, [sp, #-16]!
    958c: fd 03 00 91  	mov	x29, sp
    9590: 00 00 00 94  	bl	0x9590 <bpf_map__set_type+0x20>
    9594: e1 03 00 aa  	mov	x1, x0
    9598: 02 02 80 52  	mov	w2, #16
    959c: e0 01 80 12  	mov	w0, #-16
    95a0: 22 00 00 b9  	str	w2, [x1]
    95a4: fd 7b c1 a8  	ldp	x29, x30, [sp], #16
    95a8: c0 03 5f d6  	ret
    95ac: 1f 20 03 d5  	nop

00000000000095b0 <bpf_map__map_flags>:
    95b0: 00 30 40 b9  	ldr	w0, [x0, #48]
    95b4: c0 03 5f d6  	ret
    95b8: 1f 20 03 d5  	nop
    95bc: 1f 20 03 d5  	nop

00000000000095c0 <bpf_map__set_map_flags>:
    95c0: e2 03 00 aa  	mov	x2, x0
    95c4: 00 08 40 b9  	ldr	w0, [x0, #8]
    95c8: 80 00 f8 36  	tbz	w0, #31, 0x95d8 <bpf_map__set_map_flags+0x18>
    95cc: 00 00 80 52  	mov	w0, #0
    95d0: 41 30 00 b9  	str	w1, [x2, #48]
    95d4: c0 03 5f d6  	ret
    95d8: fd 7b bf a9  	stp	x29, x30, [sp, #-16]!
    95dc: fd 03 00 91  	mov	x29, sp
    95e0: 00 00 00 94  	bl	0x95e0 <bpf_map__set_map_flags+0x20>
    95e4: e1 03 00 aa  	mov	x1, x0
    95e8: 02 02 80 52  	mov	w2, #16
    95ec: e0 01 80 12  	mov	w0, #-16
    95f0: 22 00 00 b9  	str	w2, [x1]
    95f4: fd 7b c1 a8  	ldp	x29, x30, [sp], #16
    95f8: c0 03 5f d6  	ret
    95fc: 1f 20 03 d5  	nop

0000000000009600 <bpf_map__numa_node>:
    9600: 00 34 40 b9  	ldr	w0, [x0, #52]
    9604: c0 03 5f d6  	ret
    9608: 1f 20 03 d5  	nop
    960c: 1f 20 03 d5  	nop

0000000000009610 <bpf_map__set_numa_node>:
    9610: e2 03 00 aa  	mov	x2, x0
    9614: 00 08 40 b9  	ldr	w0, [x0, #8]
    9618: 80 00 f8 36  	tbz	w0, #31, 0x9628 <bpf_map__set_numa_node+0x18>
    961c: 00 00 80 52  	mov	w0, #0
    9620: 41 34 00 b9  	str	w1, [x2, #52]
    9624: c0 03 5f d6  	ret
    9628: fd 7b bf a9  	stp	x29, x30, [sp, #-16]!
    962c: fd 03 00 91  	mov	x29, sp
    9630: 00 00 00 94  	bl	0x9630 <bpf_map__set_numa_node+0x20>
    9634: e1 03 00 aa  	mov	x1, x0
    9638: 02 02 80 52  	mov	w2, #16
    963c: e0 01 80 12  	mov	w0, #-16
    9640: 22 00 00 b9  	str	w2, [x1]
    9644: fd 7b c1 a8  	ldp	x29, x30, [sp], #16
    9648: c0 03 5f d6  	ret
    964c: 1f 20 03 d5  	nop

0000000000009650 <bpf_map__key_size>:
    9650: 00 24 40 b9  	ldr	w0, [x0, #36]
    9654: c0 03 5f d6  	ret
    9658: 1f 20 03 d5  	nop
    965c: 1f 20 03 d5  	nop

0000000000009660 <bpf_map__set_key_size>:
    9660: e2 03 00 aa  	mov	x2, x0
    9664: 00 08 40 b9  	ldr	w0, [x0, #8]
    9668: 80 00 f8 36  	tbz	w0, #31, 0x9678 <bpf_map__set_key_size+0x18>
    966c: 00 00 80 52  	mov	w0, #0
    9670: 41 24 00 b9  	str	w1, [x2, #36]
    9674: c0 03 5f d6  	ret
    9678: fd 7b bf a9  	stp	x29, x30, [sp, #-16]!
    967c: fd 03 00 91  	mov	x29, sp
    9680: 00 00 00 94  	bl	0x9680 <bpf_map__set_key_size+0x20>
    9684: e1 03 00 aa  	mov	x1, x0
    9688: 02 02 80 52  	mov	w2, #16
    968c: e0 01 80 12  	mov	w0, #-16
    9690: 22 00 00 b9  	str	w2, [x1]
    9694: fd 7b c1 a8  	ldp	x29, x30, [sp], #16
    9698: c0 03 5f d6  	ret
    969c: 1f 20 03 d5  	nop

00000000000096a0 <bpf_map__value_size>:
    96a0: 00 28 40 b9  	ldr	w0, [x0, #40]
    96a4: c0 03 5f d6  	ret
    96a8: 1f 20 03 d5  	nop
    96ac: 1f 20 03 d5  	nop

00000000000096b0 <bpf_map__set_value_size>:
    96b0: e2 03 00 aa  	mov	x2, x0
    96b4: 00 08 40 b9  	ldr	w0, [x0, #8]
    96b8: 80 00 f8 36  	tbz	w0, #31, 0x96c8 <bpf_map__set_value_size+0x18>
    96bc: 00 00 80 52  	mov	w0, #0
    96c0: 41 28 00 b9  	str	w1, [x2, #40]
    96c4: c0 03 5f d6  	ret
    96c8: fd 7b bf a9  	stp	x29, x30, [sp, #-16]!
    96cc: fd 03 00 91  	mov	x29, sp
    96d0: 00 00 00 94  	bl	0x96d0 <bpf_map__set_value_size+0x20>
    96d4: e1 03 00 aa  	mov	x1, x0
    96d8: 02 02 80 52  	mov	w2, #16
    96dc: e0 01 80 12  	mov	w0, #-16
    96e0: 22 00 00 b9  	str	w2, [x1]
    96e4: fd 7b c1 a8  	ldp	x29, x30, [sp], #16
    96e8: c0 03 5f d6  	ret
    96ec: 1f 20 03 d5  	nop

00000000000096f0 <bpf_map__btf_key_type_id>:
    96f0: 60 00 00 b4  	cbz	x0, 0x96fc <bpf_map__btf_key_type_id+0xc>
    96f4: 00 3c 40 b9  	ldr	w0, [x0, #60]
    96f8: c0 03 5f d6  	ret
    96fc: 00 00 80 52  	mov	w0, #0
    9700: c0 03 5f d6  	ret

0000000000009704 <bpf_map__btf_value_type_id>:
    9704: 60 00 00 b4  	cbz	x0, 0x9710 <bpf_map__btf_value_type_id+0xc>
    9708: 00 40 40 b9  	ldr	w0, [x0, #64]
    970c: c0 03 5f d6  	ret
    9710: 00 00 80 52  	mov	w0, #0
    9714: c0 03 5f d6  	ret
    9718: 1f 20 03 d5  	nop
    971c: 1f 20 03 d5  	nop

0000000000009720 <bpf_map__set_priv>:
    9720: fd 7b bd a9  	stp	x29, x30, [sp, #-48]!
    9724: fd 03 00 91  	mov	x29, sp
    9728: 20 02 00 b4  	cbz	x0, 0x976c <bpf_map__set_priv+0x4c>
    972c: f5 13 00 f9  	str	x21, [sp, #32]
    9730: f5 03 01 aa  	mov	x21, x1
    9734: 01 24 40 f9  	ldr	x1, [x0, #72]
    9738: f3 53 01 a9  	stp	x19, x20, [sp, #16]
    973c: f4 03 02 aa  	mov	x20, x2
    9740: f3 03 00 aa  	mov	x19, x0
    9744: 81 00 00 b4  	cbz	x1, 0x9754 <bpf_map__set_priv+0x34>
    9748: 02 28 40 f9  	ldr	x2, [x0, #80]
    974c: 42 00 00 b4  	cbz	x2, 0x9754 <bpf_map__set_priv+0x34>
    9750: 40 00 3f d6  	blr	x2
    9754: 75 d2 04 a9  	stp	x21, x20, [x19, #72]
    9758: 00 00 80 52  	mov	w0, #0
    975c: f3 53 41 a9  	ldp	x19, x20, [sp, #16]
    9760: f5 13 40 f9  	ldr	x21, [sp, #32]
    9764: fd 7b c3 a8  	ldp	x29, x30, [sp], #48
    9768: c0 03 5f d6  	ret
    976c: 00 00 00 94  	bl	0x976c <bpf_map__set_priv+0x4c>
    9770: e1 03 00 aa  	mov	x1, x0
    9774: c2 02 80 52  	mov	w2, #22
    9778: a0 02 80 12  	mov	w0, #-22
    977c: 22 00 00 b9  	str	w2, [x1]
    9780: f9 ff ff 17  	b	0x9764 <bpf_map__set_priv+0x44>

0000000000009784 <bpf_map__priv>:
    9784: 60 00 00 b4  	cbz	x0, 0x9790 <bpf_map__priv+0xc>
    9788: 00 24 40 f9  	ldr	x0, [x0, #72]
    978c: c0 03 5f d6  	ret
    9790: fd 7b bf a9  	stp	x29, x30, [sp, #-16]!
    9794: fd 03 00 91  	mov	x29, sp
    9798: 00 00 00 94  	bl	0x9798 <bpf_map__priv+0x14>
    979c: c3 02 80 52  	mov	w3, #22
    97a0: 02 00 00 90  	adrp	x2, 0x9000 <bpf_map__priv+0x1c>
    97a4: 03 00 00 b9  	str	w3, [x0]
    97a8: a1 02 80 92  	mov	x1, #-22
    97ac: 40 00 40 b9  	ldr	w0, [x2]
    97b0: fd 7b c1 a8  	ldp	x29, x30, [sp], #16
    97b4: 1f 00 40 f2  	tst	x0, #0x1
    97b8: e0 13 81 9a  	csel	x0, xzr, x1, ne
    97bc: c0 03 5f d6  	ret

00000000000097c0 <bpf_map__set_initial_value>:
    97c0: fd 7b bf a9  	stp	x29, x30, [sp, #-16]!
    97c4: e3 03 00 aa  	mov	x3, x0
    97c8: fd 03 00 91  	mov	x29, sp
    97cc: 00 30 40 f9  	ldr	x0, [x0, #96]
    97d0: a0 01 00 b4  	cbz	x0, 0x9804 <bpf_map__set_initial_value+0x44>
    97d4: 65 58 40 b9  	ldr	w5, [x3, #88]
    97d8: bf 10 00 71  	cmp	w5, #4
    97dc: 40 01 00 54  	b.eq	0x9804 <bpf_map__set_initial_value+0x44>
    97e0: 65 28 40 b9  	ldr	w5, [x3, #40]
    97e4: bf 00 02 eb  	cmp	x5, x2
    97e8: e1 00 00 54  	b.ne	0x9804 <bpf_map__set_initial_value+0x44>
    97ec: 63 08 40 b9  	ldr	w3, [x3, #8]
    97f0: a3 00 f8 36  	tbz	w3, #31, 0x9804 <bpf_map__set_initial_value+0x44>
    97f4: 00 00 00 94  	bl	0x97f4 <bpf_map__set_initial_value+0x34>
    97f8: 00 00 80 52  	mov	w0, #0
    97fc: fd 7b c1 a8  	ldp	x29, x30, [sp], #16
    9800: c0 03 5f d6  	ret
    9804: 00 00 00 94  	bl	0x9804 <bpf_map__set_initial_value+0x44>
    9808: e1 03 00 aa  	mov	x1, x0
    980c: c2 02 80 52  	mov	w2, #22
    9810: a0 02 80 12  	mov	w0, #-22
    9814: 22 00 00 b9  	str	w2, [x1]
    9818: f9 ff ff 17  	b	0x97fc <bpf_map__set_initial_value+0x3c>
    981c: 1f 20 03 d5  	nop

0000000000009820 <bpf_map__initial_value>:
    9820: e2 03 00 aa  	mov	x2, x0
    9824: 00 30 40 f9  	ldr	x0, [x0, #96]
    9828: 60 00 00 b4  	cbz	x0, 0x9834 <bpf_map__initial_value+0x14>
    982c: 42 28 40 b9  	ldr	w2, [x2, #40]
    9830: 22 00 00 f9  	str	x2, [x1]
    9834: c0 03 5f d6  	ret
    9838: 1f 20 03 d5  	nop
    983c: 1f 20 03 d5  	nop

0000000000009840 <bpf_map__is_offload_neutral>:
    9840: 00 20 40 b9  	ldr	w0, [x0, #32]
    9844: 1f 10 00 71  	cmp	w0, #4
    9848: e0 17 9f 1a  	cset	w0, eq
    984c: c0 03 5f d6  	ret

0000000000009850 <bpf_map__is_internal>:
    9850: 00 58 40 b9  	ldr	w0, [x0, #88]
    9854: 1f 00 00 71  	cmp	w0, #0
    9858: e0 07 9f 1a  	cset	w0, ne
    985c: c0 03 5f d6  	ret

0000000000009860 <bpf_map__ifindex>:
    9860: 00 18 40 b9  	ldr	w0, [x0, #24]
    9864: c0 03 5f d6  	ret
    9868: 1f 20 03 d5  	nop
    986c: 1f 20 03 d5  	nop

0000000000009870 <bpf_map__set_ifindex>:
    9870: e2 03 00 aa  	mov	x2, x0
    9874: 00 08 40 b9  	ldr	w0, [x0, #8]
    9878: 80 00 f8 36  	tbz	w0, #31, 0x9888 <bpf_map__set_ifindex+0x18>
    987c: 00 00 80 52  	mov	w0, #0
    9880: 41 18 00 b9  	str	w1, [x2, #24]
    9884: c0 03 5f d6  	ret
    9888: fd 7b bf a9  	stp	x29, x30, [sp, #-16]!
    988c: fd 03 00 91  	mov	x29, sp
    9890: 00 00 00 94  	bl	0x9890 <bpf_map__set_ifindex+0x20>
    9894: e1 03 00 aa  	mov	x1, x0
    9898: 02 02 80 52  	mov	w2, #16
    989c: e0 01 80 12  	mov	w0, #-16
    98a0: 22 00 00 b9  	str	w2, [x1]
    98a4: fd 7b c1 a8  	ldp	x29, x30, [sp], #16
    98a8: c0 03 5f d6  	ret
    98ac: 1f 20 03 d5  	nop

00000000000098b0 <bpf_map__set_inner_map_fd>:
    98b0: fd 7b be a9  	stp	x29, x30, [sp, #-32]!
    98b4: fd 03 00 91  	mov	x29, sp
    98b8: f3 53 01 a9  	stp	x19, x20, [sp, #16]
    98bc: f3 03 00 aa  	mov	x19, x0
    98c0: 00 20 40 b9  	ldr	w0, [x0, #32]
    98c4: 00 30 00 51  	sub	w0, w0, #12
    98c8: 1f 04 00 71  	cmp	w0, #1
    98cc: a9 01 00 54  	b.ls	0x9900 <bpf_map__set_inner_map_fd+0x50>
    98d0: 01 00 00 90  	adrp	x1, 0x9000 <bpf_map__set_inner_map_fd+0x20>
    98d4: 21 00 00 91  	add	x1, x1, #0
    98d8: 00 00 80 52  	mov	w0, #0
    98dc: 00 00 00 94  	bl	0x98dc <bpf_map__set_inner_map_fd+0x2c>
    98e0: 00 00 00 94  	bl	0x98e0 <bpf_map__set_inner_map_fd+0x30>
    98e4: e1 03 00 aa  	mov	x1, x0
    98e8: c2 02 80 52  	mov	w2, #22
    98ec: a0 02 80 12  	mov	w0, #-22
    98f0: f3 53 41 a9  	ldp	x19, x20, [sp, #16]
    98f4: 22 00 00 b9  	str	w2, [x1]
    98f8: fd 7b c2 a8  	ldp	x29, x30, [sp], #32
    98fc: c0 03 5f d6  	ret
    9900: 60 1e 40 b9  	ldr	w0, [x19, #28]
    9904: 1f 04 00 31  	cmn	w0, #1
    9908: 41 01 00 54  	b.ne	0x9930 <bpf_map__set_inner_map_fd+0x80>
    990c: 60 3a 40 f9  	ldr	x0, [x19, #112]
    9910: f4 03 01 2a  	mov	w20, w1
    9914: 00 00 00 94  	bl	0x9914 <bpf_map__set_inner_map_fd+0x64>
    9918: 74 1e 00 b9  	str	w20, [x19, #28]
    991c: 7f 3a 00 f9  	str	xzr, [x19, #112]
    9920: 00 00 80 52  	mov	w0, #0
    9924: f3 53 41 a9  	ldp	x19, x20, [sp, #16]
    9928: fd 7b c2 a8  	ldp	x29, x30, [sp], #32
    992c: c0 03 5f d6  	ret
    9930: 01 00 00 90  	adrp	x1, 0x9000 <bpf_map__set_inner_map_fd+0x80>
    9934: 21 00 00 91  	add	x1, x1, #0
    9938: e8 ff ff 17  	b	0x98d8 <bpf_map__set_inner_map_fd+0x28>
    993c: 1f 20 03 d5  	nop

0000000000009940 <bpf_map__next>:
    9940: 80 03 00 b4  	cbz	x0, 0x99b0 <bpf_map__next+0x70>
    9944: fd 7b bf a9  	stp	x29, x30, [sp, #-16]!
    9948: fd 03 00 91  	mov	x29, sp
    994c: 41 04 00 b4  	cbz	x1, 0x99d4 <bpf_map__next+0x94>
    9950: 22 34 40 f9  	ldr	x2, [x1, #104]
    9954: 02 04 00 b4  	cbz	x2, 0x99d4 <bpf_map__next+0x94>
    9958: 23 38 40 f9  	ldr	x3, [x1, #112]
    995c: 61 08 03 8b  	add	x1, x3, x3, lsl #2
    9960: 21 f4 7e d3  	lsl	x1, x1, #2
    9964: 21 00 03 cb  	sub	x1, x1, x3
    9968: 41 0c 01 8b  	add	x1, x2, x1, lsl #3
    996c: 1f 00 01 eb  	cmp	x0, x1
    9970: 00 30 42 fa  	ccmp	x0, x2, #0, lo
    9974: 23 02 00 54  	b.lo	0x99b8 <bpf_map__next+0x78>
    9978: 00 00 02 cb  	sub	x0, x0, x2
    997c: 61 43 99 d2  	mov	x1, #51739
    9980: 61 0d a5 f2  	movk	x1, #10347, lsl #16
    9984: 04 60 02 91  	add	x4, x0, #152
    9988: e1 35 d4 f2  	movk	x1, #41391, lsl #32
    998c: 00 fc 43 93  	asr	x0, x0, #3
    9990: 81 d7 f0 f2  	movk	x1, #34492, lsl #48
    9994: 42 00 04 8b  	add	x2, x2, x4
    9998: fd 7b c1 a8  	ldp	x29, x30, [sp], #16
    999c: 01 7c 01 9b  	mul	x1, x0, x1
    99a0: 21 04 00 b1  	adds	x1, x1, #1
    99a4: 60 50 41 fa  	ccmp	x3, x1, #0, pl
    99a8: 40 80 9f 9a  	csel	x0, x2, xzr, hi
    99ac: c0 03 5f d6  	ret
    99b0: 20 34 40 f9  	ldr	x0, [x1, #104]
    99b4: c0 03 5f d6  	ret
    99b8: 02 00 00 90  	adrp	x2, 0x9000 <bpf_map__next+0x78>
    99bc: 42 00 00 91  	add	x2, x2, #0
    99c0: 01 00 00 90  	adrp	x1, 0x9000 <bpf_map__next+0x80>
    99c4: 42 80 04 91  	add	x2, x2, #288
    99c8: 21 00 00 91  	add	x1, x1, #0
    99cc: 00 00 80 52  	mov	w0, #0
    99d0: 00 00 00 94  	bl	0x99d0 <bpf_map__next+0x90>
    99d4: 00 00 00 94  	bl	0x99d4 <bpf_map__next+0x94>
    99d8: e1 03 00 aa  	mov	x1, x0
    99dc: c2 02 80 52  	mov	w2, #22
    99e0: 00 00 80 d2  	mov	x0, #0
    99e4: 22 00 00 b9  	str	w2, [x1]
    99e8: fd 7b c1 a8  	ldp	x29, x30, [sp], #16
    99ec: c0 03 5f d6  	ret

00000000000099f0 <bpf_map__prev>:
    99f0: 80 03 00 b4  	cbz	x0, 0x9a60 <bpf_map__prev+0x70>
    99f4: fd 7b bf a9  	stp	x29, x30, [sp, #-16]!
    99f8: fd 03 00 91  	mov	x29, sp
    99fc: 61 05 00 b4  	cbz	x1, 0x9aa8 <bpf_map__prev+0xb8>
    9a00: 22 34 40 f9  	ldr	x2, [x1, #104]
    9a04: 22 05 00 b4  	cbz	x2, 0x9aa8 <bpf_map__prev+0xb8>
    9a08: 23 38 40 f9  	ldr	x3, [x1, #112]
    9a0c: 61 08 03 8b  	add	x1, x3, x3, lsl #2
    9a10: 21 f4 7e d3  	lsl	x1, x1, #2
    9a14: 21 00 03 cb  	sub	x1, x1, x3
    9a18: 41 0c 01 8b  	add	x1, x2, x1, lsl #3
    9a1c: 1f 00 01 eb  	cmp	x0, x1
    9a20: 00 30 42 fa  	ccmp	x0, x2, #0, lo
    9a24: 43 03 00 54  	b.lo	0x9a8c <bpf_map__prev+0x9c>
    9a28: 00 00 02 cb  	sub	x0, x0, x2
    9a2c: 61 43 99 d2  	mov	x1, #51739
    9a30: 61 0d a5 f2  	movk	x1, #10347, lsl #16
    9a34: 04 60 02 d1  	sub	x4, x0, #152
    9a38: e1 35 d4 f2  	movk	x1, #41391, lsl #32
    9a3c: 00 fc 43 93  	asr	x0, x0, #3
    9a40: 81 d7 f0 f2  	movk	x1, #34492, lsl #48
    9a44: 42 00 04 8b  	add	x2, x2, x4
    9a48: fd 7b c1 a8  	ldp	x29, x30, [sp], #16
    9a4c: 01 7c 01 9b  	mul	x1, x0, x1
    9a50: 21 04 00 f1  	subs	x1, x1, #1
    9a54: 60 50 41 fa  	ccmp	x3, x1, #0, pl
    9a58: 40 80 9f 9a  	csel	x0, x2, xzr, hi
    9a5c: c0 03 5f d6  	ret
    9a60: 23 38 40 f9  	ldr	x3, [x1, #112]
    9a64: 23 01 00 b4  	cbz	x3, 0x9a88 <bpf_map__prev+0x98>
    9a68: 62 08 03 8b  	add	x2, x3, x3, lsl #2
    9a6c: 20 34 40 f9  	ldr	x0, [x1, #104]
    9a70: 41 f4 7e d3  	lsl	x1, x2, #2
    9a74: 21 00 03 cb  	sub	x1, x1, x3
    9a78: 21 f0 7d d3  	lsl	x1, x1, #3
    9a7c: 21 60 02 d1  	sub	x1, x1, #152
    9a80: 00 00 01 8b  	add	x0, x0, x1
    9a84: c0 03 5f d6  	ret
    9a88: c0 03 5f d6  	ret
    9a8c: 02 00 00 90  	adrp	x2, 0x9000 <bpf_map__prev+0x9c>
    9a90: 42 00 00 91  	add	x2, x2, #0
    9a94: 01 00 00 90  	adrp	x1, 0x9000 <bpf_map__prev+0xa4>
    9a98: 42 80 04 91  	add	x2, x2, #288
    9a9c: 21 00 00 91  	add	x1, x1, #0
    9aa0: 00 00 80 52  	mov	w0, #0
    9aa4: 00 00 00 94  	bl	0x9aa4 <bpf_map__prev+0xb4>
    9aa8: 00 00 00 94  	bl	0x9aa8 <bpf_map__prev+0xb8>
    9aac: e1 03 00 aa  	mov	x1, x0
    9ab0: c2 02 80 52  	mov	w2, #22
    9ab4: 00 00 80 d2  	mov	x0, #0
    9ab8: 22 00 00 b9  	str	w2, [x1]
    9abc: fd 7b c1 a8  	ldp	x29, x30, [sp], #16
    9ac0: c0 03 5f d6  	ret

0000000000009ac4 <bpf_object__find_map_by_name>:
    9ac4: fd 7b bc a9  	stp	x29, x30, [sp, #-64]!
    9ac8: fd 03 00 91  	mov	x29, sp
    9acc: f5 5b 02 a9  	stp	x21, x22, [sp, #32]
    9ad0: 16 34 40 f9  	ldr	x22, [x0, #104]
    9ad4: 56 04 00 b4  	cbz	x22, 0x9b5c <bpf_object__find_map_by_name+0x98>
    9ad8: f3 53 01 a9  	stp	x19, x20, [sp, #16]
    9adc: 74 43 99 d2  	mov	x20, #51739
    9ae0: 74 0d a5 f2  	movk	x20, #10347, lsl #16
    9ae4: f4 35 d4 f2  	movk	x20, #41391, lsl #32
    9ae8: f3 03 00 aa  	mov	x19, x0
    9aec: f5 03 16 aa  	mov	x21, x22
    9af0: f7 1b 00 f9  	str	x23, [sp, #48]
    9af4: f7 03 01 aa  	mov	x23, x1
    9af8: 94 d7 f0 f2  	movk	x20, #34492, lsl #48
    9afc: 1f 20 03 d5  	nop
    9b00: a0 02 40 f9  	ldr	x0, [x21]
    9b04: e1 03 17 aa  	mov	x1, x23
    9b08: 60 00 00 b4  	cbz	x0, 0x9b14 <bpf_object__find_map_by_name+0x50>
    9b0c: 00 00 00 94  	bl	0x9b0c <bpf_object__find_map_by_name+0x48>
    9b10: 00 05 00 34  	cbz	w0, 0x9bb0 <bpf_object__find_map_by_name+0xec>
    9b14: 60 3a 40 f9  	ldr	x0, [x19, #112]
    9b18: a2 02 16 cb  	sub	x2, x21, x22
    9b1c: 44 60 02 91  	add	x4, x2, #152
    9b20: 42 fc 43 93  	asr	x2, x2, #3
    9b24: 03 08 00 8b  	add	x3, x0, x0, lsl #2
    9b28: 63 f4 7e d3  	lsl	x3, x3, #2
    9b2c: 42 7c 14 9b  	mul	x2, x2, x20
    9b30: 63 00 00 cb  	sub	x3, x3, x0
    9b34: c3 0e 03 8b  	add	x3, x22, x3, lsl #3
    9b38: 7f 00 15 eb  	cmp	x3, x21
    9b3c: c2 82 55 fa  	ccmp	x22, x21, #2, hi
    9b40: e8 01 00 54  	b.hi	0x9b7c <bpf_object__find_map_by_name+0xb8>
    9b44: 42 04 00 b1  	adds	x2, x2, #1
    9b48: d5 02 04 8b  	add	x21, x22, x4
    9b4c: 00 50 42 fa  	ccmp	x0, x2, #0, pl
    9b50: 88 fd ff 54  	b.hi	0x9b00 <bpf_object__find_map_by_name+0x3c>
    9b54: f3 53 41 a9  	ldp	x19, x20, [sp, #16]
    9b58: f7 1b 40 f9  	ldr	x23, [sp, #48]
    9b5c: 00 00 00 94  	bl	0x9b5c <bpf_object__find_map_by_name+0x98>
    9b60: 41 00 80 52  	mov	w1, #2
    9b64: 01 00 00 b9  	str	w1, [x0]
    9b68: 15 00 80 d2  	mov	x21, #0
    9b6c: e0 03 15 aa  	mov	x0, x21
    9b70: f5 5b 42 a9  	ldp	x21, x22, [sp, #32]
    9b74: fd 7b c4 a8  	ldp	x29, x30, [sp], #64
    9b78: c0 03 5f d6  	ret
    9b7c: 02 00 00 90  	adrp	x2, 0x9000 <bpf_object__find_map_by_name+0xb8>
    9b80: 42 00 00 91  	add	x2, x2, #0
    9b84: 42 80 04 91  	add	x2, x2, #288
    9b88: 01 00 00 90  	adrp	x1, 0x9000 <bpf_object__find_map_by_name+0xc4>
    9b8c: 21 00 00 91  	add	x1, x1, #0
    9b90: 00 00 80 52  	mov	w0, #0
    9b94: 00 00 00 94  	bl	0x9b94 <bpf_object__find_map_by_name+0xd0>
    9b98: 00 00 00 94  	bl	0x9b98 <bpf_object__find_map_by_name+0xd4>
    9b9c: c1 02 80 52  	mov	w1, #22
    9ba0: f3 53 41 a9  	ldp	x19, x20, [sp, #16]
    9ba4: f7 1b 40 f9  	ldr	x23, [sp, #48]
    9ba8: 01 00 00 b9  	str	w1, [x0]
    9bac: ed ff ff 17  	b	0x9b60 <bpf_object__find_map_by_name+0x9c>
    9bb0: e0 03 15 aa  	mov	x0, x21
    9bb4: f3 53 41 a9  	ldp	x19, x20, [sp, #16]
    9bb8: f5 5b 42 a9  	ldp	x21, x22, [sp, #32]
    9bbc: f7 1b 40 f9  	ldr	x23, [sp, #48]
    9bc0: fd 7b c4 a8  	ldp	x29, x30, [sp], #64
    9bc4: c0 03 5f d6  	ret
    9bc8: 1f 20 03 d5  	nop
    9bcc: 1f 20 03 d5  	nop

0000000000009bd0 <__bpf_object__open.part.0>:
    9bd0: ff 83 07 d1  	sub	sp, sp, #480
    9bd4: 04 00 00 90  	adrp	x4, 0x9000 <__bpf_object__open.part.0+0x4>
    9bd8: fd 7b 01 a9  	stp	x29, x30, [sp, #16]
    9bdc: fd 43 00 91  	add	x29, sp, #16
    9be0: 84 00 40 f9  	ldr	x4, [x4]
    9be4: f3 53 02 a9  	stp	x19, x20, [sp, #32]
    9be8: f3 03 00 aa  	mov	x19, x0
    9bec: f5 5b 03 a9  	stp	x21, x22, [sp, #48]
    9bf0: f4 03 01 aa  	mov	x20, x1
    9bf4: f5 03 02 aa  	mov	x21, x2
    9bf8: fb 73 06 a9  	stp	x27, x28, [sp, #96]
    9bfc: 80 00 40 f9  	ldr	x0, [x4]
    9c00: e0 ef 00 f9  	str	x0, [sp, #472]
    9c04: 00 00 80 d2  	mov	x0, #0
    9c08: e3 5b 00 f9  	str	x3, [sp, #176]
    9c0c: 03 03 00 b4  	cbz	x3, 0x9c6c <__bpf_object__open.part.0+0x9c>
    9c10: 63 00 40 f9  	ldr	x3, [x3]
    9c14: 7f 1c 00 f1  	cmp	x3, #7
    9c18: e9 17 00 54  	b.ls	0x9f14 <__bpf_object__open.part.0+0x344>
    9c1c: e1 5b 40 f9  	ldr	x1, [sp, #176]
    9c20: 60 e0 00 d1  	sub	x0, x3, #56
    9c24: 24 e0 00 91  	add	x4, x1, #56
    9c28: 1f 00 00 f1  	cmp	x0, #0
    9c2c: 8d 0e 00 54  	b.le	0x9dfc <__bpf_object__open.part.0+0x22c>
    9c30: 26 00 03 8b  	add	x6, x1, x3
    9c34: 04 00 00 14  	b	0x9c44 <__bpf_object__open.part.0+0x74>
    9c38: 84 04 00 91  	add	x4, x4, #1
    9c3c: 9f 00 06 eb  	cmp	x4, x6
    9c40: e0 0d 00 54  	b.eq	0x9dfc <__bpf_object__open.part.0+0x22c>
    9c44: 80 00 40 39  	ldrb	w0, [x4]
    9c48: 80 ff ff 34  	cbz	w0, 0x9c38 <__bpf_object__open.part.0+0x68>
    9c4c: 02 00 00 90  	adrp	x2, 0x9000 <__bpf_object__open.part.0+0x7c>
    9c50: 01 00 00 90  	adrp	x1, 0x9000 <__bpf_object__open.part.0+0x80>
    9c54: 42 00 00 91  	add	x2, x2, #0
    9c58: 21 00 00 91  	add	x1, x1, #0
    9c5c: 00 00 80 52  	mov	w0, #0
    9c60: bc 02 80 92  	mov	x28, #-22
    9c64: 00 00 00 94  	bl	0x9c64 <__bpf_object__open.part.0+0x94>
    9c68: 57 00 00 14  	b	0x9dc4 <__bpf_object__open.part.0+0x1f4>
    9c6c: 34 12 00 b4  	cbz	x20, 0x9eb0 <__bpf_object__open.part.0+0x2e0>
    9c70: e0 63 06 91  	add	x0, sp, #408
    9c74: 04 00 00 90  	adrp	x4, 0x9000 <__bpf_object__open.part.0+0xa4>
    9c78: 03 08 80 d2  	mov	x3, #64
    9c7c: f6 03 00 aa  	mov	x22, x0
    9c80: 84 00 00 91  	add	x4, x4, #0
    9c84: e6 03 15 aa  	mov	x6, x21
    9c88: e1 03 03 aa  	mov	x1, x3
    9c8c: e5 03 14 aa  	mov	x5, x20
    9c90: 22 00 80 52  	mov	w2, #1
    9c94: 00 00 00 94  	bl	0x9c94 <__bpf_object__open.part.0+0xc4>
    9c98: e2 03 16 aa  	mov	x2, x22
    9c9c: 01 00 00 90  	adrp	x1, 0x9000 <__bpf_object__open.part.0+0xcc>
    9ca0: 21 00 00 91  	add	x1, x1, #0
    9ca4: 40 00 80 52  	mov	w0, #2
    9ca8: 00 00 00 94  	bl	0x9ca8 <__bpf_object__open.part.0+0xd8>
    9cac: e0 03 16 aa  	mov	x0, x22
    9cb0: 00 00 00 94  	bl	0x9cb0 <__bpf_object__open.part.0+0xe0>
    9cb4: f3 03 00 aa  	mov	x19, x0
    9cb8: 61 66 07 91  	add	x1, x19, #473
    9cbc: 20 00 80 d2  	mov	x0, #1
    9cc0: 00 00 00 94  	bl	0x9cc0 <__bpf_object__open.part.0+0xf0>
    9cc4: fc 03 00 aa  	mov	x28, x0
    9cc8: c0 60 01 b4  	cbz	x0, 0xc8e0 <__bpf_object__open.part.0+0x2d10>
    9ccc: 00 60 07 91  	add	x0, x0, #472
    9cd0: 62 06 00 91  	add	x2, x19, #1
    9cd4: e1 03 16 aa  	mov	x1, x22
    9cd8: e0 77 00 f9  	str	x0, [sp, #232]
    9cdc: 00 00 00 94  	bl	0x9cdc <__bpf_object__open.part.0+0x10c>
    9ce0: e1 03 16 aa  	mov	x1, x22
    9ce4: e0 03 1c aa  	mov	x0, x28
    9ce8: e2 01 80 d2  	mov	x2, #15
    9cec: 00 00 00 94  	bl	0x9cec <__bpf_object__open.part.0+0x11c>
    9cf0: 9f 3f 00 39  	strb	wzr, [x28, #15]
    9cf4: 81 03 08 91  	add	x1, x28, #512
    9cf8: 00 00 80 12  	mov	w0, #-1
    9cfc: 80 ab 00 b9  	str	w0, [x28, #168]
    9d00: 00 00 80 92  	mov	x0, #-1
    9d04: 94 57 0b a9  	stp	x20, x21, [x28, #176]
    9d08: 20 c0 14 f8  	stur	x0, [x1, #-180]
    9d0c: 80 43 09 f8  	stur	x0, [x28, #148]
    9d10: 80 03 16 a9  	stp	x0, x0, [x28, #352]
    9d14: 4c da ff 97  	bl	0x644 <get_kernel_version>
    9d18: 80 53 00 b9  	str	w0, [x28, #80]
    9d1c: 01 00 00 90  	adrp	x1, 0x9000 <__bpf_object__open.part.0+0x14c>
    9d20: 21 00 00 91  	add	x1, x1, #0
    9d24: 9f 73 02 39  	strb	wzr, [x28, #156]
    9d28: 80 c3 05 91  	add	x0, x28, #368
    9d2c: 23 00 05 91  	add	x3, x1, #320
    9d30: 22 a0 40 f9  	ldr	x2, [x1, #320]
    9d34: 20 a0 00 f9  	str	x0, [x1, #320]
    9d38: 40 04 00 f9  	str	x0, [x2, #8]
    9d3c: 82 0f 17 a9  	stp	x2, x3, [x28, #368]
    9d40: 9f 07 40 b1  	cmn	x28, #1, lsl #12        // =4096
    9d44: 08 04 00 54  	b.hi	0x9dc4 <__bpf_object__open.part.0+0x1f4>
    9d48: e0 5b 40 f9  	ldr	x0, [sp, #176]
    9d4c: c0 02 00 b4  	cbz	x0, 0x9da4 <__bpf_object__open.part.0+0x1d4>
    9d50: e1 5b 40 f9  	ldr	x1, [sp, #176]
    9d54: 20 00 40 f9  	ldr	x0, [x1]
    9d58: 1f dc 00 f1  	cmp	x0, #55
    9d5c: e9 05 00 54  	b.ls	0x9e18 <__bpf_object__open.part.0+0x248>
    9d60: 34 18 40 f9  	ldr	x20, [x1, #48]
    9d64: 54 01 00 b4  	cbz	x20, 0x9d8c <__bpf_object__open.part.0+0x1bc>
    9d68: e0 03 14 aa  	mov	x0, x20
    9d6c: 73 04 80 92  	mov	x19, #-36
    9d70: 00 00 00 94  	bl	0x9d70 <__bpf_object__open.part.0+0x1a0>
    9d74: 1f fc 3f f1  	cmp	x0, #4095
    9d78: 08 02 00 54  	b.hi	0x9db8 <__bpf_object__open.part.0+0x1e8>
    9d7c: e0 03 14 aa  	mov	x0, x20
    9d80: 00 00 00 94  	bl	0x9d80 <__bpf_object__open.part.0+0x1b0>
    9d84: 80 cf 00 f9  	str	x0, [x28, #408]
    9d88: a0 5b 01 b4  	cbz	x0, 0xc8fc <__bpf_object__open.part.0+0x2d2c>
    9d8c: e0 5b 40 f9  	ldr	x0, [sp, #176]
    9d90: 00 14 40 f9  	ldr	x0, [x0, #40]
    9d94: 80 00 00 b4  	cbz	x0, 0x9da4 <__bpf_object__open.part.0+0x1d4>
    9d98: 00 00 00 94  	bl	0x9d98 <__bpf_object__open.part.0+0x1c8>
    9d9c: 80 43 00 f9  	str	x0, [x28, #128]
    9da0: e0 5a 01 b4  	cbz	x0, 0xc8fc <__bpf_object__open.part.0+0x2d2c>
    9da4: e0 03 1c aa  	mov	x0, x28
    9da8: be df ff 97  	bl	0x1ca0 <bpf_object__elf_init>
    9dac: 13 7c 40 93  	sxtw	x19, w0
    9db0: 13 04 00 34  	cbz	w19, 0x9e30 <__bpf_object__open.part.0+0x260>
    9db4: 1f 20 03 d5  	nop
    9db8: e0 03 1c aa  	mov	x0, x28
    9dbc: fc 03 13 aa  	mov	x28, x19
    9dc0: 50 f3 ff 97  	bl	0x6b00 <bpf_object__close.part.0>
    9dc4: 00 00 00 90  	adrp	x0, 0x9000 <__bpf_object__open.part.0+0x1f4>
    9dc8: 00 00 40 f9  	ldr	x0, [x0]
    9dcc: e2 ef 40 f9  	ldr	x2, [sp, #472]
    9dd0: 01 00 40 f9  	ldr	x1, [x0]
    9dd4: 42 00 01 eb  	subs	x2, x2, x1
    9dd8: 01 00 80 d2  	mov	x1, #0
    9ddc: e1 5d 01 54  	b.ne	0xc998 <__bpf_object__open.part.0+0x2dc8>
    9de0: e0 03 1c aa  	mov	x0, x28
    9de4: fd 7b 41 a9  	ldp	x29, x30, [sp, #16]
    9de8: f3 53 42 a9  	ldp	x19, x20, [sp, #32]
    9dec: f5 5b 43 a9  	ldp	x21, x22, [sp, #48]
    9df0: fb 73 46 a9  	ldp	x27, x28, [sp, #96]
    9df4: ff 83 07 91  	add	sp, sp, #480
    9df8: c0 03 5f d6  	ret
    9dfc: 7f 3c 00 f1  	cmp	x3, #15
    9e00: 69 f3 ff 54  	b.ls	0x9c6c <__bpf_object__open.part.0+0x9c>
    9e04: e0 5b 40 f9  	ldr	x0, [sp, #176]
    9e08: 16 04 40 f9  	ldr	x22, [x0, #8]
    9e0c: d4 09 00 b4  	cbz	x20, 0x9f44 <__bpf_object__open.part.0+0x374>
    9e10: 56 f4 ff b5  	cbnz	x22, 0x9c98 <__bpf_object__open.part.0+0xc8>
    9e14: 97 ff ff 17  	b	0x9c70 <__bpf_object__open.part.0+0xa0>
    9e18: 1f bc 00 f1  	cmp	x0, #47
    9e1c: 88 fb ff 54  	b.hi	0x9d8c <__bpf_object__open.part.0+0x1bc>
    9e20: e0 03 1c aa  	mov	x0, x28
    9e24: 9f df ff 97  	bl	0x1ca0 <bpf_object__elf_init>
    9e28: 13 7c 40 93  	sxtw	x19, w0
    9e2c: 73 fc ff 35  	cbnz	w19, 0x9db8 <__bpf_object__open.part.0+0x1e8>
    9e30: 81 37 43 39  	ldrb	w1, [x28, #205]
    9e34: 3f 04 00 71  	cmp	w1, #1
    9e38: e1 16 01 54  	b.ne	0xc114 <__bpf_object__open.part.0+0x2544>
    9e3c: 95 63 40 f9  	ldr	x21, [x28, #192]
    9e40: f3 63 04 91  	add	x19, sp, #280
    9e44: 1b 00 80 d2  	mov	x27, #0
    9e48: e1 03 1b aa  	mov	x1, x27
    9e4c: e0 03 15 aa  	mov	x0, x21
    9e50: 00 00 00 94  	bl	0x9e50 <__bpf_object__open.part.0+0x280>
    9e54: fb 03 00 aa  	mov	x27, x0
    9e58: 80 09 00 b4  	cbz	x0, 0x9f88 <__bpf_object__open.part.0+0x3b8>
    9e5c: e2 03 13 aa  	mov	x2, x19
    9e60: e1 03 1b aa  	mov	x1, x27
    9e64: e0 03 1c aa  	mov	x0, x28
    9e68: be dd ff 97  	bl	0x1560 <elf_sec_hdr>
    9e6c: 80 06 00 35  	cbnz	w0, 0x9f3c <__bpf_object__open.part.0+0x36c>
    9e70: e1 1f 41 b9  	ldr	w1, [sp, #284]
    9e74: 3f 08 00 71  	cmp	w1, #2
    9e78: 81 fe ff 54  	b.ne	0x9e48 <__bpf_object__open.part.0+0x278>
    9e7c: 81 87 40 f9  	ldr	x1, [x28, #264]
    9e80: e1 1f 00 b5  	cbnz	x1, 0xa27c <__bpf_object__open.part.0+0x6ac>
    9e84: e1 03 1b aa  	mov	x1, x27
    9e88: e0 03 1c aa  	mov	x0, x28
    9e8c: 75 eb ff 97  	bl	0x4c60 <elf_sec_data>
    9e90: 60 05 00 b4  	cbz	x0, 0x9f3c <__bpf_object__open.part.0+0x36c>
    9e94: 80 87 00 f9  	str	x0, [x28, #264]
    9e98: e0 03 1b aa  	mov	x0, x27
    9e9c: 00 00 00 94  	bl	0x9e9c <__bpf_object__open.part.0+0x2cc>
    9ea0: 80 5f 01 b9  	str	w0, [x28, #348]
    9ea4: e1 43 41 b9  	ldr	w1, [sp, #320]
    9ea8: 81 9f 00 f9  	str	x1, [x28, #312]
    9eac: e7 ff ff 17  	b	0x9e48 <__bpf_object__open.part.0+0x278>
    9eb0: e0 03 13 aa  	mov	x0, x19
    9eb4: 00 00 00 94  	bl	0x9eb4 <__bpf_object__open.part.0+0x2e4>
    9eb8: f6 03 00 aa  	mov	x22, x0
    9ebc: 20 00 80 d2  	mov	x0, #1
    9ec0: c1 66 07 91  	add	x1, x22, #473
    9ec4: 00 00 00 94  	bl	0x9ec4 <__bpf_object__open.part.0+0x2f4>
    9ec8: fc 03 00 aa  	mov	x28, x0
    9ecc: 80 50 01 b4  	cbz	x0, 0xc8dc <__bpf_object__open.part.0+0x2d0c>
    9ed0: 80 63 07 91  	add	x0, x28, #472
    9ed4: c2 06 00 91  	add	x2, x22, #1
    9ed8: e1 03 13 aa  	mov	x1, x19
    9edc: e0 77 00 f9  	str	x0, [sp, #232]
    9ee0: 00 00 00 94  	bl	0x9ee0 <__bpf_object__open.part.0+0x310>
    9ee4: e0 03 13 aa  	mov	x0, x19
    9ee8: 00 00 00 94  	bl	0x9ee8 <__bpf_object__open.part.0+0x318>
    9eec: e2 01 80 d2  	mov	x2, #15
    9ef0: e1 03 00 aa  	mov	x1, x0
    9ef4: e0 03 1c aa  	mov	x0, x28
    9ef8: 00 00 00 94  	bl	0x9ef8 <__bpf_object__open.part.0+0x328>
    9efc: e0 03 1c aa  	mov	x0, x28
    9f00: c1 05 80 52  	mov	w1, #46
    9f04: 00 00 00 94  	bl	0x9f04 <__bpf_object__open.part.0+0x334>
    9f08: 60 ef ff b4  	cbz	x0, 0x9cf4 <__bpf_object__open.part.0+0x124>
    9f0c: 1f 00 00 39  	strb	wzr, [x0]
    9f10: 79 ff ff 17  	b	0x9cf4 <__bpf_object__open.part.0+0x124>
    9f14: 02 00 00 90  	adrp	x2, 0x9000 <__bpf_object__open.part.0+0x344>
    9f18: 01 00 00 90  	adrp	x1, 0x9000 <__bpf_object__open.part.0+0x348>
    9f1c: 42 00 00 91  	add	x2, x2, #0
    9f20: 21 00 00 91  	add	x1, x1, #0
    9f24: 00 00 80 52  	mov	w0, #0
    9f28: bc 02 80 92  	mov	x28, #-22
    9f2c: 00 00 00 94  	bl	0x9f2c <__bpf_object__open.part.0+0x35c>
    9f30: a5 ff ff 17  	b	0x9dc4 <__bpf_object__open.part.0+0x1f4>
    9f34: f7 63 44 a9  	ldp	x23, x24, [sp, #64]
    9f38: f9 6b 45 a9  	ldp	x25, x26, [sp, #80]
    9f3c: 13 f4 81 92  	mov	x19, #-4001
    9f40: 9e ff ff 17  	b	0x9db8 <__bpf_object__open.part.0+0x1e8>
    9f44: e0 03 13 aa  	mov	x0, x19
    9f48: f7 63 04 a9  	stp	x23, x24, [sp, #64]
    9f4c: 00 00 00 94  	bl	0x9f4c <__bpf_object__open.part.0+0x37c>
    9f50: f7 03 00 aa  	mov	x23, x0
    9f54: 20 00 80 d2  	mov	x0, #1
    9f58: e1 66 07 91  	add	x1, x23, #473
    9f5c: 00 00 00 94  	bl	0x9f5c <__bpf_object__open.part.0+0x38c>
    9f60: fc 03 00 aa  	mov	x28, x0
    9f64: a0 4b 01 b4  	cbz	x0, 0xc8d8 <__bpf_object__open.part.0+0x2d08>
    9f68: 00 60 07 91  	add	x0, x0, #472
    9f6c: e2 06 00 91  	add	x2, x23, #1
    9f70: e1 03 13 aa  	mov	x1, x19
    9f74: e0 77 00 f9  	str	x0, [sp, #232]
    9f78: 00 00 00 94  	bl	0x9f78 <__bpf_object__open.part.0+0x3a8>
    9f7c: f7 63 44 a9  	ldp	x23, x24, [sp, #64]
    9f80: 36 fb ff b4  	cbz	x22, 0x9ee4 <__bpf_object__open.part.0+0x314>
    9f84: 57 ff ff 17  	b	0x9ce0 <__bpf_object__open.part.0+0x110>
    9f88: f7 63 04 a9  	stp	x23, x24, [sp, #64]
    9f8c: f8 03 15 aa  	mov	x24, x21
    9f90: 00 00 00 90  	adrp	x0, 0x9000 <__bpf_object__open.part.0+0x3c0>
    9f94: f9 6b 05 a9  	stp	x25, x26, [sp, #80]
    9f98: 7a 80 89 52  	mov	w26, #19459
    9f9c: f9 63 04 91  	add	x25, sp, #280
    9fa0: 00 00 00 91  	add	x0, x0, #0
    9fa4: 34 00 80 d2  	mov	x20, #1
    9fa8: fa ff ad 72  	movk	w26, #28671, lsl #16
    9fac: ff 7f 08 a9  	stp	xzr, xzr, [sp, #128]
    9fb0: e0 53 00 f9  	str	x0, [sp, #160]
    9fb4: 1f 20 03 d5  	nop
    9fb8: e1 03 1b aa  	mov	x1, x27
    9fbc: e0 03 18 aa  	mov	x0, x24
    9fc0: 00 00 00 94  	bl	0x9fc0 <__bpf_object__open.part.0+0x3f0>
    9fc4: fb 03 00 aa  	mov	x27, x0
    9fc8: 80 06 00 51  	sub	w0, w20, #1
    9fcc: 5b 16 00 b4  	cbz	x27, 0xa294 <__bpf_object__open.part.0+0x6c4>
    9fd0: e2 03 19 aa  	mov	x2, x25
    9fd4: e1 03 1b aa  	mov	x1, x27
    9fd8: e0 03 1c aa  	mov	x0, x28
    9fdc: f7 03 14 2a  	mov	w23, w20
    9fe0: 60 dd ff 97  	bl	0x1560 <elf_sec_hdr>
    9fe4: 80 fa ff 35  	cbnz	w0, 0x9f34 <__bpf_object__open.part.0+0x364>
    9fe8: 80 63 40 f9  	ldr	x0, [x28, #192]
    9fec: 81 9b 40 f9  	ldr	x1, [x28, #304]
    9ff0: f6 1b 41 b9  	ldr	w22, [sp, #280]
    9ff4: e2 03 16 aa  	mov	x2, x22
    9ff8: 00 00 00 94  	bl	0x9ff8 <__bpf_object__open.part.0+0x428>
    9ffc: f3 03 00 aa  	mov	x19, x0
    a000: 40 12 00 b4  	cbz	x0, 0xa248 <__bpf_object__open.part.0+0x678>
    a004: e1 1f 41 b9  	ldr	w1, [sp, #284]
    a008: 3f 00 1a 6b  	cmp	w1, w26
    a00c: 24 18 43 7a  	ccmp	w1, #3, #4, ne
    a010: 00 08 00 54  	b.eq	0xa110 <__bpf_object__open.part.0+0x540>
    a014: 3f 04 00 71  	cmp	w1, #1
    a018: 00 08 00 54  	b.eq	0xa118 <__bpf_object__open.part.0+0x548>
    a01c: 15 00 00 90  	adrp	x21, 0xa000 <__bpf_object__open.part.0+0x44c>
    a020: b5 02 00 91  	add	x21, x21, #0
    a024: e1 03 15 aa  	mov	x1, x21
    a028: e0 03 13 aa  	mov	x0, x19
    a02c: e2 00 80 d2  	mov	x2, #7
    a030: 00 00 00 94  	bl	0xa030 <__bpf_object__open.part.0+0x460>
    a034: e0 06 00 34  	cbz	w0, 0xa110 <__bpf_object__open.part.0+0x540>
    a038: 01 00 00 90  	adrp	x1, 0xa000 <__bpf_object__open.part.0+0x468>
    a03c: e0 03 13 aa  	mov	x0, x19
    a040: 21 00 00 91  	add	x1, x1, #0
    a044: 82 00 80 d2  	mov	x2, #4
    a048: 00 00 00 94  	bl	0xa048 <__bpf_object__open.part.0+0x478>
    a04c: 20 02 00 35  	cbnz	w0, 0xa090 <__bpf_object__open.part.0+0x4c0>
    a050: 76 12 00 91  	add	x22, x19, #4
    a054: e1 03 15 aa  	mov	x1, x21
    a058: e0 03 16 aa  	mov	x0, x22
    a05c: e2 00 80 d2  	mov	x2, #7
    a060: 00 00 00 94  	bl	0xa060 <__bpf_object__open.part.0+0x490>
    a064: 60 05 00 34  	cbz	w0, 0xa110 <__bpf_object__open.part.0+0x540>
    a068: 01 00 00 90  	adrp	x1, 0xa000 <__bpf_object__open.part.0+0x498>
    a06c: e0 03 16 aa  	mov	x0, x22
    a070: 21 00 00 91  	add	x1, x1, #0
    a074: 00 00 00 94  	bl	0xa074 <__bpf_object__open.part.0+0x4a4>
    a078: c0 04 00 34  	cbz	w0, 0xa110 <__bpf_object__open.part.0+0x540>
    a07c: 01 00 00 90  	adrp	x1, 0xa000 <__bpf_object__open.part.0+0x4ac>
    a080: e0 03 16 aa  	mov	x0, x22
    a084: 21 00 00 91  	add	x1, x1, #0
    a088: 00 00 00 94  	bl	0xa088 <__bpf_object__open.part.0+0x4b8>
    a08c: 20 04 00 34  	cbz	w0, 0xa110 <__bpf_object__open.part.0+0x540>
    a090: e1 03 1b aa  	mov	x1, x27
    a094: e0 03 1c aa  	mov	x0, x28
    a098: f2 ea ff 97  	bl	0x4c60 <elf_sec_data>
    a09c: f5 03 00 aa  	mov	x21, x0
    a0a0: a0 f4 ff b4  	cbz	x0, 0x9f34 <__bpf_object__open.part.0+0x364>
    a0a4: e7 1f 41 b9  	ldr	w7, [sp, #284]
    a0a8: e3 03 13 aa  	mov	x3, x19
    a0ac: e5 43 41 b9  	ldr	w5, [sp, #320]
    a0b0: e2 03 17 2a  	mov	w2, w23
    a0b4: a4 0a 40 f9  	ldr	x4, [x21, #16]
    a0b8: 40 00 80 52  	mov	w0, #2
    a0bc: e6 93 40 f9  	ldr	x6, [sp, #288]
    a0c0: 01 00 00 90  	adrp	x1, 0xa000 <__bpf_object__open.part.0+0x4f0>
    a0c4: 21 00 00 91  	add	x1, x1, #0
    a0c8: 00 00 00 94  	bl	0xa0c8 <__bpf_object__open.part.0+0x4f8>
    a0cc: 01 00 00 90  	adrp	x1, 0xa000 <__bpf_object__open.part.0+0x4fc>
    a0d0: e0 03 13 aa  	mov	x0, x19
    a0d4: 21 00 00 91  	add	x1, x1, #0
    a0d8: 00 00 00 94  	bl	0xa0d8 <__bpf_object__open.part.0+0x508>
    a0dc: e0 02 00 34  	cbz	w0, 0xa138 <__bpf_object__open.part.0+0x568>
    a0e0: 01 00 00 90  	adrp	x1, 0xa000 <__bpf_object__open.part.0+0x510>
    a0e4: e0 03 13 aa  	mov	x0, x19
    a0e8: 21 00 00 91  	add	x1, x1, #0
    a0ec: 00 00 00 94  	bl	0xa0ec <__bpf_object__open.part.0+0x51c>
    a0f0: 40 05 00 34  	cbz	w0, 0xa198 <__bpf_object__open.part.0+0x5c8>
    a0f4: 01 00 00 90  	adrp	x1, 0xa000 <__bpf_object__open.part.0+0x524>
    a0f8: e0 03 13 aa  	mov	x0, x19
    a0fc: 21 00 00 91  	add	x1, x1, #0
    a100: 00 00 00 94  	bl	0xa100 <__bpf_object__open.part.0+0x530>
    a104: a0 03 00 35  	cbnz	w0, 0xa178 <__bpf_object__open.part.0+0x5a8>
    a108: 97 4f 01 b9  	str	w23, [x28, #332]
    a10c: 1f 20 03 d5  	nop
    a110: 94 06 00 91  	add	x20, x20, #1
    a114: a9 ff ff 17  	b	0x9fb8 <__bpf_object__open.part.0+0x3e8>
    a118: e1 9f 40 f9  	ldr	x1, [sp, #312]
    a11c: 01 f8 ff b5  	cbnz	x1, 0xa01c <__bpf_object__open.part.0+0x44c>
    a120: 01 00 00 90  	adrp	x1, 0xa000 <__bpf_object__open.part.0+0x550>
    a124: 21 00 00 91  	add	x1, x1, #0
    a128: 00 00 00 94  	bl	0xa128 <__bpf_object__open.part.0+0x558>
    a12c: 80 f7 ff 35  	cbnz	w0, 0xa01c <__bpf_object__open.part.0+0x44c>
    a130: 94 06 00 91  	add	x20, x20, #1
    a134: a1 ff ff 17  	b	0x9fb8 <__bpf_object__open.part.0+0x3e8>
    a138: a2 0a 40 f9  	ldr	x2, [x21, #16]
    a13c: 83 43 00 91  	add	x3, x28, #16
    a140: a1 02 40 f9  	ldr	x1, [x21]
    a144: 5f fc 00 f1  	cmp	x2, #63
    a148: e4 07 80 d2  	mov	x4, #63
    a14c: e0 03 03 aa  	mov	x0, x3
    a150: 42 90 84 9a  	csel	x2, x2, x4, ls
    a154: 94 06 00 91  	add	x20, x20, #1
    a158: 00 00 00 94  	bl	0xa158 <__bpf_object__open.part.0+0x588>
    a15c: e3 03 00 aa  	mov	x3, x0
    a160: e2 77 40 f9  	ldr	x2, [sp, #232]
    a164: 01 00 00 90  	adrp	x1, 0xa000 <__bpf_object__open.part.0+0x594>
    a168: 40 00 80 52  	mov	w0, #2
    a16c: 21 00 00 91  	add	x1, x1, #0
    a170: 00 00 00 94  	bl	0xa170 <__bpf_object__open.part.0+0x5a0>
    a174: 91 ff ff 17  	b	0x9fb8 <__bpf_object__open.part.0+0x3e8>
    a178: 01 00 00 90  	adrp	x1, 0xa000 <__bpf_object__open.part.0+0x5a8>
    a17c: e0 03 13 aa  	mov	x0, x19
    a180: 21 00 00 91  	add	x1, x1, #0
    a184: 00 00 00 94  	bl	0xa184 <__bpf_object__open.part.0+0x5b4>
    a188: 20 02 00 35  	cbnz	w0, 0xa1cc <__bpf_object__open.part.0+0x5fc>
    a18c: 94 06 00 91  	add	x20, x20, #1
    a190: 97 53 01 b9  	str	w23, [x28, #336]
    a194: 89 ff ff 17  	b	0x9fb8 <__bpf_object__open.part.0+0x3e8>
    a198: a2 0a 40 f9  	ldr	x2, [x21, #16]
    a19c: a1 02 40 f9  	ldr	x1, [x21]
    a1a0: 5f 10 00 f1  	cmp	x2, #4
    a1a4: c1 2a 01 54  	b.ne	0xc6fc <__bpf_object__open.part.0+0x2b2c>
    a1a8: 23 00 40 b9  	ldr	w3, [x1]
    a1ac: 40 00 80 52  	mov	w0, #2
    a1b0: e2 77 40 f9  	ldr	x2, [sp, #232]
    a1b4: 83 53 00 b9  	str	w3, [x28, #80]
    a1b8: 01 00 00 90  	adrp	x1, 0xa000 <__bpf_object__open.part.0+0x5e8>
    a1bc: 94 06 00 91  	add	x20, x20, #1
    a1c0: 21 00 00 91  	add	x1, x1, #0
    a1c4: 00 00 00 94  	bl	0xa1c4 <__bpf_object__open.part.0+0x5f4>
    a1c8: 7c ff ff 17  	b	0x9fb8 <__bpf_object__open.part.0+0x3e8>
    a1cc: 01 00 00 90  	adrp	x1, 0xa000 <__bpf_object__open.part.0+0x5fc>
    a1d0: e0 03 13 aa  	mov	x0, x19
    a1d4: 21 00 00 91  	add	x1, x1, #0
    a1d8: 00 00 00 94  	bl	0xa1d8 <__bpf_object__open.part.0+0x608>
    a1dc: 00 03 00 34  	cbz	w0, 0xa23c <__bpf_object__open.part.0+0x66c>
    a1e0: 01 00 00 90  	adrp	x1, 0xa000 <__bpf_object__open.part.0+0x610>
    a1e4: e0 03 13 aa  	mov	x0, x19
    a1e8: 21 00 00 91  	add	x1, x1, #0
    a1ec: 00 00 00 94  	bl	0xa1ec <__bpf_object__open.part.0+0x61c>
    a1f0: a0 f4 00 34  	cbz	w0, 0xc084 <__bpf_object__open.part.0+0x24b4>
    a1f4: e0 1f 41 b9  	ldr	w0, [sp, #284]
    a1f8: 1f 08 00 71  	cmp	w0, #2
    a1fc: a0 f8 ff 54  	b.eq	0xa110 <__bpf_object__open.part.0+0x540>
    a200: 1f 04 00 71  	cmp	w0, #1
    a204: 40 14 01 54  	b.eq	0xc48c <__bpf_object__open.part.0+0x28bc>
    a208: 1f 24 00 71  	cmp	w0, #9
    a20c: e0 04 01 54  	b.eq	0xc2a8 <__bpf_object__open.part.0+0x26d8>
    a210: 1f 20 00 71  	cmp	w0, #8
    a214: 81 03 01 54  	b.ne	0xc284 <__bpf_object__open.part.0+0x26b4>
    a218: 01 00 00 90  	adrp	x1, 0xa000 <__bpf_object__open.part.0+0x648>
    a21c: e0 03 13 aa  	mov	x0, x19
    a220: 21 00 00 91  	add	x1, x1, #0
    a224: 00 00 00 94  	bl	0xa224 <__bpf_object__open.part.0+0x654>
    a228: e0 02 01 35  	cbnz	w0, 0xc284 <__bpf_object__open.part.0+0x26b4>
    a22c: 94 06 00 91  	add	x20, x20, #1
    a230: 95 93 00 f9  	str	x21, [x28, #288]
    a234: 97 6b 01 b9  	str	w23, [x28, #360]
    a238: 60 ff ff 17  	b	0x9fb8 <__bpf_object__open.part.0+0x3e8>
    a23c: 94 06 00 91  	add	x20, x20, #1
    a240: f5 47 00 f9  	str	x21, [sp, #136]
    a244: 5d ff ff 17  	b	0x9fb8 <__bpf_object__open.part.0+0x3e8>
    a248: 00 00 80 12  	mov	w0, #-1
    a24c: 00 00 00 94  	bl	0xa24c <__bpf_object__open.part.0+0x67c>
    a250: e3 77 40 f9  	ldr	x3, [sp, #232]
    a254: e4 03 00 aa  	mov	x4, x0
    a258: e2 03 16 aa  	mov	x2, x22
    a25c: 01 00 00 90  	adrp	x1, 0xa000 <__bpf_object__open.part.0+0x68c>
    a260: 00 00 80 52  	mov	w0, #0
    a264: 21 00 00 91  	add	x1, x1, #0
    a268: 13 f4 81 92  	mov	x19, #-4001
    a26c: 00 00 00 94  	bl	0xa26c <__bpf_object__open.part.0+0x69c>
    a270: f7 63 44 a9  	ldp	x23, x24, [sp, #64]
    a274: f9 6b 45 a9  	ldp	x25, x26, [sp, #80]
    a278: d0 fe ff 17  	b	0x9db8 <__bpf_object__open.part.0+0x1e8>
    a27c: e2 77 40 f9  	ldr	x2, [sp, #232]
    a280: 01 00 00 90  	adrp	x1, 0xa000 <__bpf_object__open.part.0+0x6b0>
    a284: 13 f4 81 92  	mov	x19, #-4001
    a288: 21 00 00 91  	add	x1, x1, #0
    a28c: 00 00 00 94  	bl	0xa28c <__bpf_object__open.part.0+0x6bc>
    a290: ca fe ff 17  	b	0x9db8 <__bpf_object__open.part.0+0x1e8>
    a294: 81 9f 40 f9  	ldr	x1, [x28, #312]
    a298: e1 2f 01 b4  	cbz	x1, 0xc894 <__bpf_object__open.part.0+0x2cc4>
    a29c: 3f c0 20 eb  	cmp	x1, w0, sxtw
    a2a0: a8 2f 01 54  	b.hi	0xc894 <__bpf_object__open.part.0+0x2cc4>
    a2a4: 80 87 45 a9  	ldp	x0, x1, [x28, #88]
    a2a8: 03 00 00 90  	adrp	x3, 0xa000 <__bpf_object__open.part.0+0x6d8>
    a2ac: 02 1b 80 d2  	mov	x2, #216
    a2b0: 63 00 00 91  	add	x3, x3, #0
    a2b4: 00 00 00 94  	bl	0xa2b4 <__bpf_object__open.part.0+0x6e4>
    a2b8: e0 47 40 f9  	ldr	x0, [sp, #136]
    a2bc: 80 f3 00 b4  	cbz	x0, 0xc12c <__bpf_object__open.part.0+0x255c>
    a2c0: e1 47 40 f9  	ldr	x1, [sp, #136]
    a2c4: e0 03 01 aa  	mov	x0, x1
    a2c8: 21 10 40 b9  	ldr	w1, [x1, #16]
    a2cc: 00 00 40 f9  	ldr	x0, [x0]
    a2d0: 00 00 00 94  	bl	0xa2d0 <__bpf_object__open.part.0+0x700>
    a2d4: 80 c3 00 f9  	str	x0, [x28, #384]
    a2d8: f4 03 00 aa  	mov	x20, x0
    a2dc: e0 f5 00 b4  	cbz	x0, 0xc198 <__bpf_object__open.part.0+0x25c8>
    a2e0: 1f 04 40 b1  	cmn	x0, #1, lsl #12         // =4096
    a2e4: 48 f5 00 54  	b.hi	0xc18c <__bpf_object__open.part.0+0x25bc>
    a2e8: e0 03 14 aa  	mov	x0, x20
    a2ec: 01 01 80 d2  	mov	x1, #8
    a2f0: 00 00 00 94  	bl	0xa2f0 <__bpf_object__open.part.0+0x720>
    a2f4: e0 43 40 f9  	ldr	x0, [sp, #128]
    a2f8: a0 01 00 b4  	cbz	x0, 0xa32c <__bpf_object__open.part.0+0x75c>
    a2fc: 80 c3 40 f9  	ldr	x0, [x28, #384]
    a300: c0 03 01 b4  	cbz	x0, 0xc378 <__bpf_object__open.part.0+0x27a8>
    a304: e1 43 40 f9  	ldr	x1, [sp, #128]
    a308: e0 03 01 aa  	mov	x0, x1
    a30c: 21 10 40 b9  	ldr	w1, [x1, #16]
    a310: 00 00 40 f9  	ldr	x0, [x0]
    a314: 00 00 00 94  	bl	0xa314 <__bpf_object__open.part.0+0x744>
    a318: 80 c7 00 f9  	str	x0, [x28, #392]
    a31c: f3 03 00 aa  	mov	x19, x0
    a320: 80 f9 00 b4  	cbz	x0, 0xc250 <__bpf_object__open.part.0+0x2680>
    a324: 1f 04 40 b1  	cmn	x0, #1, lsl #12         // =4096
    a328: e8 f8 00 54  	b.hi	0xc244 <__bpf_object__open.part.0+0x2674>
    a32c: 80 87 40 f9  	ldr	x0, [x28, #264]
    a330: c0 20 00 b4  	cbz	x0, 0xa748 <__bpf_object__open.part.0+0xb78>
    a334: 80 63 40 f9  	ldr	x0, [x28, #192]
    a338: 94 5f 81 b9  	ldrsw	x20, [x28, #348]
    a33c: e1 03 14 aa  	mov	x1, x20
    a340: 00 00 00 94  	bl	0xa340 <__bpf_object__open.part.0+0x770>
    a344: f3 03 00 aa  	mov	x19, x0
    a348: 20 f5 00 b4  	cbz	x0, 0xc1ec <__bpf_object__open.part.0+0x261c>
    a34c: e1 03 13 aa  	mov	x1, x19
    a350: e2 63 05 91  	add	x2, sp, #344
    a354: e0 03 1c aa  	mov	x0, x28
    a358: 82 dc ff 97  	bl	0x1560 <elf_sec_hdr>
    a35c: e0 ab 00 b9  	str	w0, [sp, #168]
    a360: 80 1e 01 35  	cbnz	w0, 0xc730 <__bpf_object__open.part.0+0x2b60>
    a364: 96 c3 40 f9  	ldr	x22, [x28, #384]
    a368: 16 25 00 b4  	cbz	x22, 0xa808 <__bpf_object__open.part.0+0xc38>
    a36c: 01 00 00 90  	adrp	x1, 0xa000 <__bpf_object__open.part.0+0x79c>
    a370: e0 03 16 aa  	mov	x0, x22
    a374: 21 00 00 91  	add	x1, x1, #0
    a378: e2 01 80 52  	mov	w2, #15
    a37c: 00 00 00 94  	bl	0xa37c <__bpf_object__open.part.0+0x7ac>
    a380: 40 24 f8 37  	tbnz	w0, #31, 0xa808 <__bpf_object__open.part.0+0xc38>
    a384: e1 03 00 2a  	mov	w1, w0
    a388: e0 03 16 aa  	mov	x0, x22
    a38c: 00 00 00 94  	bl	0xa38c <__bpf_object__open.part.0+0x7bc>
    a390: f5 03 00 aa  	mov	x21, x0
    a394: 14 30 00 91  	add	x20, x0, #12
    a398: 00 08 40 79  	ldrh	w0, [x0, #4]
    a39c: 60 23 00 34  	cbz	w0, 0xa808 <__bpf_object__open.part.0+0xc38>
    a3a0: 13 00 80 52  	mov	w19, #0
    a3a4: 05 00 00 14  	b	0xa3b8 <__bpf_object__open.part.0+0x7e8>
    a3a8: 73 06 00 11  	add	w19, w19, #1
    a3ac: 94 32 00 91  	add	x20, x20, #12
    a3b0: 7f 02 00 6b  	cmp	w19, w0
    a3b4: 2a 01 00 54  	b.ge	0xa3d8 <__bpf_object__open.part.0+0x808>
    a3b8: 81 02 40 b9  	ldr	w1, [x20]
    a3bc: e0 03 16 aa  	mov	x0, x22
    a3c0: 00 00 00 94  	bl	0xa3c0 <__bpf_object__open.part.0+0x7f0>
    a3c4: 00 1c 40 39  	ldrb	w0, [x0, #7]
    a3c8: 00 10 00 12  	and	w0, w0, #0x1f
    a3cc: 1f 30 00 71  	cmp	w0, #12
    a3d0: a0 0a 40 79  	ldrh	w0, [x21, #4]
    a3d4: a1 fe ff 54  	b.ne	0xa3a8 <__bpf_object__open.part.0+0x7d8>
    a3d8: 1f 00 13 6b  	cmp	w0, w19
    a3dc: 60 21 00 54  	b.eq	0xa808 <__bpf_object__open.part.0+0xc38>
    a3e0: e0 03 16 aa  	mov	x0, x22
    a3e4: 3f d9 ff 97  	bl	0x8e0 <find_int_btf_id>
    a3e8: 01 00 00 90  	adrp	x1, 0xa000 <__bpf_object__open.part.0+0x818>
    a3ec: e3 03 00 2a  	mov	w3, w0
    a3f0: 21 00 00 91  	add	x1, x1, #0
    a3f4: e0 03 16 aa  	mov	x0, x22
    a3f8: 22 00 80 52  	mov	w2, #1
    a3fc: 00 00 00 94  	bl	0xa3fc <__bpf_object__open.part.0+0x82c>
    a400: e0 bb 00 b9  	str	w0, [sp, #184]
    a404: 40 ee f8 37  	tbnz	w0, #31, 0xc1cc <__bpf_object__open.part.0+0x25fc>
    a408: f3 bf 40 f9  	ldr	x19, [sp, #376]
    a40c: 01 00 00 90  	adrp	x1, 0xa000 <__bpf_object__open.part.0+0x83c>
    a410: e2 cb 40 f9  	ldr	x2, [sp, #400]
    a414: 21 00 00 91  	add	x1, x1, #0
    a418: 40 00 80 52  	mov	w0, #2
    a41c: 73 0a c2 9a  	udiv	x19, x19, x2
    a420: e2 03 13 2a  	mov	w2, w19
    a424: f3 7b 00 b9  	str	w19, [sp, #120]
    a428: 00 00 00 94  	bl	0xa428 <__bpf_object__open.part.0+0x858>
    a42c: 7f 02 00 71  	cmp	w19, #0
    a430: cd 1e 01 54  	b.le	0xc808 <__bpf_object__open.part.0+0x2c38>
    a434: fa 63 04 91  	add	x26, sp, #280
    a438: 13 00 80 52  	mov	w19, #0
    a43c: ff ff 09 a9  	stp	xzr, xzr, [sp, #152]
    a440: 05 00 00 14  	b	0xa454 <__bpf_object__open.part.0+0x884>
    a444: e0 7b 40 b9  	ldr	w0, [sp, #120]
    a448: 73 06 00 11  	add	w19, w19, #1
    a44c: 1f 00 13 6b  	cmp	w0, w19
    a450: 00 c8 00 54  	b.eq	0xbd50 <__bpf_object__open.part.0+0x2180>
    a454: 80 87 40 f9  	ldr	x0, [x28, #264]
    a458: e2 03 1a aa  	mov	x2, x26
    a45c: e1 03 13 2a  	mov	w1, w19
    a460: 00 00 00 94  	bl	0xa460 <__bpf_object__open.part.0+0x890>
    a464: 00 21 01 b4  	cbz	x0, 0xc884 <__bpf_object__open.part.0+0x2cb4>
    a468: e0 3f 42 79  	ldrh	w0, [sp, #286]
    a46c: e1 73 44 39  	ldrb	w1, [sp, #284]
    a470: a0 fe ff 35  	cbnz	w0, 0xa444 <__bpf_object__open.part.0+0x874>
    a474: 20 7c 04 53  	lsr	w0, w1, #4
    a478: 00 04 00 51  	sub	w0, w0, #1
    a47c: 1f 04 00 71  	cmp	w0, #1
    a480: 28 fe ff 54  	b.hi	0xa444 <__bpf_object__open.part.0+0x874>
    a484: 3f 0c 40 f2  	tst	x1, #0xf
    a488: e1 fd ff 54  	b.ne	0xa444 <__bpf_object__open.part.0+0x874>
    a48c: 80 63 40 f9  	ldr	x0, [x28, #192]
    a490: 81 9f 40 f9  	ldr	x1, [x28, #312]
    a494: f4 1b 41 b9  	ldr	w20, [sp, #280]
    a498: e2 03 14 aa  	mov	x2, x20
    a49c: 00 00 00 94  	bl	0xa49c <__bpf_object__open.part.0+0x8cc>
    a4a0: f5 03 00 aa  	mov	x21, x0
    a4a4: 20 c4 00 b4  	cbz	x0, 0xbd28 <__bpf_object__open.part.0+0x2158>
    a4a8: a0 02 40 39  	ldrb	w0, [x21]
    a4ac: c0 fc ff 34  	cbz	w0, 0xa444 <__bpf_object__open.part.0+0x874>
    a4b0: 81 93 40 b9  	ldr	w1, [x28, #144]
    a4b4: 02 07 80 d2  	mov	x2, #56
    a4b8: 03 07 80 d2  	mov	x3, #56
    a4bc: 21 04 00 11  	add	w1, w1, #1
    a4c0: 80 47 40 f9  	ldr	x0, [x28, #136]
    a4c4: 21 7c 40 93  	sxtw	x1, w1
    a4c8: 22 7c c2 9b  	umulh	x2, x1, x2
    a4cc: 21 7c 03 9b  	mul	x1, x1, x3
    a4d0: a2 c0 00 b5  	cbnz	x2, 0xbce4 <__bpf_object__open.part.0+0x2114>
    a4d4: 00 00 00 94  	bl	0xa4d4 <__bpf_object__open.part.0+0x904>
    a4d8: f6 03 00 aa  	mov	x22, x0
    a4dc: 40 c0 00 b4  	cbz	x0, 0xbce4 <__bpf_object__open.part.0+0x2114>
    a4e0: 98 93 40 b9  	ldr	w24, [x28, #144]
    a4e4: 00 07 80 52  	mov	w0, #56
    a4e8: 00 04 00 4f  	movi	v0.4s, #0
    a4ec: 96 47 00 f9  	str	x22, [x28, #136]
    a4f0: 00 7f 20 9b  	smull	x0, w24, w0
    a4f4: e0 4b 00 f9  	str	x0, [sp, #144]
    a4f8: d4 02 00 8b  	add	x20, x22, x0
    a4fc: 9f 1a 00 f9  	str	xzr, [x20, #48]
    a500: 80 02 00 ad  	stp	q0, q0, [x20]
    a504: 80 0a 80 3d  	str	q0, [x20, #32]
    a508: 80 93 40 b9  	ldr	w0, [x28, #144]
    a50c: 99 c3 40 f9  	ldr	x25, [x28, #384]
    a510: 00 04 00 11  	add	w0, w0, #1
    a514: 80 93 00 b9  	str	w0, [x28, #144]
    a518: 39 1b 01 b4  	cbz	x25, 0xc87c <__bpf_object__open.part.0+0x2cac>
    a51c: e0 03 19 aa  	mov	x0, x25
    a520: 00 00 00 94  	bl	0xa520 <__bpf_object__open.part.0+0x950>
    a524: f7 03 00 2a  	mov	w23, w0
    a528: 1f 00 00 71  	cmp	w0, #0
    a52c: cd 0f 00 54  	b.le	0xa724 <__bpf_object__open.part.0+0xb54>
    a530: 38 00 80 52  	mov	w24, #1
    a534: e1 03 18 2a  	mov	w1, w24
    a538: e0 03 19 aa  	mov	x0, x25
    a53c: 00 00 00 94  	bl	0xa53c <__bpf_object__open.part.0+0x96c>
    a540: fb 03 00 aa  	mov	x27, x0
    a544: 00 1c 40 39  	ldrb	w0, [x0, #7]
    a548: a1 03 80 52  	mov	w1, #29
    a54c: 00 00 01 0a  	and	w0, w0, w1
    a550: 1f 30 00 71  	cmp	w0, #12
    a554: 21 0e 00 54  	b.ne	0xa718 <__bpf_object__open.part.0+0xb48>
    a558: 61 03 40 b9  	ldr	w1, [x27]
    a55c: e0 03 19 aa  	mov	x0, x25
    a560: 00 00 00 94  	bl	0xa560 <__bpf_object__open.part.0+0x990>
    a564: e1 03 15 aa  	mov	x1, x21
    a568: 00 00 00 94  	bl	0xa568 <__bpf_object__open.part.0+0x998>
    a56c: 60 0d 00 35  	cbnz	w0, 0xa718 <__bpf_object__open.part.0+0xb48>
    a570: 60 07 40 b9  	ldr	w0, [x27, #4]
    a574: 01 70 58 d3  	ubfx	x1, x0, #24, #5
    a578: 3f 38 00 71  	cmp	w1, #14
    a57c: 80 a6 00 54  	b.eq	0xba4c <__bpf_object__open.part.0+0x1e7c>
    a580: 3f 30 00 71  	cmp	w1, #12
    a584: 81 00 00 54  	b.ne	0xa594 <__bpf_object__open.part.0+0x9c4>
    a588: 00 3c 00 12  	and	w0, w0, #0xffff
    a58c: 1f 08 00 71  	cmp	w0, #2
    a590: 41 a6 00 54  	b.ne	0xba58 <__bpf_object__open.part.0+0x1e88>
    a594: 80 c3 40 f9  	ldr	x0, [x28, #384]
    a598: 98 0a 00 b9  	str	w24, [x20, #8]
    a59c: e1 03 18 2a  	mov	w1, w24
    a5a0: 00 00 00 94  	bl	0xa5a0 <__bpf_object__open.part.0+0x9d0>
    a5a4: e1 03 00 aa  	mov	x1, x0
    a5a8: e1 43 00 f9  	str	x1, [sp, #128]
    a5ac: 80 c3 40 f9  	ldr	x0, [x28, #384]
    a5b0: 21 00 40 b9  	ldr	w1, [x1]
    a5b4: 00 00 00 94  	bl	0xa5b4 <__bpf_object__open.part.0+0x9e4>
    a5b8: 98 0a 40 b9  	ldr	w24, [x20, #8]
    a5bc: 9b c3 40 f9  	ldr	x27, [x28, #384]
    a5c0: 93 06 00 b9  	str	w19, [x20, #4]
    a5c4: 80 0a 00 f9  	str	x0, [x20, #16]
    a5c8: e0 73 44 39  	ldrb	w0, [sp, #284]
    a5cc: 00 7c 04 53  	lsr	w0, w0, #4
    a5d0: 1f 08 00 71  	cmp	w0, #2
    a5d4: e0 17 9f 1a  	cset	w0, eq
    a5d8: 80 66 00 39  	strb	w0, [x20, #25]
    a5dc: 1b 0a 01 b4  	cbz	x27, 0xc71c <__bpf_object__open.part.0+0x2b4c>
    a5e0: e0 03 1b aa  	mov	x0, x27
    a5e4: 00 00 00 94  	bl	0xa5e4 <__bpf_object__open.part.0+0xa14>
    a5e8: f9 03 00 2a  	mov	w25, w0
    a5ec: 1f 00 00 71  	cmp	w0, #0
    a5f0: 8d a3 00 54  	b.le	0xba60 <__bpf_object__open.part.0+0x1e90>
    a5f4: 37 00 80 52  	mov	w23, #1
    a5f8: 04 00 00 14  	b	0xa608 <__bpf_object__open.part.0+0xa38>
    a5fc: f7 06 00 11  	add	w23, w23, #1
    a600: 3f 03 17 6b  	cmp	w25, w23
    a604: eb a2 00 54  	b.lt	0xba60 <__bpf_object__open.part.0+0x1e90>
    a608: e1 03 17 2a  	mov	w1, w23
    a60c: e0 03 1b aa  	mov	x0, x27
    a610: 00 00 00 94  	bl	0xa610 <__bpf_object__open.part.0+0xa40>
    a614: 02 04 40 b9  	ldr	w2, [x0, #4]
    a618: 43 70 58 d3  	ubfx	x3, x2, #24, #5
    a61c: 7f 3c 00 71  	cmp	w3, #15
    a620: e1 fe ff 54  	b.ne	0xa5fc <__bpf_object__open.part.0+0xa2c>
    a624: 43 3c 00 72  	ands	w3, w2, #0xffff
    a628: 02 30 00 91  	add	x2, x0, #12
    a62c: 80 fe ff 54  	b.eq	0xa5fc <__bpf_object__open.part.0+0xa2c>
    a630: 63 04 00 51  	sub	w3, w3, #1
    a634: 81 01 80 52  	mov	w1, #12
    a638: 04 03 80 d2  	mov	x4, #24
    a63c: 63 10 a1 9b  	umaddl	x3, w3, w1, x4
    a640: 00 00 03 8b  	add	x0, x0, x3
    a644: 04 00 00 14  	b	0xa654 <__bpf_object__open.part.0+0xa84>
    a648: 42 30 00 91  	add	x2, x2, #12
    a64c: 5f 00 00 eb  	cmp	x2, x0
    a650: 60 fd ff 54  	b.eq	0xa5fc <__bpf_object__open.part.0+0xa2c>
    a654: 43 00 40 b9  	ldr	w3, [x2]
    a658: 7f 00 18 6b  	cmp	w3, w24
    a65c: 61 ff ff 54  	b.ne	0xa648 <__bpf_object__open.part.0+0xa78>
    a660: 80 c3 40 f9  	ldr	x0, [x28, #384]
    a664: 97 0e 00 b9  	str	w23, [x20, #12]
    a668: e1 03 17 2a  	mov	w1, w23
    a66c: 00 00 00 94  	bl	0xa66c <__bpf_object__open.part.0+0xa9c>
    a670: 01 00 40 b9  	ldr	w1, [x0]
    a674: f9 03 00 aa  	mov	x25, x0
    a678: 80 c3 40 f9  	ldr	x0, [x28, #384]
    a67c: 00 00 00 94  	bl	0xa67c <__bpf_object__open.part.0+0xaac>
    a680: f8 03 00 aa  	mov	x24, x0
    a684: 01 00 00 90  	adrp	x1, 0xa000 <__bpf_object__open.part.0+0xab4>
    a688: 21 00 00 91  	add	x1, x1, #0
    a68c: e1 47 00 f9  	str	x1, [sp, #136]
    a690: 00 00 00 94  	bl	0xa690 <__bpf_object__open.part.0+0xac0>
    a694: e1 47 40 f9  	ldr	x1, [sp, #136]
    a698: c0 08 00 35  	cbnz	w0, 0xa7b0 <__bpf_object__open.part.0+0xbe0>
    a69c: e2 43 40 f9  	ldr	x2, [sp, #128]
    a6a0: 42 1c 40 39  	ldrb	w2, [x2, #7]
    a6a4: 42 10 00 12  	and	w2, w2, #0x1f
    a6a8: 5f 30 00 71  	cmp	w2, #12
    a6ac: a0 05 01 54  	b.eq	0xc760 <__bpf_object__open.part.0+0x2b90>
    a6b0: e0 43 40 f9  	ldr	x0, [sp, #128]
    a6b4: 22 00 80 52  	mov	w2, #1
    a6b8: e3 4b 40 f9  	ldr	x3, [sp, #144]
    a6bc: 01 08 40 b9  	ldr	w1, [x0, #8]
    a6c0: 80 c3 40 f9  	ldr	x0, [x28, #384]
    a6c4: c2 6a 23 b8  	str	w2, [x22, x3]
    a6c8: 00 00 00 94  	bl	0xa6c8 <__bpf_object__open.part.0+0xaf8>
    a6cc: 80 26 00 b9  	str	w0, [x20, #36]
    a6d0: 1f 00 00 71  	cmp	w0, #0
    a6d4: cd 06 01 54  	b.le	0xc7ac <__bpf_object__open.part.0+0x2bdc>
    a6d8: e0 43 40 f9  	ldr	x0, [sp, #128]
    a6dc: 01 08 40 b9  	ldr	w1, [x0, #8]
    a6e0: 80 c3 40 f9  	ldr	x0, [x28, #384]
    a6e4: 00 00 00 94  	bl	0xa6e4 <__bpf_object__open.part.0+0xb14>
    a6e8: 80 2a 00 b9  	str	w0, [x20, #40]
    a6ec: 1f 00 00 71  	cmp	w0, #0
    a6f0: ad 04 01 54  	b.le	0xc784 <__bpf_object__open.part.0+0x2bb4>
    a6f4: e0 43 40 f9  	ldr	x0, [sp, #128]
    a6f8: 82 c2 00 91  	add	x2, x20, #48
    a6fc: 01 08 40 b9  	ldr	w1, [x0, #8]
    a700: 80 c3 40 f9  	ldr	x0, [x28, #384]
    a704: 0b db ff 97  	bl	0x1330 <find_kcfg_type>
    a708: 80 22 00 b9  	str	w0, [x20, #32]
    a70c: a0 01 01 34  	cbz	w0, 0xc740 <__bpf_object__open.part.0+0x2b70>
    a710: f9 53 00 f9  	str	x25, [sp, #160]
    a714: 4c ff ff 17  	b	0xa444 <__bpf_object__open.part.0+0x874>
    a718: 18 07 00 11  	add	w24, w24, #1
    a71c: ff 02 18 6b  	cmp	w23, w24
    a720: aa f0 ff 54  	b.ge	0xa534 <__bpf_object__open.part.0+0x964>
    a724: 23 00 80 12  	mov	w3, #-2
    a728: 83 0a 00 b9  	str	w3, [x20, #8]
    a72c: e2 03 15 aa  	mov	x2, x21
    a730: 01 00 00 90  	adrp	x1, 0xa000 <__bpf_object__open.part.0+0xb60>
    a734: 00 00 80 52  	mov	w0, #0
    a738: 21 00 00 91  	add	x1, x1, #0
    a73c: 00 00 00 94  	bl	0xa73c <__bpf_object__open.part.0+0xb6c>
    a740: 93 0a 40 b9  	ldr	w19, [x20, #8]
    a744: 33 ad 00 35  	cbnz	w19, 0xbce8 <__bpf_object__open.part.0+0x2118>
    a748: 81 c3 40 f9  	ldr	x1, [x28, #384]
    a74c: 81 00 00 b4  	cbz	x1, 0xa75c <__bpf_object__open.part.0+0xb8c>
    a750: e0 03 1c aa  	mov	x0, x28
    a754: 00 00 00 94  	bl	0xa754 <__bpf_object__open.part.0+0xb84>
    a758: a0 a4 00 35  	cbnz	w0, 0xbbec <__bpf_object__open.part.0+0x201c>
    a75c: e1 5b 40 f9  	ldr	x1, [sp, #176]
    a760: 21 02 00 b4  	cbz	x1, 0xa7a4 <__bpf_object__open.part.0+0xbd4>
    a764: 20 00 40 f9  	ldr	x0, [x1]
    a768: 1f 40 00 f1  	cmp	x0, #16
    a76c: c9 01 00 54  	b.ls	0xa7a4 <__bpf_object__open.part.0+0xbd4>
    a770: 35 40 40 39  	ldrb	w21, [x1, #16]
    a774: b5 02 00 52  	eor	w21, w21, #0x1
    a778: 1f 7c 00 f1  	cmp	x0, #31
    a77c: 89 08 01 54  	b.ls	0xc88c <__bpf_object__open.part.0+0x2cbc>
    a780: 36 0c 40 f9  	ldr	x22, [x1, #24]
    a784: e1 03 15 2a  	mov	w1, w21
    a788: e0 03 1c aa  	mov	x0, x28
    a78c: 62 e9 ff 97  	bl	0x4d14 <bpf_object__init_user_maps>
    a790: 00 04 00 34  	cbz	w0, 0xa810 <__bpf_object__open.part.0+0xc40>
    a794: 13 7c 40 93  	sxtw	x19, w0
    a798: f7 63 44 a9  	ldp	x23, x24, [sp, #64]
    a79c: f9 6b 45 a9  	ldp	x25, x26, [sp, #80]
    a7a0: 86 fd ff 17  	b	0x9db8 <__bpf_object__open.part.0+0x1e8>
    a7a4: 16 00 80 d2  	mov	x22, #0
    a7a8: 35 00 80 52  	mov	w21, #1
    a7ac: f6 ff ff 17  	b	0xa784 <__bpf_object__open.part.0+0xbb4>
    a7b0: 01 00 00 90  	adrp	x1, 0xa000 <__bpf_object__open.part.0+0xbe0>
    a7b4: e0 03 18 aa  	mov	x0, x24
    a7b8: 21 00 00 91  	add	x1, x1, #0
    a7bc: 00 00 00 94  	bl	0xa7bc <__bpf_object__open.part.0+0xbec>
    a7c0: 20 01 01 35  	cbnz	w0, 0xc7e4 <__bpf_object__open.part.0+0x2c14>
    a7c4: e1 43 40 f9  	ldr	x1, [sp, #128]
    a7c8: 21 1c 40 39  	ldrb	w1, [x1, #7]
    a7cc: 21 10 00 12  	and	w1, w1, #0x1f
    a7d0: 3f 30 00 71  	cmp	w1, #12
    a7d4: 61 00 00 54  	b.ne	0xa7e0 <__bpf_object__open.part.0+0xc10>
    a7d8: 81 66 40 39  	ldrb	w1, [x20, #25]
    a7dc: e1 06 01 35  	cbnz	w1, 0xc8b8 <__bpf_object__open.part.0+0x2ce8>
    a7e0: e0 43 40 f9  	ldr	x0, [sp, #128]
    a7e4: 42 00 80 52  	mov	w2, #2
    a7e8: e3 4b 40 f9  	ldr	x3, [sp, #144]
    a7ec: f9 4f 00 f9  	str	x25, [sp, #152]
    a7f0: 01 08 40 b9  	ldr	w1, [x0, #8]
    a7f4: 80 c3 40 f9  	ldr	x0, [x28, #384]
    a7f8: c2 6a 23 b8  	str	w2, [x22, x3]
    a7fc: 82 c2 00 91  	add	x2, x20, #48
    a800: 00 00 00 94  	bl	0xa800 <__bpf_object__open.part.0+0xc30>
    a804: 10 ff ff 17  	b	0xa444 <__bpf_object__open.part.0+0x874>
    a808: ff bb 00 b9  	str	wzr, [sp, #184]
    a80c: ff fe ff 17  	b	0xa408 <__bpf_object__open.part.0+0x838>
    a810: 81 53 41 b9  	ldr	w1, [x28, #336]
    a814: a1 06 f8 37  	tbnz	w1, #31, 0xa8e8 <__bpf_object__open.part.0+0xd18>
    a818: 80 63 40 f9  	ldr	x0, [x28, #192]
    a81c: 33 7c 40 93  	sxtw	x19, w1
    a820: e1 03 13 aa  	mov	x1, x19
    a824: 00 00 00 94  	bl	0xa824 <__bpf_object__open.part.0+0xc54>
    a828: e1 03 00 aa  	mov	x1, x0
    a82c: 80 db 00 b4  	cbz	x0, 0xc39c <__bpf_object__open.part.0+0x27cc>
    a830: e0 03 1c aa  	mov	x0, x28
    a834: 0b e9 ff 97  	bl	0x4c60 <elf_sec_data>
    a838: f7 03 00 aa  	mov	x23, x0
    a83c: 80 dc 00 b4  	cbz	x0, 0xc3cc <__bpf_object__open.part.0+0x27fc>
    a840: 80 c3 40 f9  	ldr	x0, [x28, #384]
    a844: 19 00 00 90  	adrp	x25, 0xa000 <__bpf_object__open.part.0+0xc74>
    a848: 3a 00 80 52  	mov	w26, #1
    a84c: 38 03 00 91  	add	x24, x25, #0
    a850: 00 00 00 94  	bl	0xa850 <__bpf_object__open.part.0+0xc80>
    a854: f3 03 00 2a  	mov	w19, w0
    a858: 1f 00 00 71  	cmp	w0, #0
    a85c: ac 00 00 54  	b.gt	0xa870 <__bpf_object__open.part.0+0xca0>
    a860: f7 04 00 14  	b	0xbc3c <__bpf_object__open.part.0+0x206c>
    a864: 5a 07 00 11  	add	w26, w26, #1
    a868: 7f 02 1a 6b  	cmp	w19, w26
    a86c: 8b 9e 00 54  	b.lt	0xbc3c <__bpf_object__open.part.0+0x206c>
    a870: 80 c3 40 f9  	ldr	x0, [x28, #384]
    a874: e1 03 1a 2a  	mov	w1, w26
    a878: 00 00 00 94  	bl	0xa878 <__bpf_object__open.part.0+0xca8>
    a87c: f4 03 00 aa  	mov	x20, x0
    a880: 00 1c 40 39  	ldrb	w0, [x0, #7]
    a884: 00 10 00 12  	and	w0, w0, #0x1f
    a888: 1f 3c 00 71  	cmp	w0, #15
    a88c: c1 fe ff 54  	b.ne	0xa864 <__bpf_object__open.part.0+0xc94>
    a890: 81 02 40 b9  	ldr	w1, [x20]
    a894: 80 c3 40 f9  	ldr	x0, [x28, #384]
    a898: 00 00 00 94  	bl	0xa898 <__bpf_object__open.part.0+0xcc8>
    a89c: e1 03 18 aa  	mov	x1, x24
    a8a0: 00 00 00 94  	bl	0xa8a0 <__bpf_object__open.part.0+0xcd0>
    a8a4: 00 fe ff 35  	cbnz	w0, 0xa864 <__bpf_object__open.part.0+0xc94>
    a8a8: 98 0a 40 79  	ldrh	w24, [x20, #4]
    a8ac: fb 03 00 2a  	mov	w27, w0
    a8b0: 9a 57 01 b9  	str	w26, [x28, #340]
    a8b4: b8 01 00 34  	cbz	w24, 0xa8e8 <__bpf_object__open.part.0+0xd18>
    a8b8: 83 53 41 b9  	ldr	w3, [x28, #336]
    a8bc: e6 03 16 aa  	mov	x6, x22
    a8c0: e5 03 15 2a  	mov	w5, w21
    a8c4: e4 03 17 aa  	mov	x4, x23
    a8c8: e2 03 1b 2a  	mov	w2, w27
    a8cc: e1 03 14 aa  	mov	x1, x20
    a8d0: e0 03 1c aa  	mov	x0, x28
    a8d4: 7b ed ff 97  	bl	0x5ec0 <bpf_object__init_user_btf_map>
    a8d8: e0 f5 ff 35  	cbnz	w0, 0xa794 <__bpf_object__open.part.0+0xbc4>
    a8dc: 7b 07 00 11  	add	w27, w27, #1
    a8e0: 1f 03 1b 6b  	cmp	w24, w27
    a8e4: a1 fe ff 54  	b.ne	0xa8b8 <__bpf_object__open.part.0+0xce8>
    a8e8: 82 63 41 b9  	ldr	w2, [x28, #352]
    a8ec: 62 99 f8 36  	tbz	w2, #31, 0xbc18 <__bpf_object__open.part.0+0x2048>
    a8f0: 82 67 41 b9  	ldr	w2, [x28, #356]
    a8f4: 22 a0 f8 36  	tbz	w2, #31, 0xbcf8 <__bpf_object__open.part.0+0x2128>
    a8f8: 82 6b 41 b9  	ldr	w2, [x28, #360]
    a8fc: 22 01 f8 37  	tbnz	w2, #31, 0xa920 <__bpf_object__open.part.0+0xd50>
    a900: 84 93 40 f9  	ldr	x4, [x28, #288]
    a904: e0 03 1c aa  	mov	x0, x28
    a908: 03 00 80 d2  	mov	x3, #0
    a90c: 41 00 80 52  	mov	w1, #2
    a910: 84 08 40 f9  	ldr	x4, [x4, #16]
    a914: 27 de ff 97  	bl	0x21b0 <bpf_object__init_internal_map>
    a918: 13 7c 40 93  	sxtw	x19, w0
    a91c: 93 39 00 35  	cbnz	w19, 0xb04c <__bpf_object__open.part.0+0x147c>
    a920: 80 93 40 b9  	ldr	w0, [x28, #144]
    a924: 1f 00 00 71  	cmp	w0, #0
    a928: cd 03 00 54  	b.le	0xa9a0 <__bpf_object__open.part.0+0xdd0>
    a92c: 81 47 40 f9  	ldr	x1, [x28, #136]
    a930: 04 04 00 51  	sub	w4, w0, #1
    a934: 03 07 80 52  	mov	w3, #56
    a938: 02 00 80 d2  	mov	x2, #0
    a93c: 20 e0 00 91  	add	x0, x1, #56
    a940: 84 00 a3 9b  	umaddl	x4, w4, w3, x0
    a944: 02 00 00 14  	b	0xa94c <__bpf_object__open.part.0+0xd7c>
    a948: 00 e0 00 91  	add	x0, x0, #56
    a94c: 23 00 40 b9  	ldr	w3, [x1]
    a950: 7f 04 00 71  	cmp	w3, #1
    a954: 42 10 81 9a  	csel	x2, x2, x1, ne
    a958: e1 03 00 aa  	mov	x1, x0
    a95c: 9f 00 00 eb  	cmp	x4, x0
    a960: 41 ff ff 54  	b.ne	0xa948 <__bpf_object__open.part.0+0xd78>
    a964: e2 01 00 b4  	cbz	x2, 0xa9a0 <__bpf_object__open.part.0+0xdd0>
    a968: 45 24 40 b9  	ldr	w5, [x2, #36]
    a96c: e0 03 1c aa  	mov	x0, x28
    a970: 44 2c 40 b9  	ldr	w4, [x2, #44]
    a974: 03 00 80 d2  	mov	x3, #0
    a978: 82 5f 41 b9  	ldr	w2, [x28, #348]
    a97c: 81 00 80 52  	mov	w1, #4
    a980: 84 00 05 0b  	add	w4, w4, w5
    a984: 84 7c 40 93  	sxtw	x4, w4
    a988: 0a de ff 97  	bl	0x21b0 <bpf_object__init_internal_map>
    a98c: 13 7c 40 93  	sxtw	x19, w0
    a990: f3 35 00 35  	cbnz	w19, 0xb04c <__bpf_object__open.part.0+0x147c>
    a994: 80 3b 40 f9  	ldr	x0, [x28, #112]
    a998: 00 04 00 51  	sub	w0, w0, #1
    a99c: 80 97 00 b9  	str	w0, [x28, #148]
    a9a0: e0 03 1c aa  	mov	x0, x28
    a9a4: b7 de ff 97  	bl	0x2480 <bpf_object__init_struct_ops_maps>
    a9a8: 13 7c 40 93  	sxtw	x19, w0
    a9ac: 13 35 00 35  	cbnz	w19, 0xb04c <__bpf_object__open.part.0+0x147c>
    a9b0: 81 4b 41 b9  	ldr	w1, [x28, #328]
    a9b4: ff 43 00 f9  	str	xzr, [sp, #128]
    a9b8: ff ab 00 b9  	str	wzr, [sp, #168]
    a9bc: 3f 00 00 71  	cmp	w1, #0
    a9c0: 0d 4d 00 54  	b.le	0xb360 <__bpf_object__open.part.0+0x1790>
    a9c4: 00 00 00 90  	adrp	x0, 0xa000 <__bpf_object__open.part.0+0xdf4>
    a9c8: 00 00 00 91  	add	x0, x0, #0
    a9cc: e0 7f 00 f9  	str	x0, [sp, #248]
    a9d0: e0 43 40 f9  	ldr	x0, [sp, #128]
    a9d4: 97 a3 40 f9  	ldr	x23, [x28, #320]
    a9d8: f7 02 00 8b  	add	x23, x23, x0
    a9dc: e0 06 40 b9  	ldr	w0, [x23, #4]
    a9e0: e2 22 40 f9  	ldr	x2, [x23, #64]
    a9e4: e2 4f 00 f9  	str	x2, [sp, #152]
    a9e8: f4 2e 40 b9  	ldr	w20, [x23, #44]
    a9ec: 1f 24 00 71  	cmp	w0, #9
    a9f0: c1 81 00 54  	b.ne	0xba28 <__bpf_object__open.part.0+0x1e58>
    a9f4: 80 6f 41 b9  	ldr	w0, [x28, #364]
    a9f8: 9f 02 00 6b  	cmp	w20, w0
    a9fc: 00 34 00 54  	b.eq	0xb07c <__bpf_object__open.part.0+0x14ac>
    aa00: 80 53 41 b9  	ldr	w0, [x28, #336]
    aa04: 9f 02 00 6b  	cmp	w20, w0
    aa08: 40 26 00 54  	b.eq	0xaed0 <__bpf_object__open.part.0+0x1300>
    aa0c: 80 63 40 f9  	ldr	x0, [x28, #192]
    aa10: f4 03 14 2a  	mov	w20, w20
    aa14: 82 87 40 f9  	ldr	x2, [x28, #264]
    aa18: e1 03 14 aa  	mov	x1, x20
    aa1c: e2 47 00 f9  	str	x2, [sp, #136]
    aa20: 00 00 00 94  	bl	0xaa20 <__bpf_object__open.part.0+0xe50>
    aa24: f3 03 00 aa  	mov	x19, x0
    aa28: 00 84 00 b4  	cbz	x0, 0xbaa8 <__bpf_object__open.part.0+0x1ed8>
    aa2c: e1 03 13 aa  	mov	x1, x19
    aa30: e0 03 1c aa  	mov	x0, x28
    aa34: 8b e8 ff 97  	bl	0x4c60 <elf_sec_data>
    aa38: f5 03 00 aa  	mov	x21, x0
    aa3c: 80 63 40 f9  	ldr	x0, [x28, #192]
    aa40: 81 9b 40 f9  	ldr	x1, [x28, #304]
    aa44: f9 02 40 b9  	ldr	w25, [x23]
    aa48: e2 03 19 aa  	mov	x2, x25
    aa4c: 00 00 00 94  	bl	0xaa4c <__bpf_object__open.part.0+0xe7c>
    aa50: f8 03 00 aa  	mov	x24, x0
    aa54: e0 83 00 b4  	cbz	x0, 0xbad0 <__bpf_object__open.part.0+0x1f00>
    aa58: e1 03 13 aa  	mov	x1, x19
    aa5c: e0 03 1c aa  	mov	x0, x28
    aa60: 40 e8 ff 97  	bl	0x4b60 <elf_sec_name>
    aa64: e0 73 00 f9  	str	x0, [sp, #224]
    aa68: 80 2e 00 b4  	cbz	x0, 0xb038 <__bpf_object__open.part.0+0x1468>
    aa6c: e4 73 40 f9  	ldr	x4, [sp, #224]
    aa70: 40 00 80 52  	mov	w0, #2
    aa74: e3 03 14 aa  	mov	x3, x20
    aa78: e2 03 18 aa  	mov	x2, x24
    aa7c: 01 00 00 90  	adrp	x1, 0xa000 <__bpf_object__open.part.0+0xeac>
    aa80: 21 00 00 91  	add	x1, x1, #0
    aa84: 00 00 00 94  	bl	0xaa84 <__bpf_object__open.part.0+0xeb4>
    aa88: e0 12 40 f9  	ldr	x0, [x23, #32]
    aa8c: e1 1e 40 f9  	ldr	x1, [x23, #56]
    aa90: 00 08 c1 9a  	udiv	x0, x0, x1
    aa94: e0 a3 00 b9  	str	w0, [sp, #160]
    aa98: 1f 00 00 71  	cmp	w0, #0
    aa9c: 0d 45 00 54  	b.le	0xb33c <__bpf_object__open.part.0+0x176c>
    aaa0: 00 00 00 90  	adrp	x0, 0xa000 <__bpf_object__open.part.0+0xed0>
    aaa4: 00 00 00 91  	add	x0, x0, #0
    aaa8: e1 63 04 91  	add	x1, sp, #280
    aaac: f9 03 14 aa  	mov	x25, x20
    aab0: fb 03 15 aa  	mov	x27, x21
    aab4: 17 00 80 52  	mov	w23, #0
    aab8: e1 3f 00 f9  	str	x1, [sp, #120]
    aabc: e0 7b 00 f9  	str	x0, [sp, #240]
    aac0: e0 63 05 91  	add	x0, sp, #344
    aac4: e0 4b 00 f9  	str	x0, [sp, #144]
    aac8: fa 4f 40 f9  	ldr	x26, [sp, #152]
    aacc: 21 00 00 14  	b	0xab50 <__bpf_object__open.part.0+0xf80>
    aad0: 1f 14 02 71  	cmp	w0, #133
    aad4: 80 f1 00 54  	b.eq	0xc904 <__bpf_object__open.part.0+0x2d34>
    aad8: ca 04 00 51  	sub	w10, w6, #1
    aadc: c0 df 9f 52  	mov	w0, #65278
    aae0: 5f 01 00 6b  	cmp	w10, w0
    aae4: 88 b9 00 54  	b.hi	0xc214 <__bpf_object__open.part.0+0x2644>
    aae8: 60 5a 41 b9  	ldr	w0, [x19, #344]
    aaec: 1f 00 06 6b  	cmp	w0, w6
    aaf0: 81 17 00 54  	b.ne	0xade0 <__bpf_object__open.part.0+0x1210>
    aaf4: 42 0c 00 12  	and	w2, w2, #0xf
    aaf8: 7f 00 00 71  	cmp	w3, #0
    aafc: 40 08 43 7a  	ccmp	w2, #3, #0, eq
    ab00: 80 00 00 54  	b.eq	0xab10 <__bpf_object__open.part.0+0xf40>
    ab04: 7f 04 00 71  	cmp	w3, #1
    ab08: 40 08 42 7a  	ccmp	w2, #2, #0, eq
    ab0c: a1 16 00 54  	b.ne	0xade0 <__bpf_object__open.part.0+0x1210>
    ab10: e4 b3 40 f9  	ldr	x4, [sp, #352]
    ab14: 00 06 40 b9  	ldr	w0, [x16, #4]
    ab18: 9f 08 40 f2  	tst	x4, #0x7
    ab1c: e1 a9 00 54  	b.ne	0xc058 <__bpf_object__open.part.0+0x2488>
    ab20: 1f 08 40 f2  	tst	x0, #0x7
    ab24: a1 a9 00 54  	b.ne	0xc058 <__bpf_object__open.part.0+0x2488>
    ab28: a0 00 80 52  	mov	w0, #5
    ab2c: 20 69 2d b8  	str	w0, [x9, x13]
    ab30: 87 05 00 b9  	str	w7, [x12, #4]
    ab34: 84 0d 00 b9  	str	w4, [x12, #12]
    ab38: 21 04 00 11  	add	w1, w1, #1
    ab3c: a1 5a 00 b9  	str	w1, [x21, #88]
    ab40: e0 a3 40 b9  	ldr	w0, [sp, #160]
    ab44: f7 06 00 11  	add	w23, w23, #1
    ab48: 1f 00 17 6b  	cmp	w0, w23
    ab4c: 80 3f 00 54  	b.eq	0xb33c <__bpf_object__open.part.0+0x176c>
    ab50: e2 3f 40 f9  	ldr	x2, [sp, #120]
    ab54: e1 03 17 2a  	mov	w1, w23
    ab58: e0 03 1a aa  	mov	x0, x26
    ab5c: 00 00 00 94  	bl	0xab5c <__bpf_object__open.part.0+0xf8c>
    ab60: e0 73 00 b4  	cbz	x0, 0xb9dc <__bpf_object__open.part.0+0x1e0c>
    ab64: e0 8b 48 a9  	ldp	x0, x2, [sp, #136]
    ab68: e1 27 41 b9  	ldr	w1, [sp, #292]
    ab6c: 00 00 00 94  	bl	0xab6c <__bpf_object__open.part.0+0xf9c>
    ab70: 80 74 00 b4  	cbz	x0, 0xba00 <__bpf_object__open.part.0+0x1e30>
    ab74: f3 8f 40 f9  	ldr	x19, [sp, #280]
    ab78: 7f 0a 40 f2  	tst	x19, #0x7
    ab7c: c1 5c 00 54  	b.ne	0xb714 <__bpf_object__open.part.0+0x1b44>
    ab80: 60 0b 40 f9  	ldr	x0, [x27, #16]
    ab84: 7f 02 00 eb  	cmp	x19, x0
    ab88: 62 5c 00 54  	b.hs	0xb714 <__bpf_object__open.part.0+0x1b44>
    ab8c: e1 73 45 39  	ldrb	w1, [sp, #348]
    ab90: 73 fe 43 d3  	lsr	x19, x19, #3
    ab94: e2 5b 41 b9  	ldr	w2, [sp, #344]
    ab98: 21 0c 00 12  	and	w1, w1, #0xf
    ab9c: 80 63 40 f9  	ldr	x0, [x28, #192]
    aba0: 3f 0c 00 71  	cmp	w1, #3
    aba4: 41 00 00 54  	b.ne	0xabac <__bpf_object__open.part.0+0xfdc>
    aba8: 62 09 00 34  	cbz	w2, 0xacd4 <__bpf_object__open.part.0+0x1104>
    abac: 81 9f 40 f9  	ldr	x1, [x28, #312]
    abb0: f4 03 02 2a  	mov	w20, w2
    abb4: e2 03 14 aa  	mov	x2, x20
    abb8: 00 00 00 94  	bl	0xabb8 <__bpf_object__open.part.0+0xfe8>
    abbc: f6 03 00 aa  	mov	x22, x0
    abc0: e0 61 00 b4  	cbz	x0, 0xb7fc <__bpf_object__open.part.0+0x1c2c>
    abc4: e5 03 16 aa  	mov	x5, x22
    abc8: e4 03 13 2a  	mov	w4, w19
    abcc: e3 03 17 2a  	mov	w3, w23
    abd0: e2 03 18 aa  	mov	x2, x24
    abd4: 40 00 80 52  	mov	w0, #2
    abd8: 01 00 00 90  	adrp	x1, 0xa000 <__bpf_object__open.part.0+0x1008>
    abdc: 21 00 00 91  	add	x1, x1, #0
    abe0: 00 00 00 94  	bl	0xabe0 <__bpf_object__open.part.0+0x1010>
    abe4: e2 03 13 2a  	mov	w2, w19
    abe8: e1 03 19 aa  	mov	x1, x25
    abec: e0 03 1c aa  	mov	x0, x28
    abf0: 51 d5 ff 97  	bl	0x134 <find_prog_by_sec_insn>
    abf4: f5 03 00 aa  	mov	x21, x0
    abf8: 00 23 00 b4  	cbz	x0, 0xb058 <__bpf_object__open.part.0+0x1488>
    abfc: 01 58 40 b9  	ldr	w1, [x0, #88]
    ac00: 00 28 40 f9  	ldr	x0, [x0, #80]
    ac04: 21 04 00 11  	add	w1, w1, #1
    ac08: 22 7c 40 93  	sxtw	x2, w1
    ac0c: 21 7c 7c 93  	sbfiz	x1, x1, #4, #32
    ac10: ff f3 42 eb  	cmp	xzr, x2, lsr #60
    ac14: f4 07 9f 9a  	cset	x20, ne
    ac18: 81 21 00 54  	b.ne	0xb048 <__bpf_object__open.part.0+0x1478>
    ac1c: 00 00 00 94  	bl	0xac1c <__bpf_object__open.part.0+0x104c>
    ac20: e9 03 00 aa  	mov	x9, x0
    ac24: 20 21 00 b4  	cbz	x0, 0xb048 <__bpf_object__open.part.0+0x1478>
    ac28: a7 0e 40 f9  	ldr	x7, [x21, #24]
    ac2c: a1 5a 40 b9  	ldr	w1, [x21, #88]
    ac30: 6a 02 07 4b  	sub	w10, w19, w7
    ac34: 67 02 07 4b  	sub	w7, w19, w7
    ac38: b3 3e 40 f9  	ldr	x19, [x21, #120]
    ac3c: 4a f1 7d d3  	lsl	x10, x10, #3
    ac40: ab 22 40 f9  	ldr	x11, [x21, #64]
    ac44: 2d 7c 7c 93  	sbfiz	x13, x1, #4, #32
    ac48: e6 bf 42 79  	ldrh	w6, [sp, #350]
    ac4c: 0c 00 0d 8b  	add	x12, x0, x13
    ac50: 72 3a 40 f9  	ldr	x18, [x19, #112]
    ac54: a0 2a 00 f9  	str	x0, [x21, #80]
    ac58: e4 03 06 2a  	mov	w4, w6
    ac5c: 70 01 0a 8b  	add	x16, x11, x10
    ac60: 60 69 6a 38  	ldrb	w0, [x11, x10]
    ac64: 1f 14 02 71  	cmp	w0, #133
    ac68: 04 18 58 7a  	ccmp	w0, #24, #4, ne
    ac6c: 41 82 00 54  	b.ne	0xbcb4 <__bpf_object__open.part.0+0x20e4>
    ac70: e2 73 45 39  	ldrb	w2, [sp, #348]
    ac74: 43 7c 04 53  	lsr	w3, w2, #4
    ac78: c6 f2 ff 35  	cbnz	w6, 0xaad0 <__bpf_object__open.part.0+0xf00>
    ac7c: 63 04 00 51  	sub	w3, w3, #1
    ac80: 7f 04 00 71  	cmp	w3, #1
    ac84: 29 04 00 54  	b.ls	0xad08 <__bpf_object__open.part.0+0x1138>
    ac88: fa 03 14 aa  	mov	x26, x20
    ac8c: fb 03 16 aa  	mov	x27, x22
    ac90: f9 03 15 aa  	mov	x25, x21
    ac94: 04 00 80 52  	mov	w4, #0
    ac98: 1f 14 02 71  	cmp	w0, #133
    ac9c: 01 ac 00 54  	b.ne	0xc21c <__bpf_object__open.part.0+0x264c>
    aca0: 00 06 40 39  	ldrb	w0, [x16, #1]
    aca4: 00 0c 1c 12  	and	w0, w0, #0xf0
    aca8: 1f 40 00 71  	cmp	w0, #16
    acac: 00 9b 00 54  	b.eq	0xc00c <__bpf_object__open.part.0+0x243c>
    acb0: 22 1b 40 f9  	ldr	x2, [x25, #48]
    acb4: 01 00 00 90  	adrp	x1, 0xa000 <__bpf_object__open.part.0+0x10e4>
    acb8: 00 00 80 52  	mov	w0, #0
    acbc: 21 00 00 91  	add	x1, x1, #0
    acc0: 93 f4 81 92  	mov	x19, #-4005
    acc4: 00 00 00 94  	bl	0xacc4 <__bpf_object__open.part.0+0x10f4>
    acc8: f7 63 44 a9  	ldp	x23, x24, [sp, #64]
    accc: f9 6b 45 a9  	ldp	x25, x26, [sp, #80]
    acd0: 3a fc ff 17  	b	0x9db8 <__bpf_object__open.part.0+0x1e8>
    acd4: f5 bf 42 79  	ldrh	w21, [sp, #350]
    acd8: e1 03 15 aa  	mov	x1, x21
    acdc: 00 00 00 94  	bl	0xacdc <__bpf_object__open.part.0+0x110c>
    ace0: f4 03 00 aa  	mov	x20, x0
    ace4: 60 74 00 b4  	cbz	x0, 0xbb70 <__bpf_object__open.part.0+0x1fa0>
    ace8: e1 03 14 aa  	mov	x1, x20
    acec: e0 03 1c aa  	mov	x0, x28
    acf0: 9c e7 ff 97  	bl	0x4b60 <elf_sec_name>
    acf4: f6 03 00 aa  	mov	x22, x0
    acf8: 1f 00 00 f1  	cmp	x0, #0
    acfc: e0 7b 40 f9  	ldr	x0, [sp, #240]
    ad00: d6 12 80 9a  	csel	x22, x22, x0, ne
    ad04: b0 ff ff 17  	b	0xabc4 <__bpf_object__open.part.0+0xff4>
    ad08: 5f 0c 40 f2  	tst	x2, #0xf
    ad0c: e1 fb ff 54  	b.ne	0xac88 <__bpf_object__open.part.0+0x10b8>
    ad10: e5 27 41 b9  	ldr	w5, [sp, #292]
    ad14: 62 92 40 b9  	ldr	w2, [x19, #144]
    ad18: e4 03 05 2a  	mov	w4, w5
    ad1c: 5f 00 00 71  	cmp	w2, #0
    ad20: 8d 04 00 54  	b.le	0xadb0 <__bpf_object__open.part.0+0x11e0>
    ad24: 61 46 40 f9  	ldr	x1, [x19, #136]
    ad28: 13 00 80 52  	mov	w19, #0
    ad2c: 05 00 00 14  	b	0xad40 <__bpf_object__open.part.0+0x1170>
    ad30: 73 06 00 11  	add	w19, w19, #1
    ad34: 21 e0 00 91  	add	x1, x1, #56
    ad38: 5f 00 13 6b  	cmp	w2, w19
    ad3c: a0 03 00 54  	b.eq	0xadb0 <__bpf_object__open.part.0+0x11e0>
    ad40: 20 04 40 b9  	ldr	w0, [x1, #4]
    ad44: 9f 00 00 6b  	cmp	w4, w0
    ad48: 41 ff ff 54  	b.ne	0xad30 <__bpf_object__open.part.0+0x1160>
    ad4c: 24 08 40 f9  	ldr	x4, [x1, #16]
    ad50: e6 03 07 2a  	mov	w6, w7
    ad54: a2 1a 40 f9  	ldr	x2, [x21, #48]
    ad58: 40 00 80 52  	mov	w0, #2
    ad5c: e3 03 13 2a  	mov	w3, w19
    ad60: 01 00 00 90  	adrp	x1, 0xa000 <__bpf_object__open.part.0+0x1190>
    ad64: 21 00 00 91  	add	x1, x1, #0
    ad68: e7 9b 00 b9  	str	w7, [sp, #152]
    ad6c: eb ab 0b a9  	stp	x11, x10, [sp, #184]
    ad70: ed b3 0c a9  	stp	x13, x12, [sp, #200]
    ad74: e9 6f 00 f9  	str	x9, [sp, #216]
    ad78: 00 00 00 94  	bl	0xad78 <__bpf_object__open.part.0+0x11a8>
    ad7c: eb ab 4b a9  	ldp	x11, x10, [sp, #184]
    ad80: ed b3 4c a9  	ldp	x13, x12, [sp, #200]
    ad84: e9 6f 40 f9  	ldr	x9, [sp, #216]
    ad88: 60 69 6a 38  	ldrb	w0, [x11, x10]
    ad8c: a1 5a 40 b9  	ldr	w1, [x21, #88]
    ad90: 1f 14 02 71  	cmp	w0, #133
    ad94: e7 9b 40 b9  	ldr	w7, [sp, #152]
    ad98: e0 17 9f 1a  	cset	w0, eq
    ad9c: 00 0c 00 11  	add	w0, w0, #3
    ada0: 20 69 2d b8  	str	w0, [x9, x13]
    ada4: 87 05 00 b9  	str	w7, [x12, #4]
    ada8: 93 0d 00 b9  	str	w19, [x12, #12]
    adac: 63 ff ff 17  	b	0xab38 <__bpf_object__open.part.0+0xf68>
    adb0: f9 03 15 aa  	mov	x25, x21
    adb4: fb 03 16 aa  	mov	x27, x22
    adb8: e3 03 1b aa  	mov	x3, x27
    adbc: 01 00 00 90  	adrp	x1, 0xa000 <__bpf_object__open.part.0+0x11ec>
    adc0: 00 00 80 52  	mov	w0, #0
    adc4: 21 00 00 91  	add	x1, x1, #0
    adc8: 22 1b 40 f9  	ldr	x2, [x25, #48]
    adcc: 93 f4 81 92  	mov	x19, #-4005
    add0: 00 00 00 94  	bl	0xadd0 <__bpf_object__open.part.0+0x1200>
    add4: f7 63 44 a9  	ldp	x23, x24, [sp, #64]
    add8: f9 6b 45 a9  	ldp	x25, x26, [sp, #80]
    addc: f7 fb ff 17  	b	0x9db8 <__bpf_object__open.part.0+0x1e8>
    ade0: 61 62 41 b9  	ldr	w1, [x19, #352]
    ade4: c2 3c 40 92  	and	x2, x6, #0xffff
    ade8: 60 62 40 f9  	ldr	x0, [x19, #192]
    adec: 3f 00 06 6b  	cmp	w1, w6
    adf0: 00 3d 00 54  	b.eq	0xb590 <__bpf_object__open.part.0+0x19c0>
    adf4: 61 6a 41 b9  	ldr	w1, [x19, #360]
    adf8: 3f 00 06 6b  	cmp	w1, w6
    adfc: a0 64 00 54  	b.eq	0xba90 <__bpf_object__open.part.0+0x1ec0>
    ae00: 61 66 41 b9  	ldr	w1, [x19, #356]
    ae04: 3f 00 06 6b  	cmp	w1, w6
    ae08: a0 64 00 54  	b.eq	0xba9c <__bpf_object__open.part.0+0x1ecc>
    ae0c: 63 5e 41 b9  	ldr	w3, [x19, #348]
    ae10: e1 03 02 aa  	mov	x1, x2
    ae14: e2 27 0c a9  	stp	x2, x9, [sp, #192]
    ae18: 7f 00 06 6b  	cmp	w3, w6
    ae1c: e3 17 9f 1a  	cset	w3, eq
    ae20: e6 bb 00 b9  	str	w6, [sp, #184]
    ae24: ec 4b 0d a9  	stp	x12, x18, [sp, #208]
    ae28: 62 74 1e 53  	lsl	w2, w3, #2
    ae2c: e2 9b 00 b9  	str	w2, [sp, #152]
    ae30: ed 83 00 f9  	str	x13, [sp, #256]
    ae34: e7 0b 01 b9  	str	w7, [sp, #264]
    ae38: 00 00 00 94  	bl	0xae38 <__bpf_object__open.part.0+0x1268>
    ae3c: e6 bb 40 b9  	ldr	w6, [sp, #184]
    ae40: e1 03 00 aa  	mov	x1, x0
    ae44: e7 0b 41 b9  	ldr	w7, [sp, #264]
    ae48: e2 27 4c a9  	ldp	x2, x9, [sp, #192]
    ae4c: ec 4b 4d a9  	ldp	x12, x18, [sp, #208]
    ae50: ed 83 40 f9  	ldr	x13, [sp, #256]
    ae54: 60 70 00 b4  	cbz	x0, 0xbc60 <__bpf_object__open.part.0+0x2090>
    ae58: e0 03 13 aa  	mov	x0, x19
    ae5c: e9 b3 0b a9  	stp	x9, x12, [sp, #184]
    ae60: f2 b7 0c a9  	stp	x18, x13, [sp, #200]
    ae64: e6 db 00 b9  	str	w6, [sp, #216]
    ae68: e7 03 01 b9  	str	w7, [sp, #256]
    ae6c: 3d e7 ff 97  	bl	0x4b60 <elf_sec_name>
    ae70: e0 87 00 f9  	str	x0, [sp, #264]
    ae74: e0 9b 40 b9  	ldr	w0, [sp, #152]
    ae78: e6 db 40 b9  	ldr	w6, [sp, #216]
    ae7c: e7 03 41 b9  	ldr	w7, [sp, #256]
    ae80: e9 b3 4b a9  	ldp	x9, x12, [sp, #184]
    ae84: f2 b7 4c a9  	ldp	x18, x13, [sp, #200]
    ae88: a0 3b 00 35  	cbnz	w0, 0xb5fc <__bpf_object__open.part.0+0x1a2c>
    ae8c: 60 4e 41 b9  	ldr	w0, [x19, #332]
    ae90: 1f 00 06 6b  	cmp	w0, w6
    ae94: a0 46 00 54  	b.eq	0xb768 <__bpf_object__open.part.0+0x1b98>
    ae98: 60 52 41 b9  	ldr	w0, [x19, #336]
    ae9c: 1f 00 06 6b  	cmp	w0, w6
    aea0: 40 46 00 54  	b.eq	0xb768 <__bpf_object__open.part.0+0x1b98>
    aea4: a2 1a 40 f9  	ldr	x2, [x21, #48]
    aea8: e3 03 16 aa  	mov	x3, x22
    aeac: e4 87 40 f9  	ldr	x4, [sp, #264]
    aeb0: 01 00 00 90  	adrp	x1, 0xa000 <__bpf_object__open.part.0+0x12e0>
    aeb4: 00 00 80 52  	mov	w0, #0
    aeb8: 21 00 00 91  	add	x1, x1, #0
    aebc: 93 f4 81 92  	mov	x19, #-4005
    aec0: 00 00 00 94  	bl	0xaec0 <__bpf_object__open.part.0+0x12f0>
    aec4: f7 63 44 a9  	ldp	x23, x24, [sp, #64]
    aec8: f9 6b 45 a9  	ldp	x25, x26, [sp, #80]
    aecc: bb fb ff 17  	b	0x9db8 <__bpf_object__open.part.0+0x1e8>
    aed0: 81 57 41 b9  	ldr	w1, [x28, #340]
    aed4: 21 0b 00 34  	cbz	w1, 0xb038 <__bpf_object__open.part.0+0x1468>
    aed8: 80 c3 40 f9  	ldr	x0, [x28, #384]
    aedc: e0 0a 00 b4  	cbz	x0, 0xb038 <__bpf_object__open.part.0+0x1468>
    aee0: 00 00 00 94  	bl	0xaee0 <__bpf_object__open.part.0+0x1310>
    aee4: f3 03 00 aa  	mov	x19, x0
    aee8: 80 0a 00 b4  	cbz	x0, 0xb038 <__bpf_object__open.part.0+0x1468>
    aeec: e0 12 40 f9  	ldr	x0, [x23, #32]
    aef0: e1 1e 40 f9  	ldr	x1, [x23, #56]
    aef4: 9a 87 40 f9  	ldr	x26, [x28, #264]
    aef8: 00 08 c1 9a  	udiv	x0, x0, x1
    aefc: e0 8b 00 b9  	str	w0, [sp, #136]
    af00: 1f 00 00 71  	cmp	w0, #0
    af04: cd 21 00 54  	b.le	0xb33c <__bpf_object__open.part.0+0x176c>
    af08: 16 00 00 90  	adrp	x22, 0xa000 <__bpf_object__open.part.0+0x1338>
    af0c: f7 63 05 91  	add	x23, sp, #344
    af10: d6 02 00 91  	add	x22, x22, #0
    af14: e0 63 04 91  	add	x0, sp, #280
    af18: 18 00 80 52  	mov	w24, #0
    af1c: e0 3f 00 f9  	str	x0, [sp, #120]
    af20: e2 3f 40 f9  	ldr	x2, [sp, #120]
    af24: e1 03 18 2a  	mov	w1, w24
    af28: e0 4f 40 f9  	ldr	x0, [sp, #152]
    af2c: 00 00 00 94  	bl	0xaf2c <__bpf_object__open.part.0+0x135c>
    af30: 40 8c 00 b4  	cbz	x0, 0xc0b8 <__bpf_object__open.part.0+0x24e8>
    af34: e1 27 41 b9  	ldr	w1, [sp, #292]
    af38: e2 03 17 aa  	mov	x2, x23
    af3c: e0 03 1a aa  	mov	x0, x26
    af40: 00 00 00 94  	bl	0xaf40 <__bpf_object__open.part.0+0x1370>
    af44: a0 8c 00 b4  	cbz	x0, 0xc0d8 <__bpf_object__open.part.0+0x2508>
    af48: 80 63 40 f9  	ldr	x0, [x28, #192]
    af4c: 81 9f 40 f9  	ldr	x1, [x28, #312]
    af50: f5 5b 41 b9  	ldr	w21, [sp, #344]
    af54: e2 03 15 aa  	mov	x2, x21
    af58: 00 00 00 94  	bl	0xaf58 <__bpf_object__open.part.0+0x1388>
    af5c: f4 03 00 aa  	mov	x20, x0
    af60: 00 3f 00 b4  	cbz	x0, 0xb740 <__bpf_object__open.part.0+0x1b70>
    af64: e1 bf 42 79  	ldrh	w1, [sp, #350]
    af68: 80 53 41 b9  	ldr	w0, [x28, #336]
    af6c: 3f 00 00 6b  	cmp	w1, w0
    af70: 01 89 00 54  	b.ne	0xc090 <__bpf_object__open.part.0+0x24c0>
    af74: e3 27 41 b9  	ldr	w3, [sp, #292]
    af78: e7 03 14 aa  	mov	x7, x20
    af7c: e6 5b 41 b9  	ldr	w6, [sp, #344]
    af80: e2 03 18 2a  	mov	w2, w24
    af84: e5 8f 40 f9  	ldr	x5, [sp, #280]
    af88: 01 00 00 90  	adrp	x1, 0xa000 <__bpf_object__open.part.0+0x13b8>
    af8c: e4 b3 40 f9  	ldr	x4, [sp, #352]
    af90: 21 00 00 91  	add	x1, x1, #0
    af94: 40 00 80 52  	mov	w0, #2
    af98: 00 00 00 94  	bl	0xaf98 <__bpf_object__open.part.0+0x13c8>
    af9c: 85 3b 40 f9  	ldr	x5, [x28, #112]
    afa0: e4 8f 40 f9  	ldr	x4, [sp, #280]
    afa4: e5 02 00 b4  	cbz	x5, 0xb000 <__bpf_object__open.part.0+0x1430>
    afa8: 86 53 41 b9  	ldr	w6, [x28, #336]
    afac: 88 20 00 91  	add	x8, x4, #8
    afb0: 99 37 40 f9  	ldr	x25, [x28, #104]
    afb4: 01 00 80 d2  	mov	x1, #0
    afb8: 20 0f 40 b9  	ldr	w0, [x25, #12]
    afbc: 1f 00 06 6b  	cmp	w0, w6
    afc0: 81 01 00 54  	b.ne	0xaff0 <__bpf_object__open.part.0+0x1420>
    afc4: 20 3b 40 b9  	ldr	w0, [x25, #56]
    afc8: 00 04 00 91  	add	x0, x0, #1
    afcc: 00 04 00 8b  	add	x0, x0, x0, lsl #1
    afd0: 7b 0a 00 8b  	add	x27, x19, x0, lsl #2
    afd4: 60 07 40 b9  	ldr	w0, [x27, #4]
    afd8: 9f 40 20 eb  	cmp	x4, w0, uxtw
    afdc: a3 00 00 54  	b.lo	0xaff0 <__bpf_object__open.part.0+0x1420>
    afe0: 67 0b 40 b9  	ldr	w7, [x27, #8]
    afe4: 00 00 07 0b  	add	w0, w0, w7
    afe8: 1f 01 00 eb  	cmp	x8, x0
    afec: e9 01 00 54  	b.ls	0xb028 <__bpf_object__open.part.0+0x1458>
    aff0: 21 04 00 91  	add	x1, x1, #1
    aff4: 39 63 02 91  	add	x25, x25, #152
    aff8: bf 00 01 eb  	cmp	x5, x1
    affc: e1 fd ff 54  	b.ne	0xafb8 <__bpf_object__open.part.0+0x13e8>
    b000: e2 03 18 2a  	mov	w2, w24
    b004: e3 03 14 aa  	mov	x3, x20
    b008: 01 00 00 90  	adrp	x1, 0xb000 <__bpf_object__open.part.0+0x1438>
    b00c: 00 00 80 52  	mov	w0, #0
    b010: 21 00 00 91  	add	x1, x1, #0
    b014: b3 02 80 92  	mov	x19, #-22
    b018: 00 00 00 94  	bl	0xb018 <__bpf_object__open.part.0+0x1448>
    b01c: f7 63 44 a9  	ldp	x23, x24, [sp, #64]
    b020: f9 6b 45 a9  	ldp	x25, x26, [sp, #80]
    b024: 65 fb ff 17  	b	0x9db8 <__bpf_object__open.part.0+0x1e8>
    b028: 20 23 40 b9  	ldr	w0, [x25, #32]
    b02c: 01 30 00 51  	sub	w1, w0, #12
    b030: 3f 04 00 71  	cmp	w1, #1
    b034: 89 3f 00 54  	b.ls	0xb824 <__bpf_object__open.part.0+0x1c54>
    b038: b3 02 80 92  	mov	x19, #-22
    b03c: f7 63 44 a9  	ldp	x23, x24, [sp, #64]
    b040: f9 6b 45 a9  	ldp	x25, x26, [sp, #80]
    b044: 5d fb ff 17  	b	0x9db8 <__bpf_object__open.part.0+0x1e8>
    b048: 73 01 80 92  	mov	x19, #-12
    b04c: f7 63 44 a9  	ldp	x23, x24, [sp, #64]
    b050: f9 6b 45 a9  	ldp	x25, x26, [sp, #80]
    b054: 59 fb ff 17  	b	0x9db8 <__bpf_object__open.part.0+0x1e8>
    b058: e4 73 40 f9  	ldr	x4, [sp, #224]
    b05c: e5 03 13 2a  	mov	w5, w19
    b060: e3 03 17 2a  	mov	w3, w23
    b064: e2 03 18 aa  	mov	x2, x24
    b068: 01 00 00 90  	adrp	x1, 0xb000 <__bpf_object__open.part.0+0x1498>
    b06c: 40 00 80 52  	mov	w0, #2
    b070: 21 00 00 91  	add	x1, x1, #0
    b074: 00 00 00 94  	bl	0xb074 <__bpf_object__open.part.0+0x14a4>
    b078: b2 fe ff 17  	b	0xab40 <__bpf_object__open.part.0+0xf70>
    b07c: e0 12 40 f9  	ldr	x0, [x23, #32]
    b080: e2 1e 40 f9  	ldr	x2, [x23, #56]
    b084: 83 87 40 f9  	ldr	x3, [x28, #264]
    b088: e3 53 00 f9  	str	x3, [sp, #160]
    b08c: 00 08 c2 9a  	udiv	x0, x0, x2
    b090: 93 c3 40 f9  	ldr	x19, [x28, #384]
    b094: e0 bb 00 b9  	str	w0, [sp, #184]
    b098: 1f 00 00 71  	cmp	w0, #0
    b09c: 2d 15 00 54  	b.le	0xb340 <__bpf_object__open.part.0+0x1770>
    b0a0: 1a 00 00 90  	adrp	x26, 0xb000 <__bpf_object__open.part.0+0x14d0>
    b0a4: e0 63 04 91  	add	x0, sp, #280
    b0a8: 41 03 00 91  	add	x1, x26, #0
    b0ac: fa 03 00 aa  	mov	x26, x0
    b0b0: 19 00 80 52  	mov	w25, #0
    b0b4: e1 63 00 f9  	str	x1, [sp, #192]
    b0b8: e0 4f 40 f9  	ldr	x0, [sp, #152]
    b0bc: e2 03 1a aa  	mov	x2, x26
    b0c0: e1 03 19 2a  	mov	w1, w25
    b0c4: 00 00 00 94  	bl	0xb0c4 <__bpf_object__open.part.0+0x14f4>
    b0c8: 40 54 00 b4  	cbz	x0, 0xbb50 <__bpf_object__open.part.0+0x1f80>
    b0cc: e1 27 41 b9  	ldr	w1, [sp, #292]
    b0d0: e2 63 05 91  	add	x2, sp, #344
    b0d4: e0 53 40 f9  	ldr	x0, [sp, #160]
    b0d8: 00 00 00 94  	bl	0xb0d8 <__bpf_object__open.part.0+0x1508>
    b0dc: a0 52 00 b4  	cbz	x0, 0xbb30 <__bpf_object__open.part.0+0x1f60>
    b0e0: 80 63 40 f9  	ldr	x0, [x28, #192]
    b0e4: 81 9f 40 f9  	ldr	x1, [x28, #312]
    b0e8: f4 5b 41 b9  	ldr	w20, [sp, #344]
    b0ec: e2 03 14 aa  	mov	x2, x20
    b0f0: 00 00 00 94  	bl	0xb0f0 <__bpf_object__open.part.0+0x1520>
    b0f4: e0 22 00 b4  	cbz	x0, 0xb550 <__bpf_object__open.part.0+0x1980>
    b0f8: 83 3b 40 f9  	ldr	x3, [x28, #112]
    b0fc: e6 8f 40 f9  	ldr	x6, [sp, #280]
    b100: 43 02 00 b4  	cbz	x3, 0xb148 <__bpf_object__open.part.0+0x1578>
    b104: 97 37 40 f9  	ldr	x23, [x28, #104]
    b108: 01 00 80 d2  	mov	x1, #0
    b10c: 1f 20 03 d5  	nop
    b110: e2 22 40 b9  	ldr	w2, [x23, #32]
    b114: 5f 68 00 71  	cmp	w2, #26
    b118: 01 01 00 54  	b.ne	0xb138 <__bpf_object__open.part.0+0x1568>
    b11c: e7 0a 40 f9  	ldr	x7, [x23, #16]
    b120: df 00 07 eb  	cmp	x6, x7
    b124: a3 00 00 54  	b.lo	0xb138 <__bpf_object__open.part.0+0x1568>
    b128: e2 2a 40 b9  	ldr	w2, [x23, #40]
    b12c: c4 00 07 cb  	sub	x4, x6, x7
    b130: 9f 00 02 eb  	cmp	x4, x2
    b134: c3 01 00 54  	b.lo	0xb16c <__bpf_object__open.part.0+0x159c>
    b138: 21 04 00 91  	add	x1, x1, #1
    b13c: f7 62 02 91  	add	x23, x23, #152
    b140: 3f 00 03 eb  	cmp	x1, x3
    b144: 61 fe ff 54  	b.ne	0xb110 <__bpf_object__open.part.0+0x1540>
    b148: e2 03 06 aa  	mov	x2, x6
    b14c: 01 00 00 90  	adrp	x1, 0xb000 <__bpf_object__open.part.0+0x157c>
    b150: 00 00 80 52  	mov	w0, #0
    b154: 21 00 00 91  	add	x1, x1, #0
    b158: b3 02 80 92  	mov	x19, #-22
    b15c: 00 00 00 94  	bl	0xb15c <__bpf_object__open.part.0+0x158c>
    b160: f7 63 44 a9  	ldp	x23, x24, [sp, #64]
    b164: f9 6b 45 a9  	ldp	x25, x26, [sp, #80]
    b168: 14 fb ff 17  	b	0x9db8 <__bpf_object__open.part.0+0x1e8>
    b16c: e3 27 41 b9  	ldr	w3, [sp, #292]
    b170: d4 00 07 4b  	sub	w20, w6, w7
    b174: e2 02 40 f9  	ldr	x2, [x23]
    b178: 01 00 00 90  	adrp	x1, 0xb000 <__bpf_object__open.part.0+0x15a8>
    b17c: e4 b3 40 f9  	ldr	x4, [sp, #352]
    b180: 21 00 00 91  	add	x1, x1, #0
    b184: e5 5b 41 b9  	ldr	w5, [sp, #344]
    b188: f8 bf 42 79  	ldrh	w24, [sp, #350]
    b18c: f6 36 40 f9  	ldr	x22, [x23, #104]
    b190: e5 03 00 b9  	str	w5, [sp]
    b194: e0 07 00 f9  	str	x0, [sp, #8]
    b198: e5 03 18 2a  	mov	w5, w24
    b19c: 40 00 80 52  	mov	w0, #2
    b1a0: 00 00 00 94  	bl	0xb1a0 <__bpf_object__open.part.0+0x15d0>
    b1a4: e0 df 9f 52  	mov	w0, #65279
    b1a8: 1f 03 00 6b  	cmp	w24, w0
    b1ac: c8 4a 00 54  	b.hi	0xbb04 <__bpf_object__open.part.0+0x1f34>
    b1b0: f5 b3 40 f9  	ldr	x21, [sp, #352]
    b1b4: bf 0a 40 f2  	tst	x21, #0x7
    b1b8: 01 4f 00 54  	b.ne	0xbb98 <__bpf_object__open.part.0+0x1fc8>
    b1bc: c1 06 40 f9  	ldr	x1, [x22, #8]
    b1c0: b5 fe 43 d3  	lsr	x21, x21, #3
    b1c4: 84 72 1d 53  	lsl	w4, w20, #3
    b1c8: 25 30 00 91  	add	x5, x1, #12
    b1cc: 23 04 40 b9  	ldr	w3, [x1, #4]
    b1d0: 60 3c 00 72  	ands	w0, w3, #0xffff
    b1d4: c0 17 00 54  	b.eq	0xb4cc <__bpf_object__open.part.0+0x18fc>
    b1d8: 02 04 00 51  	sub	w2, w0, #1
    b1dc: 80 01 80 52  	mov	w0, #12
    b1e0: 63 7c 1f 53  	lsr	w3, w3, #31
    b1e4: fb 03 05 aa  	mov	x27, x5
    b1e8: 42 04 a0 9b  	umaddl	x2, w2, w0, x1
    b1ec: 42 60 00 91  	add	x2, x2, #24
    b1f0: 04 00 00 14  	b	0xb200 <__bpf_object__open.part.0+0x1630>
    b1f4: 7b 33 00 91  	add	x27, x27, #12
    b1f8: 5f 00 1b eb  	cmp	x2, x27
    b1fc: 80 16 00 54  	b.eq	0xb4cc <__bpf_object__open.part.0+0x18fc>
    b200: 60 0b 40 b9  	ldr	w0, [x27, #8]
    b204: 7f 00 00 71  	cmp	w3, #0
    b208: 01 5c 00 12  	and	w1, w0, #0xffffff
    b20c: 20 10 80 1a  	csel	w0, w1, w0, ne
    b210: 9f 00 00 6b  	cmp	w4, w0
    b214: 01 ff ff 54  	b.ne	0xb1f4 <__bpf_object__open.part.0+0x1624>
    b218: 74 03 05 cb  	sub	x20, x27, x5
    b21c: 61 03 40 b9  	ldr	w1, [x27]
    b220: e2 f3 01 b2  	mov	x2, #-6148914691236517206
    b224: e0 03 13 aa  	mov	x0, x19
    b228: 94 fe 42 93  	asr	x20, x20, #2
    b22c: 62 55 95 f2  	movk	x2, #43691
    b230: 94 7e 02 9b  	mul	x20, x20, x2
    b234: 00 00 00 94  	bl	0xb234 <__bpf_object__open.part.0+0x1664>
    b238: 61 07 40 b9  	ldr	w1, [x27, #4]
    b23c: fb 03 00 aa  	mov	x27, x0
    b240: 02 00 00 14  	b	0xb248 <__bpf_object__open.part.0+0x1678>
    b244: 01 08 40 b9  	ldr	w1, [x0, #8]
    b248: e0 03 13 aa  	mov	x0, x19
    b24c: 00 00 00 94  	bl	0xb24c <__bpf_object__open.part.0+0x167c>
    b250: 01 1c 40 39  	ldrb	w1, [x0, #7]
    b254: 21 10 00 12  	and	w1, w1, #0x1f
    b258: 22 20 00 51  	sub	w2, w1, #8
    b25c: 42 3c 00 12  	and	w2, w2, #0xffff
    b260: 5f 0c 00 71  	cmp	w2, #3
    b264: 09 ff ff 54  	b.ls	0xb244 <__bpf_object__open.part.0+0x1674>
    b268: 3f 08 00 71  	cmp	w1, #2
    b26c: c1 11 00 54  	b.ne	0xb4a4 <__bpf_object__open.part.0+0x18d4>
    b270: 01 08 40 b9  	ldr	w1, [x0, #8]
    b274: e0 03 13 aa  	mov	x0, x19
    b278: 00 00 00 94  	bl	0xb278 <__bpf_object__open.part.0+0x16a8>
    b27c: 01 1c 40 39  	ldrb	w1, [x0, #7]
    b280: 21 10 00 12  	and	w1, w1, #0x1f
    b284: 22 20 00 51  	sub	w2, w1, #8
    b288: 42 3c 00 12  	and	w2, w2, #0xffff
    b28c: 5f 0c 00 71  	cmp	w2, #3
    b290: 09 ff ff 54  	b.ls	0xb270 <__bpf_object__open.part.0+0x16a0>
    b294: 3f 34 00 71  	cmp	w1, #13
    b298: 61 10 00 54  	b.ne	0xb4a4 <__bpf_object__open.part.0+0x18d4>
    b29c: e2 03 15 2a  	mov	w2, w21
    b2a0: 01 3f 40 92  	and	x1, x24, #0xffff
    b2a4: e0 03 1c aa  	mov	x0, x28
    b2a8: a3 d3 ff 97  	bl	0x134 <find_prog_by_sec_insn>
    b2ac: e3 03 00 aa  	mov	x3, x0
    b2b0: 80 48 00 b4  	cbz	x0, 0xbbc0 <__bpf_object__open.part.0+0x1ff0>
    b2b4: 05 94 40 b9  	ldr	w5, [x0, #148]
    b2b8: e5 11 00 35  	cbnz	w5, 0xb4f4 <__bpf_object__open.part.0+0x1924>
    b2bc: 05 00 00 90  	adrp	x5, 0xb000 <__bpf_object__open.part.0+0x16ec>
    b2c0: b5 00 00 91  	add	x21, x5, #0
    b2c4: 04 04 40 f9  	ldr	x4, [x0, #8]
    b2c8: 01 00 00 90  	adrp	x1, 0xb000 <__bpf_object__open.part.0+0x16f8>
    b2cc: b5 a2 00 91  	add	x21, x21, #40
    b2d0: 21 00 00 91  	add	x1, x1, #0
    b2d4: 18 00 80 52  	mov	w24, #0
    b2d8: c2 00 80 d2  	mov	x2, #6
    b2dc: e0 03 04 aa  	mov	x0, x4
    b2e0: e4 3f 00 f9  	str	x4, [sp, #120]
    b2e4: e3 97 08 a9  	stp	x3, x5, [sp, #136]
    b2e8: 00 00 00 94  	bl	0xb2e8 <__bpf_object__open.part.0+0x1718>
    b2ec: e4 3f 40 f9  	ldr	x4, [sp, #120]
    b2f0: e3 97 48 a9  	ldp	x3, x5, [sp, #136]
    b2f4: 20 14 00 35  	cbnz	w0, 0xb578 <__bpf_object__open.part.0+0x19a8>
    b2f8: 00 7f 7e 93  	sbfiz	x0, x24, #2, #32
    b2fc: a5 00 00 91  	add	x5, x5, #0
    b300: 00 c0 38 8b  	add	x0, x0, w24, sxtw
    b304: a0 0c 00 8b  	add	x0, x5, x0, lsl #3
    b308: 05 10 40 b9  	ldr	w5, [x0, #16]
    b30c: bf 6c 00 71  	cmp	w5, #27
    b310: 61 6f 00 54  	b.ne	0xc0fc <__bpf_object__open.part.0+0x252c>
    b314: c0 32 40 b9  	ldr	w0, [x22, #48]
    b318: 61 03 80 52  	mov	w1, #27
    b31c: 61 d0 12 29  	stp	w1, w20, [x3, #148]
    b320: 60 a4 00 b9  	str	w0, [x3, #164]
    b324: c0 0a 40 f9  	ldr	x0, [x22, #16]
    b328: 39 07 00 11  	add	w25, w25, #1
    b32c: 03 58 34 f8  	str	x3, [x0, w20, uxtw #3]
    b330: e0 bb 40 b9  	ldr	w0, [sp, #184]
    b334: 1f 00 19 6b  	cmp	w0, w25
    b338: 01 ec ff 54  	b.ne	0xb0b8 <__bpf_object__open.part.0+0x14e8>
    b33c: 81 4b 41 b9  	ldr	w1, [x28, #328]
    b340: e2 43 40 f9  	ldr	x2, [sp, #128]
    b344: e0 ab 40 b9  	ldr	w0, [sp, #168]
    b348: 42 20 01 91  	add	x2, x2, #72
    b34c: e2 43 00 f9  	str	x2, [sp, #128]
    b350: 00 04 00 11  	add	w0, w0, #1
    b354: e0 ab 00 b9  	str	w0, [sp, #168]
    b358: 1f 00 01 6b  	cmp	w0, w1
    b35c: ab b3 ff 54  	b.lt	0xa9d0 <__bpf_object__open.part.0+0xe00>
    b360: 82 33 40 f9  	ldr	x2, [x28, #96]
    b364: 15 00 00 90  	adrp	x21, 0xb000 <__bpf_object__open.part.0+0x1794>
    b368: 14 00 80 d2  	mov	x20, #0
    b36c: b5 02 00 91  	add	x21, x21, #0
    b370: 13 00 80 d2  	mov	x19, #0
    b374: e2 01 00 b4  	cbz	x2, 0xb3b0 <__bpf_object__open.part.0+0x17e0>
    b378: 80 2f 40 f9  	ldr	x0, [x28, #88]
    b37c: 00 00 14 8b  	add	x0, x0, x20
    b380: 01 58 40 b9  	ldr	w1, [x0, #88]
    b384: e1 00 00 34  	cbz	w1, 0xb3a0 <__bpf_object__open.part.0+0x17d0>
    b388: 00 28 40 f9  	ldr	x0, [x0, #80]
    b38c: 02 02 80 d2  	mov	x2, #16
    b390: 21 7c 40 93  	sxtw	x1, w1
    b394: e3 03 15 aa  	mov	x3, x21
    b398: 00 00 00 94  	bl	0xb398 <__bpf_object__open.part.0+0x17c8>
    b39c: 82 33 40 f9  	ldr	x2, [x28, #96]
    b3a0: 73 06 00 91  	add	x19, x19, #1
    b3a4: 94 62 03 91  	add	x20, x20, #216
    b3a8: 7f 02 02 eb  	cmp	x19, x2
    b3ac: 63 fe ff 54  	b.lo	0xb378 <__bpf_object__open.part.0+0x17a8>
    b3b0: e0 03 1c aa  	mov	x0, x28
    b3b4: 6f d5 ff 97  	bl	0x970 <bpf_object__elf_finish>
    b3b8: e1 03 1c aa  	mov	x1, x28
    b3bc: 00 00 80 d2  	mov	x0, #0
    b3c0: 14 00 00 90  	adrp	x20, 0xb000 <__bpf_object__open.part.0+0x17f0>
    b3c4: 00 00 00 94  	bl	0xb3c4 <__bpf_object__open.part.0+0x17f4>
    b3c8: 15 00 00 90  	adrp	x21, 0xb000 <__bpf_object__open.part.0+0x17f8>
    b3cc: f9 03 00 aa  	mov	x25, x0
    b3d0: 80 05 00 b4  	cbz	x0, 0xb480 <__bpf_object__open.part.0+0x18b0>
    b3d4: f7 5b 40 f9  	ldr	x23, [sp, #176]
    b3d8: 16 00 00 90  	adrp	x22, 0xb000 <__bpf_object__open.part.0+0x1808>
    b3dc: 94 02 00 91  	add	x20, x20, #0
    b3e0: b5 02 00 91  	add	x21, x21, #0
    b3e4: d6 02 00 91  	add	x22, x22, #0
    b3e8: 3a 07 40 f9  	ldr	x26, [x25, #8]
    b3ec: 98 a2 00 91  	add	x24, x20, #40
    b3f0: e1 03 15 aa  	mov	x1, x21
    b3f4: 13 00 80 52  	mov	w19, #0
    b3f8: c2 00 80 d2  	mov	x2, #6
    b3fc: e0 03 1a aa  	mov	x0, x26
    b400: 00 00 00 94  	bl	0xb400 <__bpf_object__open.part.0+0x1830>
    b404: 40 04 00 35  	cbnz	w0, 0xb48c <__bpf_object__open.part.0+0x18bc>
    b408: 60 7e 40 93  	sxtw	x0, w19
    b40c: 02 05 80 52  	mov	w2, #40
    b410: 01 c8 33 8b  	add	x1, x0, w19, sxtw #2
    b414: 73 52 22 9b  	smaddl	x19, w19, w2, x20
    b418: 81 0e 01 8b  	add	x1, x20, x1, lsl #3
    b41c: 33 03 00 f9  	str	x19, [x25]
    b420: 21 6c 40 39  	ldrb	w1, [x1, #27]
    b424: 81 00 00 34  	cbz	w1, 0xb434 <__bpf_object__open.part.0+0x1864>
    b428: 21 d3 40 b9  	ldr	w1, [x25, #208]
    b42c: 21 00 1c 32  	orr	w1, w1, #0x10
    b430: 21 d3 00 b9  	str	w1, [x25, #208]
    b434: 00 08 00 8b  	add	x0, x0, x0, lsl #2
    b438: 80 0e 00 8b  	add	x0, x20, x0, lsl #3
    b43c: 01 10 40 b9  	ldr	w1, [x0, #16]
    b440: 00 08 40 f9  	ldr	x0, [x0, #16]
    b444: 20 43 09 f8  	stur	x0, [x25, #148]
    b448: 20 68 00 51  	sub	w0, w1, #26
    b44c: 00 78 1e 72  	ands	w0, w0, #0xfffffffd
    b450: e1 00 00 54  	b.ne	0xb46c <__bpf_object__open.part.0+0x189c>
    b454: b7 00 00 b4  	cbz	x23, 0xb468 <__bpf_object__open.part.0+0x1898>
    b458: e1 02 40 f9  	ldr	x1, [x23]
    b45c: 3f 8c 00 f1  	cmp	x1, #35
    b460: 49 00 00 54  	b.ls	0xb468 <__bpf_object__open.part.0+0x1898>
    b464: e0 22 40 b9  	ldr	w0, [x23, #32]
    b468: 20 ab 00 b9  	str	w0, [x25, #168]
    b46c: e0 03 19 aa  	mov	x0, x25
    b470: e1 03 1c aa  	mov	x1, x28
    b474: 00 00 00 94  	bl	0xb474 <__bpf_object__open.part.0+0x18a4>
    b478: f9 03 00 aa  	mov	x25, x0
    b47c: 60 fb ff b5  	cbnz	x0, 0xb3e8 <__bpf_object__open.part.0+0x1818>
    b480: f7 63 44 a9  	ldp	x23, x24, [sp, #64]
    b484: f9 6b 45 a9  	ldp	x25, x26, [sp, #80]
    b488: 4f fa ff 17  	b	0x9dc4 <__bpf_object__open.part.0+0x1f4>
    b48c: 73 06 00 11  	add	w19, w19, #1
    b490: 7f 0a 01 71  	cmp	w19, #66
    b494: a0 0d 00 54  	b.eq	0xb648 <__bpf_object__open.part.0+0x1a78>
    b498: 01 0b 40 a9  	ldp	x1, x2, [x24]
    b49c: 18 a3 00 91  	add	x24, x24, #40
    b4a0: d7 ff ff 17  	b	0xb3fc <__bpf_object__open.part.0+0x182c>
    b4a4: e2 02 40 f9  	ldr	x2, [x23]
    b4a8: e3 03 1b aa  	mov	x3, x27
    b4ac: 01 00 00 90  	adrp	x1, 0xb000 <__bpf_object__open.part.0+0x18dc>
    b4b0: 00 00 80 52  	mov	w0, #0
    b4b4: 21 00 00 91  	add	x1, x1, #0
    b4b8: b3 02 80 92  	mov	x19, #-22
    b4bc: 00 00 00 94  	bl	0xb4bc <__bpf_object__open.part.0+0x18ec>
    b4c0: f7 63 44 a9  	ldp	x23, x24, [sp, #64]
    b4c4: f9 6b 45 a9  	ldp	x25, x26, [sp, #80]
    b4c8: 3c fa ff 17  	b	0x9db8 <__bpf_object__open.part.0+0x1e8>
    b4cc: e2 02 40 f9  	ldr	x2, [x23]
    b4d0: e3 03 14 2a  	mov	w3, w20
    b4d4: 01 00 00 90  	adrp	x1, 0xb000 <__bpf_object__open.part.0+0x1904>
    b4d8: 00 00 80 52  	mov	w0, #0
    b4dc: 21 00 00 91  	add	x1, x1, #0
    b4e0: b3 02 80 92  	mov	x19, #-22
    b4e4: 00 00 00 94  	bl	0xb4e4 <__bpf_object__open.part.0+0x1914>
    b4e8: f7 63 44 a9  	ldp	x23, x24, [sp, #64]
    b4ec: f9 6b 45 a9  	ldp	x25, x26, [sp, #80]
    b4f0: 32 fa ff 17  	b	0x9db8 <__bpf_object__open.part.0+0x1e8>
    b4f4: 07 98 40 b9  	ldr	w7, [x0, #152]
    b4f8: 06 a4 40 b9  	ldr	w6, [x0, #164]
    b4fc: bf 6c 00 71  	cmp	w5, #27
    b500: c1 00 00 54  	b.ne	0xb518 <__bpf_object__open.part.0+0x1948>
    b504: c0 32 40 b9  	ldr	w0, [x22, #48]
    b508: 1f 00 06 6b  	cmp	w0, w6
    b50c: 61 00 00 54  	b.ne	0xb518 <__bpf_object__open.part.0+0x1948>
    b510: 9f 02 07 6b  	cmp	w20, w7
    b514: 80 f0 ff 54  	b.eq	0xb324 <__bpf_object__open.part.0+0x1754>
    b518: 64 04 40 f9  	ldr	x4, [x3, #8]
    b51c: fa 03 17 aa  	mov	x26, x23
    b520: e9 03 03 aa  	mov	x9, x3
    b524: 42 03 40 f9  	ldr	x2, [x26]
    b528: 01 00 00 90  	adrp	x1, 0xb000 <__bpf_object__open.part.0+0x1958>
    b52c: 23 19 40 f9  	ldr	x3, [x9, #48]
    b530: fb 03 00 f9  	str	x27, [sp]
    b534: 21 00 00 91  	add	x1, x1, #0
    b538: 00 00 80 52  	mov	w0, #0
    b53c: b3 02 80 92  	mov	x19, #-22
    b540: 00 00 00 94  	bl	0xb540 <__bpf_object__open.part.0+0x1970>
    b544: f7 63 44 a9  	ldp	x23, x24, [sp, #64]
    b548: f9 6b 45 a9  	ldp	x25, x26, [sp, #80]
    b54c: 1b fa ff 17  	b	0x9db8 <__bpf_object__open.part.0+0x1e8>
    b550: 00 00 80 12  	mov	w0, #-1
    b554: 00 00 00 94  	bl	0xb554 <__bpf_object__open.part.0+0x1984>
    b558: e3 77 40 f9  	ldr	x3, [sp, #232]
    b55c: e4 03 00 aa  	mov	x4, x0
    b560: e1 7f 40 f9  	ldr	x1, [sp, #248]
    b564: 00 00 80 52  	mov	w0, #0
    b568: e2 03 14 aa  	mov	x2, x20
    b56c: 00 00 00 94  	bl	0xb56c <__bpf_object__open.part.0+0x199c>
    b570: e0 63 40 f9  	ldr	x0, [sp, #192]
    b574: e1 fe ff 17  	b	0xb0f8 <__bpf_object__open.part.0+0x1528>
    b578: 18 07 00 11  	add	w24, w24, #1
    b57c: 1f 0b 01 71  	cmp	w24, #66
    b580: a0 ec ff 54  	b.eq	0xb314 <__bpf_object__open.part.0+0x1744>
    b584: a1 0a 40 a9  	ldp	x1, x2, [x21]
    b588: b5 a2 00 91  	add	x21, x21, #40
    b58c: 54 ff ff 17  	b	0xb2dc <__bpf_object__open.part.0+0x170c>
    b590: 21 00 80 52  	mov	w1, #1
    b594: e1 9b 00 b9  	str	w1, [sp, #152]
    b598: e1 03 02 aa  	mov	x1, x2
    b59c: e2 a7 0b a9  	stp	x2, x9, [sp, #184]
    b5a0: ec cb 0c a9  	stp	x12, x18, [sp, #200]
    b5a4: ed 6f 00 f9  	str	x13, [sp, #216]
    b5a8: e6 03 01 b9  	str	w6, [sp, #256]
    b5ac: e7 0b 01 b9  	str	w7, [sp, #264]
    b5b0: 00 00 00 94  	bl	0xb5b0 <__bpf_object__open.part.0+0x19e0>
    b5b4: e6 03 41 b9  	ldr	w6, [sp, #256]
    b5b8: e1 03 00 aa  	mov	x1, x0
    b5bc: e7 0b 41 b9  	ldr	w7, [sp, #264]
    b5c0: e2 a7 4b a9  	ldp	x2, x9, [sp, #184]
    b5c4: ec cb 4c a9  	ldp	x12, x18, [sp, #200]
    b5c8: ed 6f 40 f9  	ldr	x13, [sp, #216]
    b5cc: a0 34 00 b4  	cbz	x0, 0xbc60 <__bpf_object__open.part.0+0x2090>
    b5d0: e0 03 13 aa  	mov	x0, x19
    b5d4: e9 b3 0b a9  	stp	x9, x12, [sp, #184]
    b5d8: f2 b7 0c a9  	stp	x18, x13, [sp, #200]
    b5dc: e6 db 00 b9  	str	w6, [sp, #216]
    b5e0: e7 03 01 b9  	str	w7, [sp, #256]
    b5e4: 5f e5 ff 97  	bl	0x4b60 <elf_sec_name>
    b5e8: e9 b3 4b a9  	ldp	x9, x12, [sp, #184]
    b5ec: e0 87 00 f9  	str	x0, [sp, #264]
    b5f0: f2 b7 4c a9  	ldp	x18, x13, [sp, #200]
    b5f4: e6 db 40 b9  	ldr	w6, [sp, #216]
    b5f8: e7 03 41 b9  	ldr	w7, [sp, #256]
    b5fc: 60 62 41 b9  	ldr	w0, [x19, #352]
    b600: 1f 00 06 6b  	cmp	w0, w6
    b604: 00 03 00 54  	b.eq	0xb664 <__bpf_object__open.part.0+0x1a94>
    b608: 60 6a 41 b9  	ldr	w0, [x19, #360]
    b60c: 1f 00 06 6b  	cmp	w0, w6
    b610: a0 02 00 54  	b.eq	0xb664 <__bpf_object__open.part.0+0x1a94>
    b614: 60 66 41 b9  	ldr	w0, [x19, #356]
    b618: 1f 00 06 6b  	cmp	w0, w6
    b61c: 40 02 00 54  	b.eq	0xb664 <__bpf_object__open.part.0+0x1a94>
    b620: a2 1a 40 f9  	ldr	x2, [x21, #48]
    b624: 01 00 00 90  	adrp	x1, 0xb000 <__bpf_object__open.part.0+0x1a54>
    b628: e3 87 40 f9  	ldr	x3, [sp, #264]
    b62c: 21 00 00 91  	add	x1, x1, #0
    b630: 00 00 80 52  	mov	w0, #0
    b634: 93 f4 81 92  	mov	x19, #-4005
    b638: 00 00 00 94  	bl	0xb638 <__bpf_object__open.part.0+0x1a68>
    b63c: f7 63 44 a9  	ldp	x23, x24, [sp, #64]
    b640: f9 6b 45 a9  	ldp	x25, x26, [sp, #80]
    b644: dd f9 ff 17  	b	0x9db8 <__bpf_object__open.part.0+0x1e8>
    b648: 22 1b 40 f9  	ldr	x2, [x25, #48]
    b64c: 3f 03 00 f9  	str	xzr, [x25]
    b650: e3 03 1a aa  	mov	x3, x26
    b654: e1 03 16 aa  	mov	x1, x22
    b658: 40 00 80 52  	mov	w0, #2
    b65c: 00 00 00 94  	bl	0xb65c <__bpf_object__open.part.0+0x1a8c>
    b660: 83 ff ff 17  	b	0xb46c <__bpf_object__open.part.0+0x189c>
    b664: 52 01 00 b4  	cbz	x18, 0xb68c <__bpf_object__open.part.0+0x1abc>
    b668: e2 9b 40 b9  	ldr	w2, [sp, #152]
    b66c: 60 36 40 f9  	ldr	x0, [x19, #104]
    b670: 01 58 40 b9  	ldr	w1, [x0, #88]
    b674: 3f 00 02 6b  	cmp	w1, w2
    b678: e0 01 00 54  	b.eq	0xb6b4 <__bpf_object__open.part.0+0x1ae4>
    b67c: 94 06 00 91  	add	x20, x20, #1
    b680: 00 60 02 91  	add	x0, x0, #152
    b684: 5f 02 14 eb  	cmp	x18, x20
    b688: 41 ff ff 54  	b.ne	0xb670 <__bpf_object__open.part.0+0x1aa0>
    b68c: a2 1a 40 f9  	ldr	x2, [x21, #48]
    b690: 01 00 00 90  	adrp	x1, 0xb000 <__bpf_object__open.part.0+0x1ac0>
    b694: e3 87 40 f9  	ldr	x3, [sp, #264]
    b698: 21 00 00 91  	add	x1, x1, #0
    b69c: 00 00 80 52  	mov	w0, #0
    b6a0: 93 f4 81 92  	mov	x19, #-4005
    b6a4: 00 00 00 94  	bl	0xb6a4 <__bpf_object__open.part.0+0x1ad4>
    b6a8: f7 63 44 a9  	ldp	x23, x24, [sp, #64]
    b6ac: f9 6b 45 a9  	ldp	x25, x26, [sp, #80]
    b6b0: c2 f9 ff 17  	b	0x9db8 <__bpf_object__open.part.0+0x1e8>
    b6b4: 05 0c 40 b9  	ldr	w5, [x0, #12]
    b6b8: e3 03 14 aa  	mov	x3, x20
    b6bc: 04 00 40 f9  	ldr	x4, [x0]
    b6c0: 01 00 00 90  	adrp	x1, 0xb000 <__bpf_object__open.part.0+0x1af0>
    b6c4: 06 08 40 f9  	ldr	x6, [x0, #16]
    b6c8: 21 00 00 91  	add	x1, x1, #0
    b6cc: a2 1a 40 f9  	ldr	x2, [x21, #48]
    b6d0: 40 00 80 52  	mov	w0, #2
    b6d4: e7 9b 00 b9  	str	w7, [sp, #152]
    b6d8: ed cb 0b a9  	stp	x13, x18, [sp, #184]
    b6dc: ec a7 0c a9  	stp	x12, x9, [sp, #200]
    b6e0: 00 00 00 94  	bl	0xb6e0 <__bpf_object__open.part.0+0x1b10>
    b6e4: e7 9b 40 b9  	ldr	w7, [sp, #152]
    b6e8: ed cb 4b a9  	ldp	x13, x18, [sp, #184]
    b6ec: ec a7 4c a9  	ldp	x12, x9, [sp, #200]
    b6f0: 9f 02 12 eb  	cmp	x20, x18
    b6f4: c2 fc ff 54  	b.hs	0xb68c <__bpf_object__open.part.0+0x1abc>
    b6f8: 40 00 80 52  	mov	w0, #2
    b6fc: a1 5a 40 b9  	ldr	w1, [x21, #88]
    b700: 20 69 2d b8  	str	w0, [x9, x13]
    b704: e0 b3 40 f9  	ldr	x0, [sp, #352]
    b708: 87 d1 00 29  	stp	w7, w20, [x12, #4]
    b70c: 80 0d 00 b9  	str	w0, [x12, #12]
    b710: 0a fd ff 17  	b	0xab38 <__bpf_object__open.part.0+0xf68>
    b714: e3 27 41 b9  	ldr	w3, [sp, #292]
    b718: e4 03 17 2a  	mov	w4, w23
    b71c: e2 03 18 aa  	mov	x2, x24
    b720: 01 00 00 90  	adrp	x1, 0xb000 <__bpf_object__open.part.0+0x1b50>
    b724: 00 00 80 52  	mov	w0, #0
    b728: 21 00 00 91  	add	x1, x1, #0
    b72c: 13 f4 81 92  	mov	x19, #-4001
    b730: 00 00 00 94  	bl	0xb730 <__bpf_object__open.part.0+0x1b60>
    b734: f7 63 44 a9  	ldp	x23, x24, [sp, #64]
    b738: f9 6b 45 a9  	ldp	x25, x26, [sp, #80]
    b73c: 9f f9 ff 17  	b	0x9db8 <__bpf_object__open.part.0+0x1e8>
    b740: 00 00 80 12  	mov	w0, #-1
    b744: 00 00 00 94  	bl	0xb744 <__bpf_object__open.part.0+0x1b74>
    b748: e3 77 40 f9  	ldr	x3, [sp, #232]
    b74c: e4 03 00 aa  	mov	x4, x0
    b750: e1 7f 40 f9  	ldr	x1, [sp, #248]
    b754: f4 03 16 aa  	mov	x20, x22
    b758: e2 03 15 aa  	mov	x2, x21
    b75c: 00 00 80 52  	mov	w0, #0
    b760: 00 00 00 94  	bl	0xb760 <__bpf_object__open.part.0+0x1b90>
    b764: 00 fe ff 17  	b	0xaf64 <__bpf_object__open.part.0+0x1394>
    b768: e6 b3 40 f9  	ldr	x6, [sp, #352]
    b76c: 52 12 00 b4  	cbz	x18, 0xb9b4 <__bpf_object__open.part.0+0x1de4>
    b770: e5 bf 42 79  	ldrh	w5, [sp, #350]
    b774: 60 36 40 f9  	ldr	x0, [x19, #104]
    b778: 05 00 00 14  	b	0xb78c <__bpf_object__open.part.0+0x1bbc>
    b77c: 94 06 00 91  	add	x20, x20, #1
    b780: 00 60 02 91  	add	x0, x0, #152
    b784: 5f 02 14 eb  	cmp	x18, x20
    b788: 60 11 00 54  	b.eq	0xb9b4 <__bpf_object__open.part.0+0x1de4>
    b78c: 01 58 40 b9  	ldr	w1, [x0, #88]
    b790: 61 ff ff 35  	cbnz	w1, 0xb77c <__bpf_object__open.part.0+0x1bac>
    b794: 01 0c 40 b9  	ldr	w1, [x0, #12]
    b798: 3f 00 05 6b  	cmp	w1, w5
    b79c: 01 ff ff 54  	b.ne	0xb77c <__bpf_object__open.part.0+0x1bac>
    b7a0: 01 08 40 f9  	ldr	x1, [x0, #16]
    b7a4: 3f 00 06 eb  	cmp	x1, x6
    b7a8: a1 fe ff 54  	b.ne	0xb77c <__bpf_object__open.part.0+0x1bac>
    b7ac: 04 00 40 f9  	ldr	x4, [x0]
    b7b0: e3 03 14 aa  	mov	x3, x20
    b7b4: a2 1a 40 f9  	ldr	x2, [x21, #48]
    b7b8: 01 00 00 90  	adrp	x1, 0xb000 <__bpf_object__open.part.0+0x1be8>
    b7bc: 40 00 80 52  	mov	w0, #2
    b7c0: 21 00 00 91  	add	x1, x1, #0
    b7c4: e7 9b 00 b9  	str	w7, [sp, #152]
    b7c8: ed cb 0b a9  	stp	x13, x18, [sp, #184]
    b7cc: ec a7 0c a9  	stp	x12, x9, [sp, #200]
    b7d0: 00 00 00 94  	bl	0xb7d0 <__bpf_object__open.part.0+0x1c00>
    b7d4: e7 9b 40 b9  	ldr	w7, [sp, #152]
    b7d8: ed cb 4b a9  	ldp	x13, x18, [sp, #184]
    b7dc: ec a7 4c a9  	ldp	x12, x9, [sp, #200]
    b7e0: 5f 02 14 eb  	cmp	x18, x20
    b7e4: c9 94 00 54  	b.ls	0xca7c <__bpf_object__open.part.0+0x2eac>
    b7e8: 3f 69 2d b8  	str	wzr, [x9, x13]
    b7ec: a1 5a 40 b9  	ldr	w1, [x21, #88]
    b7f0: 87 d1 00 29  	stp	w7, w20, [x12, #4]
    b7f4: 9f 0d 00 b9  	str	wzr, [x12, #12]
    b7f8: d0 fc ff 17  	b	0xab38 <__bpf_object__open.part.0+0xf68>
    b7fc: 00 00 80 12  	mov	w0, #-1
    b800: f6 7b 40 f9  	ldr	x22, [sp, #240]
    b804: 00 00 00 94  	bl	0xb804 <__bpf_object__open.part.0+0x1c34>
    b808: e3 77 40 f9  	ldr	x3, [sp, #232]
    b80c: e4 03 00 aa  	mov	x4, x0
    b810: e1 7f 40 f9  	ldr	x1, [sp, #248]
    b814: e2 03 14 aa  	mov	x2, x20
    b818: 00 00 80 52  	mov	w0, #0
    b81c: 00 00 00 94  	bl	0xb81c <__bpf_object__open.part.0+0x1c4c>
    b820: e9 fc ff 17  	b	0xabc4 <__bpf_object__open.part.0+0xff4>
    b824: 1f 34 00 71  	cmp	w0, #13
    b828: 81 00 00 54  	b.ne	0xb838 <__bpf_object__open.part.0+0x1c68>
    b82c: 20 27 40 b9  	ldr	w0, [x25, #36]
    b830: 1f 10 00 71  	cmp	w0, #4
    b834: e1 80 00 54  	b.ne	0xc850 <__bpf_object__open.part.0+0x2c80>
    b838: e1 03 14 aa  	mov	x1, x20
    b83c: e0 03 1c aa  	mov	x0, x28
    b840: 00 00 00 94  	bl	0xb840 <__bpf_object__open.part.0+0x1c70>
    b844: e0 4b 00 f9  	str	x0, [sp, #144]
    b848: c0 7f 00 b4  	cbz	x0, 0xc840 <__bpf_object__open.part.0+0x2c70>
    b84c: 61 03 40 b9  	ldr	w1, [x27]
    b850: 80 c3 40 f9  	ldr	x0, [x28, #384]
    b854: 00 00 00 94  	bl	0xb854 <__bpf_object__open.part.0+0x1c84>
    b858: 01 08 40 b9  	ldr	w1, [x0, #8]
    b85c: 95 c3 40 f9  	ldr	x21, [x28, #384]
    b860: 02 00 00 14  	b	0xb868 <__bpf_object__open.part.0+0x1c98>
    b864: 81 08 40 b9  	ldr	w1, [x4, #8]
    b868: e0 03 15 aa  	mov	x0, x21
    b86c: 00 00 00 94  	bl	0xb86c <__bpf_object__open.part.0+0x1c9c>
    b870: e4 03 00 aa  	mov	x4, x0
    b874: 00 04 40 b9  	ldr	w0, [x0, #4]
    b878: 01 70 58 d3  	ubfx	x1, x0, #24, #5
    b87c: 21 20 00 51  	sub	w1, w1, #8
    b880: 21 3c 00 12  	and	w1, w1, #0xffff
    b884: 3f 0c 00 71  	cmp	w1, #3
    b888: e9 fe ff 54  	b.ls	0xb864 <__bpf_object__open.part.0+0x1c94>
    b88c: 01 3c 00 72  	ands	w1, w0, #0xffff
    b890: 40 bd ff 54  	b.eq	0xb038 <__bpf_object__open.part.0+0x1468>
    b894: 85 01 80 52  	mov	w5, #12
    b898: e4 53 00 f9  	str	x4, [sp, #160]
    b89c: 80 c3 40 f9  	ldr	x0, [x28, #384]
    b8a0: 21 7c a5 9b  	umull	x1, w1, w5
    b8a4: 81 68 61 b8  	ldr	w1, [x4, x1]
    b8a8: 00 00 00 94  	bl	0xb8a8 <__bpf_object__open.part.0+0x1cd8>
    b8ac: 01 00 00 90  	adrp	x1, 0xb000 <__bpf_object__open.part.0+0x1cdc>
    b8b0: 21 00 00 91  	add	x1, x1, #0
    b8b4: 00 00 00 94  	bl	0xb8b4 <__bpf_object__open.part.0+0x1ce4>
    b8b8: 00 bc ff 35  	cbnz	w0, 0xb038 <__bpf_object__open.part.0+0x1468>
    b8bc: e4 53 40 f9  	ldr	x4, [sp, #160]
    b8c0: e0 8f 40 f9  	ldr	x0, [sp, #280]
    b8c4: 85 04 40 b9  	ldr	w5, [x4, #4]
    b8c8: 62 07 40 b9  	ldr	w2, [x27, #4]
    b8cc: a1 3c 00 12  	and	w1, w5, #0xffff
    b8d0: bf 00 00 71  	cmp	w5, #0
    b8d4: 21 04 00 51  	sub	w1, w1, #1
    b8d8: 21 04 00 91  	add	x1, x1, #1
    b8dc: 05 40 22 cb  	sub	x5, x0, w2, uxtw
    b8e0: 21 04 01 8b  	add	x1, x1, x1, lsl #1
    b8e4: 81 08 01 8b  	add	x1, x4, x1, lsl #2
    b8e8: 21 08 40 b9  	ldr	w1, [x1, #8]
    b8ec: 24 5c 00 12  	and	w4, w1, #0xffffff
    b8f0: 81 b0 81 1a  	csel	w1, w4, w1, lt
    b8f4: 24 7c 03 53  	lsr	w4, w1, #3
    b8f8: 21 7c 03 53  	lsr	w1, w1, #3
    b8fc: bf 00 04 eb  	cmp	x5, x4
    b900: c3 b9 ff 54  	b.lo	0xb038 <__bpf_object__open.part.0+0x1468>
    b904: 15 00 02 4b  	sub	w21, w0, w2
    b908: b5 02 01 4b  	sub	w21, w21, w1
    b90c: bf 0a 40 f2  	tst	x21, #0x7
    b910: 41 b9 ff 54  	b.ne	0xb038 <__bpf_object__open.part.0+0x1468>
    b914: 21 83 40 b9  	ldr	w1, [x25, #128]
    b918: b5 7e 03 53  	lsr	w21, w21, #3
    b91c: 20 3f 40 f9  	ldr	x0, [x25, #120]
    b920: bf 02 01 6b  	cmp	w21, w1
    b924: 63 02 00 54  	b.lo	0xb970 <__bpf_object__open.part.0+0x1da0>
    b928: a4 06 00 11  	add	w4, w21, #1
    b92c: e4 a3 00 b9  	str	w4, [sp, #160]
    b930: 81 74 7d d3  	ubfiz	x1, x4, #3, #30
    b934: 00 00 00 94  	bl	0xb934 <__bpf_object__open.part.0+0x1d64>
    b938: 80 b8 ff b4  	cbz	x0, 0xb048 <__bpf_object__open.part.0+0x1478>
    b93c: e4 a3 40 b9  	ldr	w4, [sp, #160]
    b940: 01 00 80 52  	mov	w1, #0
    b944: 25 83 40 b9  	ldr	w5, [x25, #128]
    b948: 20 3f 00 f9  	str	x0, [x25, #120]
    b94c: 82 00 05 4b  	sub	w2, w4, w5
    b950: e4 a3 00 b9  	str	w4, [sp, #160]
    b954: 00 cc 25 8b  	add	x0, x0, w5, sxtw #3
    b958: 42 70 1d 53  	lsl	w2, w2, #3
    b95c: 42 7c 40 93  	sxtw	x2, w2
    b960: 00 00 00 94  	bl	0xb960 <__bpf_object__open.part.0+0x1d90>
    b964: 20 3f 40 f9  	ldr	x0, [x25, #120]
    b968: e4 a3 40 b9  	ldr	w4, [sp, #160]
    b96c: 24 83 00 b9  	str	w4, [x25, #128]
    b970: e2 03 15 2a  	mov	w2, w21
    b974: e5 03 14 aa  	mov	x5, x20
    b978: e3 4b 40 f9  	ldr	x3, [sp, #144]
    b97c: e4 03 15 2a  	mov	w4, w21
    b980: 03 78 22 f8  	str	x3, [x0, x2, lsl #3]
    b984: 01 00 00 90  	adrp	x1, 0xb000 <__bpf_object__open.part.0+0x1db4>
    b988: e2 03 18 2a  	mov	w2, w24
    b98c: 40 00 80 52  	mov	w0, #2
    b990: 23 03 40 f9  	ldr	x3, [x25]
    b994: 21 00 00 91  	add	x1, x1, #0
    b998: 18 07 00 11  	add	w24, w24, #1
    b99c: 00 00 00 94  	bl	0xb99c <__bpf_object__open.part.0+0x1dcc>
    b9a0: e0 8b 40 b9  	ldr	w0, [sp, #136]
    b9a4: 1f 00 18 6b  	cmp	w0, w24
    b9a8: c1 ab ff 54  	b.ne	0xaf20 <__bpf_object__open.part.0+0x1350>
    b9ac: 81 4b 41 b9  	ldr	w1, [x28, #328]
    b9b0: 64 fe ff 17  	b	0xb340 <__bpf_object__open.part.0+0x1770>
    b9b4: f9 03 15 aa  	mov	x25, x21
    b9b8: 22 1b 40 f9  	ldr	x2, [x25, #48]
    b9bc: e4 03 06 aa  	mov	x4, x6
    b9c0: e3 87 40 f9  	ldr	x3, [sp, #264]
    b9c4: 01 00 00 90  	adrp	x1, 0xb000 <__bpf_object__open.part.0+0x1df4>
    b9c8: 00 00 80 52  	mov	w0, #0
    b9cc: 21 00 00 91  	add	x1, x1, #0
    b9d0: 93 f4 81 92  	mov	x19, #-4005
    b9d4: 00 00 00 94  	bl	0xb9d4 <__bpf_object__open.part.0+0x1e04>
    b9d8: 9d fd ff 17  	b	0xb04c <__bpf_object__open.part.0+0x147c>
    b9dc: e3 03 17 2a  	mov	w3, w23
    b9e0: e2 03 18 aa  	mov	x2, x24
    b9e4: 01 00 00 90  	adrp	x1, 0xb000 <__bpf_object__open.part.0+0x1e14>
    b9e8: 13 f4 81 92  	mov	x19, #-4001
    b9ec: 21 00 00 91  	add	x1, x1, #0
    b9f0: 00 00 00 94  	bl	0xb9f0 <__bpf_object__open.part.0+0x1e20>
    b9f4: f7 63 44 a9  	ldp	x23, x24, [sp, #64]
    b9f8: f9 6b 45 a9  	ldp	x25, x26, [sp, #80]
    b9fc: ef f8 ff 17  	b	0x9db8 <__bpf_object__open.part.0+0x1e8>
    ba00: e3 27 41 b9  	ldr	w3, [sp, #292]
    ba04: e4 03 17 2a  	mov	w4, w23
    ba08: e2 03 18 aa  	mov	x2, x24
    ba0c: 01 00 00 90  	adrp	x1, 0xb000 <__bpf_object__open.part.0+0x1e3c>
    ba10: 13 f4 81 92  	mov	x19, #-4001
    ba14: 21 00 00 91  	add	x1, x1, #0
    ba18: 00 00 00 94  	bl	0xba18 <__bpf_object__open.part.0+0x1e48>
    ba1c: f7 63 44 a9  	ldp	x23, x24, [sp, #64]
    ba20: f9 6b 45 a9  	ldp	x25, x26, [sp, #80]
    ba24: e5 f8 ff 17  	b	0x9db8 <__bpf_object__open.part.0+0x1e8>
    ba28: 01 00 00 90  	adrp	x1, 0xb000 <__bpf_object__open.part.0+0x1e58>
    ba2c: 42 ed 82 52  	mov	w2, #5994
    ba30: 21 00 00 91  	add	x1, x1, #0
    ba34: 00 00 80 52  	mov	w0, #0
    ba38: 73 f4 81 92  	mov	x19, #-4004
    ba3c: 00 00 00 94  	bl	0xba3c <__bpf_object__open.part.0+0x1e6c>
    ba40: f7 63 44 a9  	ldp	x23, x24, [sp, #64]
    ba44: f9 6b 45 a9  	ldp	x25, x26, [sp, #80]
    ba48: dc f8 ff 17  	b	0x9db8 <__bpf_object__open.part.0+0x1e8>
    ba4c: 60 0f 40 b9  	ldr	w0, [x27, #12]
    ba50: 1f 08 00 71  	cmp	w0, #2
    ba54: 00 5a ff 54  	b.eq	0xa594 <__bpf_object__open.part.0+0x9c4>
    ba58: a3 02 80 12  	mov	w3, #-22
    ba5c: 33 fb ff 17  	b	0xa728 <__bpf_object__open.part.0+0xb58>
    ba60: 99 0a 40 b9  	ldr	w25, [x20, #8]
    ba64: 20 00 80 12  	mov	w0, #-2
    ba68: e4 03 00 2a  	mov	w4, w0
    ba6c: 80 0e 00 b9  	str	w0, [x20, #12]
    ba70: e3 03 19 2a  	mov	w3, w25
    ba74: e2 03 15 aa  	mov	x2, x21
    ba78: 01 00 00 90  	adrp	x1, 0xb000 <__bpf_object__open.part.0+0x1ea8>
    ba7c: 00 00 80 52  	mov	w0, #0
    ba80: 21 00 00 91  	add	x1, x1, #0
    ba84: 00 00 00 94  	bl	0xba84 <__bpf_object__open.part.0+0x1eb4>
    ba88: 93 0e 40 b9  	ldr	w19, [x20, #12]
    ba8c: 2e fb ff 17  	b	0xa744 <__bpf_object__open.part.0+0xb74>
    ba90: 41 00 80 52  	mov	w1, #2
    ba94: e1 9b 00 b9  	str	w1, [sp, #152]
    ba98: c0 fe ff 17  	b	0xb598 <__bpf_object__open.part.0+0x19c8>
    ba9c: 61 00 80 52  	mov	w1, #3
    baa0: e1 9b 00 b9  	str	w1, [sp, #152]
    baa4: bd fe ff 17  	b	0xb598 <__bpf_object__open.part.0+0x19c8>
    baa8: 00 00 80 12  	mov	w0, #-1
    baac: 00 00 00 94  	bl	0xbaac <__bpf_object__open.part.0+0x1edc>
    bab0: e3 77 40 f9  	ldr	x3, [sp, #232]
    bab4: e4 03 00 aa  	mov	x4, x0
    bab8: e2 03 14 aa  	mov	x2, x20
    babc: 01 00 00 90  	adrp	x1, 0xb000 <__bpf_object__open.part.0+0x1eec>
    bac0: 00 00 80 52  	mov	w0, #0
    bac4: 21 00 00 91  	add	x1, x1, #0
    bac8: 00 00 00 94  	bl	0xbac8 <__bpf_object__open.part.0+0x1ef8>
    bacc: d8 fb ff 17  	b	0xaa2c <__bpf_object__open.part.0+0xe5c>
    bad0: 00 00 80 12  	mov	w0, #-1
    bad4: 00 00 00 94  	bl	0xbad4 <__bpf_object__open.part.0+0x1f04>
    bad8: e3 77 40 f9  	ldr	x3, [sp, #232]
    badc: e4 03 00 aa  	mov	x4, x0
    bae0: e2 03 19 aa  	mov	x2, x25
    bae4: 00 00 80 52  	mov	w0, #0
    bae8: 01 00 00 90  	adrp	x1, 0xb000 <__bpf_object__open.part.0+0x1f18>
    baec: 21 00 00 91  	add	x1, x1, #0
    baf0: 00 00 00 94  	bl	0xbaf0 <__bpf_object__open.part.0+0x1f20>
    baf4: e1 03 13 aa  	mov	x1, x19
    baf8: e0 03 1c aa  	mov	x0, x28
    bafc: 19 e4 ff 97  	bl	0x4b60 <elf_sec_name>
    bb00: 4e fd ff 17  	b	0xb038 <__bpf_object__open.part.0+0x1468>
    bb04: e2 02 40 f9  	ldr	x2, [x23]
    bb08: e4 03 18 2a  	mov	w4, w24
    bb0c: e3 8f 40 f9  	ldr	x3, [sp, #280]
    bb10: 01 00 00 90  	adrp	x1, 0xb000 <__bpf_object__open.part.0+0x1f40>
    bb14: 00 00 80 52  	mov	w0, #0
    bb18: 21 00 00 91  	add	x1, x1, #0
    bb1c: 93 f4 81 92  	mov	x19, #-4005
    bb20: 00 00 00 94  	bl	0xbb20 <__bpf_object__open.part.0+0x1f50>
    bb24: f7 63 44 a9  	ldp	x23, x24, [sp, #64]
    bb28: f9 6b 45 a9  	ldp	x25, x26, [sp, #80]
    bb2c: a3 f8 ff 17  	b	0x9db8 <__bpf_object__open.part.0+0x1e8>
    bb30: e2 27 41 b9  	ldr	w2, [sp, #292]
    bb34: 01 00 00 90  	adrp	x1, 0xb000 <__bpf_object__open.part.0+0x1f64>
    bb38: 13 f4 81 92  	mov	x19, #-4001
    bb3c: 21 00 00 91  	add	x1, x1, #0
    bb40: 00 00 00 94  	bl	0xbb40 <__bpf_object__open.part.0+0x1f70>
    bb44: f7 63 44 a9  	ldp	x23, x24, [sp, #64]
    bb48: f9 6b 45 a9  	ldp	x25, x26, [sp, #80]
    bb4c: 9b f8 ff 17  	b	0x9db8 <__bpf_object__open.part.0+0x1e8>
    bb50: e2 03 19 2a  	mov	w2, w25
    bb54: 01 00 00 90  	adrp	x1, 0xb000 <__bpf_object__open.part.0+0x1f84>
    bb58: 13 f4 81 92  	mov	x19, #-4001
    bb5c: 21 00 00 91  	add	x1, x1, #0
    bb60: 00 00 00 94  	bl	0xbb60 <__bpf_object__open.part.0+0x1f90>
    bb64: f7 63 44 a9  	ldp	x23, x24, [sp, #64]
    bb68: f9 6b 45 a9  	ldp	x25, x26, [sp, #80]
    bb6c: 93 f8 ff 17  	b	0x9db8 <__bpf_object__open.part.0+0x1e8>
    bb70: 00 00 80 12  	mov	w0, #-1
    bb74: 00 00 00 94  	bl	0xbb74 <__bpf_object__open.part.0+0x1fa4>
    bb78: e3 77 40 f9  	ldr	x3, [sp, #232]
    bb7c: e4 03 00 aa  	mov	x4, x0
    bb80: e2 03 15 aa  	mov	x2, x21
    bb84: 01 00 00 90  	adrp	x1, 0xb000 <__bpf_object__open.part.0+0x1fb4>
    bb88: 00 00 80 52  	mov	w0, #0
    bb8c: 21 00 00 91  	add	x1, x1, #0
    bb90: 00 00 00 94  	bl	0xbb90 <__bpf_object__open.part.0+0x1fc0>
    bb94: 55 fc ff 17  	b	0xace8 <__bpf_object__open.part.0+0x1118>
    bb98: e2 02 40 f9  	ldr	x2, [x23]
    bb9c: e3 03 15 aa  	mov	x3, x21
    bba0: 01 00 00 90  	adrp	x1, 0xb000 <__bpf_object__open.part.0+0x1fd0>
    bba4: 00 00 80 52  	mov	w0, #0
    bba8: 21 00 00 91  	add	x1, x1, #0
    bbac: 13 f4 81 92  	mov	x19, #-4001
    bbb0: 00 00 00 94  	bl	0xbbb0 <__bpf_object__open.part.0+0x1fe0>
    bbb4: f7 63 44 a9  	ldp	x23, x24, [sp, #64]
    bbb8: f9 6b 45 a9  	ldp	x25, x26, [sp, #80]
    bbbc: 7f f8 ff 17  	b	0x9db8 <__bpf_object__open.part.0+0x1e8>
    bbc0: e2 02 40 f9  	ldr	x2, [x23]
    bbc4: e3 03 18 2a  	mov	w3, w24
    bbc8: e4 03 1b aa  	mov	x4, x27
    bbcc: 01 00 00 90  	adrp	x1, 0xb000 <__bpf_object__open.part.0+0x1ffc>
    bbd0: 00 00 80 52  	mov	w0, #0
    bbd4: 21 00 00 91  	add	x1, x1, #0
    bbd8: b3 02 80 92  	mov	x19, #-22
    bbdc: 00 00 00 94  	bl	0xbbdc <__bpf_object__open.part.0+0x200c>
    bbe0: f7 63 44 a9  	ldp	x23, x24, [sp, #64]
    bbe4: f9 6b 45 a9  	ldp	x25, x26, [sp, #80]
    bbe8: 74 f8 ff 17  	b	0x9db8 <__bpf_object__open.part.0+0x1e8>
    bbec: 13 7c 40 93  	sxtw	x19, w0
    bbf0: 02 00 00 90  	adrp	x2, 0xb000 <__bpf_object__open.part.0+0x2020>
    bbf4: e3 03 13 aa  	mov	x3, x19
    bbf8: 42 00 00 91  	add	x2, x2, #0
    bbfc: 01 00 00 90  	adrp	x1, 0xb000 <__bpf_object__open.part.0+0x202c>
    bc00: 00 00 80 52  	mov	w0, #0
    bc04: 21 00 00 91  	add	x1, x1, #0
    bc08: 00 00 00 94  	bl	0xbc08 <__bpf_object__open.part.0+0x2038>
    bc0c: f7 63 44 a9  	ldp	x23, x24, [sp, #64]
    bc10: f9 6b 45 a9  	ldp	x25, x26, [sp, #80]
    bc14: 69 f8 ff 17  	b	0x9db8 <__bpf_object__open.part.0+0x1e8>
    bc18: 84 8b 40 f9  	ldr	x4, [x28, #272]
    bc1c: e0 03 1c aa  	mov	x0, x28
    bc20: 21 00 80 52  	mov	w1, #1
    bc24: 83 00 40 f9  	ldr	x3, [x4]
    bc28: 84 08 40 f9  	ldr	x4, [x4, #16]
    bc2c: 61 d9 ff 97  	bl	0x21b0 <bpf_object__init_internal_map>
    bc30: 13 7c 40 93  	sxtw	x19, w0
    bc34: f3 65 ff 34  	cbz	w19, 0xa8f0 <__bpf_object__open.part.0+0xd20>
    bc38: 05 fd ff 17  	b	0xb04c <__bpf_object__open.part.0+0x147c>
    bc3c: 22 03 00 91  	add	x2, x25, #0
    bc40: 01 00 00 90  	adrp	x1, 0xb000 <__bpf_object__open.part.0+0x2070>
    bc44: 00 00 80 52  	mov	w0, #0
    bc48: 21 00 00 91  	add	x1, x1, #0
    bc4c: 33 00 80 92  	mov	x19, #-2
    bc50: 00 00 00 94  	bl	0xbc50 <__bpf_object__open.part.0+0x2080>
    bc54: f7 63 44 a9  	ldp	x23, x24, [sp, #64]
    bc58: f9 6b 45 a9  	ldp	x25, x26, [sp, #80]
    bc5c: 57 f8 ff 17  	b	0x9db8 <__bpf_object__open.part.0+0x1e8>
    bc60: 00 00 80 12  	mov	w0, #-1
    bc64: e9 b3 0b a9  	stp	x9, x12, [sp, #184]
    bc68: f2 8b 0c a9  	stp	x18, x2, [sp, #200]
    bc6c: ed 6f 00 f9  	str	x13, [sp, #216]
    bc70: e6 03 01 b9  	str	w6, [sp, #256]
    bc74: e7 0b 01 b9  	str	w7, [sp, #264]
    bc78: 00 00 00 94  	bl	0xbc78 <__bpf_object__open.part.0+0x20a8>
    bc7c: e2 6b 40 f9  	ldr	x2, [sp, #208]
    bc80: e4 03 00 aa  	mov	x4, x0
    bc84: 63 62 07 91  	add	x3, x19, #472
    bc88: 01 00 00 90  	adrp	x1, 0xb000 <__bpf_object__open.part.0+0x20b8>
    bc8c: 00 00 80 52  	mov	w0, #0
    bc90: 21 00 00 91  	add	x1, x1, #0
    bc94: 00 00 00 94  	bl	0xbc94 <__bpf_object__open.part.0+0x20c4>
    bc98: e6 03 41 b9  	ldr	w6, [sp, #256]
    bc9c: 01 00 80 d2  	mov	x1, #0
    bca0: e7 0b 41 b9  	ldr	w7, [sp, #264]
    bca4: e9 b3 4b a9  	ldp	x9, x12, [sp, #184]
    bca8: f2 67 40 f9  	ldr	x18, [sp, #200]
    bcac: ed 6f 40 f9  	ldr	x13, [sp, #216]
    bcb0: 6a fc ff 17  	b	0xae58 <__bpf_object__open.part.0+0x1288>
    bcb4: a2 1a 40 f9  	ldr	x2, [x21, #48]
    bcb8: e5 03 00 2a  	mov	w5, w0
    bcbc: e4 03 07 2a  	mov	w4, w7
    bcc0: e3 03 16 aa  	mov	x3, x22
    bcc4: 01 00 00 90  	adrp	x1, 0xb000 <__bpf_object__open.part.0+0x20f4>
    bcc8: 00 00 80 52  	mov	w0, #0
    bccc: 21 00 00 91  	add	x1, x1, #0
    bcd0: 93 f4 81 92  	mov	x19, #-4005
    bcd4: 00 00 00 94  	bl	0xbcd4 <__bpf_object__open.part.0+0x2104>
    bcd8: f7 63 44 a9  	ldp	x23, x24, [sp, #64]
    bcdc: f9 6b 45 a9  	ldp	x25, x26, [sp, #80]
    bce0: 36 f8 ff 17  	b	0x9db8 <__bpf_object__open.part.0+0x1e8>
    bce4: 73 01 80 12  	mov	w19, #-12
    bce8: 73 7e 40 93  	sxtw	x19, w19
    bcec: f7 63 44 a9  	ldp	x23, x24, [sp, #64]
    bcf0: f9 6b 45 a9  	ldp	x25, x26, [sp, #80]
    bcf4: 31 f8 ff 17  	b	0x9db8 <__bpf_object__open.part.0+0x1e8>
    bcf8: 84 8f 40 f9  	ldr	x4, [x28, #280]
    bcfc: e0 03 1c aa  	mov	x0, x28
    bd00: 61 00 80 52  	mov	w1, #3
    bd04: 83 00 40 f9  	ldr	x3, [x4]
    bd08: 84 08 40 f9  	ldr	x4, [x4, #16]
    bd0c: 29 d9 ff 97  	bl	0x21b0 <bpf_object__init_internal_map>
    bd10: 13 7c 40 93  	sxtw	x19, w0
    bd14: d3 99 ff 35  	cbnz	w19, 0xb04c <__bpf_object__open.part.0+0x147c>
    bd18: 80 3b 40 f9  	ldr	x0, [x28, #112]
    bd1c: 00 04 00 51  	sub	w0, w0, #1
    bd20: 80 9b 00 b9  	str	w0, [x28, #152]
    bd24: f5 fa ff 17  	b	0xa8f8 <__bpf_object__open.part.0+0xd28>
    bd28: 00 00 80 12  	mov	w0, #-1
    bd2c: 00 00 00 94  	bl	0xbd2c <__bpf_object__open.part.0+0x215c>
    bd30: e3 77 40 f9  	ldr	x3, [sp, #232]
    bd34: e4 03 00 aa  	mov	x4, x0
    bd38: e2 03 14 aa  	mov	x2, x20
    bd3c: 01 00 00 90  	adrp	x1, 0xb000 <__bpf_object__open.part.0+0x216c>
    bd40: 00 00 80 52  	mov	w0, #0
    bd44: 21 00 00 91  	add	x1, x1, #0
    bd48: 00 00 00 94  	bl	0xbd48 <__bpf_object__open.part.0+0x2178>
    bd4c: be f9 ff 17  	b	0xa444 <__bpf_object__open.part.0+0x874>
    bd50: 82 93 40 b9  	ldr	w2, [x28, #144]
    bd54: 01 00 00 90  	adrp	x1, 0xb000 <__bpf_object__open.part.0+0x2184>
    bd58: 40 00 80 52  	mov	w0, #2
    bd5c: 21 00 00 91  	add	x1, x1, #0
    bd60: 00 00 00 94  	bl	0xbd60 <__bpf_object__open.part.0+0x2190>
    bd64: 81 93 40 b9  	ldr	w1, [x28, #144]
    bd68: 01 4f ff 34  	cbz	w1, 0xa748 <__bpf_object__open.part.0+0xb78>
    bd6c: 80 47 40 f9  	ldr	x0, [x28, #136]
    bd70: 21 7c 40 93  	sxtw	x1, w1
    bd74: 03 00 00 90  	adrp	x3, 0xb000 <__bpf_object__open.part.0+0x21a4>
    bd78: 02 07 80 d2  	mov	x2, #56
    bd7c: 63 00 00 91  	add	x3, x3, #0
    bd80: 00 00 00 94  	bl	0xbd80 <__bpf_object__open.part.0+0x21b0>
    bd84: e0 4f 40 f9  	ldr	x0, [sp, #152]
    bd88: 40 0a 00 b4  	cbz	x0, 0xbed0 <__bpf_object__open.part.0+0x2300>
    bd8c: 80 c3 40 f9  	ldr	x0, [x28, #384]
    bd90: 15 00 00 90  	adrp	x21, 0xb000 <__bpf_object__open.part.0+0x21c0>
    bd94: 14 00 80 52  	mov	w20, #0
    bd98: b5 02 00 91  	add	x21, x21, #0
    bd9c: 13 00 80 d2  	mov	x19, #0
    bda0: d0 d2 ff 97  	bl	0x8e0 <find_int_btf_id>
    bda4: e1 03 00 2a  	mov	w1, w0
    bda8: e1 7b 00 b9  	str	w1, [sp, #120]
    bdac: e1 bb 40 b9  	ldr	w1, [sp, #184]
    bdb0: 80 c3 40 f9  	ldr	x0, [x28, #384]
    bdb4: 00 00 00 94  	bl	0xbdb4 <__bpf_object__open.part.0+0x21e4>
    bdb8: f7 03 00 aa  	mov	x23, x0
    bdbc: 83 93 40 b9  	ldr	w3, [x28, #144]
    bdc0: 7f 00 00 71  	cmp	w3, #0
    bdc4: 0d 02 00 54  	b.le	0xbe04 <__bpf_object__open.part.0+0x2234>
    bdc8: 80 47 40 f9  	ldr	x0, [x28, #136]
    bdcc: 02 00 13 8b  	add	x2, x0, x19
    bdd0: 00 68 73 b8  	ldr	w0, [x0, x19]
    bdd4: 1f 08 00 71  	cmp	w0, #2
    bdd8: e1 00 00 54  	b.ne	0xbdf4 <__bpf_object__open.part.0+0x2224>
    bddc: 43 04 40 b9  	ldr	w3, [x2, #4]
    bde0: e1 03 15 aa  	mov	x1, x21
    bde4: 44 08 40 f9  	ldr	x4, [x2, #16]
    bde8: e2 03 14 2a  	mov	w2, w20
    bdec: 00 00 00 94  	bl	0xbdec <__bpf_object__open.part.0+0x221c>
    bdf0: 83 93 40 b9  	ldr	w3, [x28, #144]
    bdf4: 94 06 00 11  	add	w20, w20, #1
    bdf8: 73 e2 00 91  	add	x19, x19, #56
    bdfc: 9f 02 03 6b  	cmp	w20, w3
    be00: 4b fe ff 54  	b.lt	0xbdc8 <__bpf_object__open.part.0+0x21f8>
    be04: e0 4f 40 f9  	ldr	x0, [sp, #152]
    be08: 00 08 40 79  	ldrh	w0, [x0, #4]
    be0c: e0 05 00 34  	cbz	w0, 0xbec8 <__bpf_object__open.part.0+0x22f8>
    be10: e3 4f 40 f9  	ldr	x3, [sp, #152]
    be14: 00 04 00 51  	sub	w0, w0, #1
    be18: 82 01 80 52  	mov	w2, #12
    be1c: 16 00 80 52  	mov	w22, #0
    be20: 61 60 00 91  	add	x1, x3, #24
    be24: 75 30 00 91  	add	x21, x3, #12
    be28: 3b 00 80 52  	mov	w27, #1
    be2c: 1a 04 a2 9b  	umaddl	x26, w0, w2, x1
    be30: a1 02 40 b9  	ldr	w1, [x21]
    be34: 80 c3 40 f9  	ldr	x0, [x28, #384]
    be38: 00 00 00 94  	bl	0xbe38 <__bpf_object__open.part.0+0x2268>
    be3c: 01 00 40 b9  	ldr	w1, [x0]
    be40: f4 03 00 aa  	mov	x20, x0
    be44: 80 c3 40 f9  	ldr	x0, [x28, #384]
    be48: 00 00 00 94  	bl	0xbe48 <__bpf_object__open.part.0+0x2278>
    be4c: f8 03 00 aa  	mov	x24, x0
    be50: 81 93 40 b9  	ldr	w1, [x28, #144]
    be54: 3f 00 00 71  	cmp	w1, #0
    be58: 0d 30 00 54  	b.le	0xc458 <__bpf_object__open.part.0+0x2888>
    be5c: 93 47 40 f9  	ldr	x19, [x28, #136]
    be60: 21 04 00 51  	sub	w1, w1, #1
    be64: 02 07 80 52  	mov	w2, #56
    be68: 60 22 01 91  	add	x0, x19, #72
    be6c: 73 42 00 91  	add	x19, x19, #16
    be70: 39 00 a2 9b  	umaddl	x25, w1, w2, x0
    be74: 04 00 00 14  	b	0xbe84 <__bpf_object__open.part.0+0x22b4>
    be78: 73 e2 00 91  	add	x19, x19, #56
    be7c: 7f 02 19 eb  	cmp	x19, x25
    be80: c0 2e 00 54  	b.eq	0xc458 <__bpf_object__open.part.0+0x2888>
    be84: 60 02 40 f9  	ldr	x0, [x19]
    be88: e1 03 18 aa  	mov	x1, x24
    be8c: 00 00 00 94  	bl	0xbe8c <__bpf_object__open.part.0+0x22bc>
    be90: 40 ff ff 35  	cbnz	w0, 0xbe78 <__bpf_object__open.part.0+0x22a8>
    be94: 80 1e 40 39  	ldrb	w0, [x20, #7]
    be98: 00 10 00 12  	and	w0, w0, #0x1f
    be9c: 1f 30 00 71  	cmp	w0, #12
    bea0: c0 2a 00 54  	b.eq	0xc3f8 <__bpf_object__open.part.0+0x2828>
    bea4: e0 7b 40 b9  	ldr	w0, [sp, #120]
    bea8: 80 6e 01 29  	stp	w0, w27, [x20, #8]
    beac: 80 00 80 52  	mov	w0, #4
    beb0: b6 82 00 29  	stp	w22, w0, [x21, #4]
    beb4: d6 12 00 11  	add	w22, w22, #4
    beb8: b5 32 00 91  	add	x21, x21, #12
    bebc: e0 03 16 2a  	mov	w0, w22
    bec0: bf 02 1a eb  	cmp	x21, x26
    bec4: 61 fb ff 54  	b.ne	0xbe30 <__bpf_object__open.part.0+0x2260>
    bec8: e1 4f 40 f9  	ldr	x1, [sp, #152]
    becc: 20 08 00 b9  	str	w0, [x1, #8]
    bed0: e0 53 40 f9  	ldr	x0, [sp, #160]
    bed4: a0 43 ff b4  	cbz	x0, 0xa748 <__bpf_object__open.part.0+0xb78>
    bed8: 83 93 40 b9  	ldr	w3, [x28, #144]
    bedc: 7f 00 00 71  	cmp	w3, #0
    bee0: cd 03 00 54  	b.le	0xbf58 <__bpf_object__open.part.0+0x2388>
    bee4: f6 ab 40 b9  	ldr	w22, [sp, #168]
    bee8: 15 00 00 90  	adrp	x21, 0xb000 <__bpf_object__open.part.0+0x2318>
    beec: b5 02 00 91  	add	x21, x21, #0
    bef0: 14 00 80 52  	mov	w20, #0
    bef4: 13 00 80 d2  	mov	x19, #0
    bef8: 80 47 40 f9  	ldr	x0, [x28, #136]
    befc: 06 00 13 8b  	add	x6, x0, x19
    bf00: 00 68 73 b8  	ldr	w0, [x0, x19]
    bf04: 1f 04 00 71  	cmp	w0, #1
    bf08: e1 01 00 54  	b.ne	0xbf44 <__bpf_object__open.part.0+0x2374>
    bf0c: c8 9c 44 29  	ldp	w8, w7, [x6, #36]
    bf10: e2 03 14 2a  	mov	w2, w20
    bf14: c3 04 40 b9  	ldr	w3, [x6, #4]
    bf18: e1 03 15 aa  	mov	x1, x21
    bf1c: e4 04 00 51  	sub	w4, w7, #1
    bf20: 40 00 80 52  	mov	w0, #2
    bf24: 84 00 16 0b  	add	w4, w4, w22
    bf28: c5 08 40 f9  	ldr	x5, [x6, #16]
    bf2c: 84 0c c7 1a  	sdiv	w4, w4, w7
    bf30: 84 7c 07 1b  	mul	w4, w4, w7
    bf34: c4 2c 00 b9  	str	w4, [x6, #44]
    bf38: 96 00 08 0b  	add	w22, w4, w8
    bf3c: 00 00 00 94  	bl	0xbf3c <__bpf_object__open.part.0+0x236c>
    bf40: 83 93 40 b9  	ldr	w3, [x28, #144]
    bf44: 94 06 00 11  	add	w20, w20, #1
    bf48: 73 e2 00 91  	add	x19, x19, #56
    bf4c: 9f 02 03 6b  	cmp	w20, w3
    bf50: 4b fd ff 54  	b.lt	0xbef8 <__bpf_object__open.part.0+0x2328>
    bf54: f6 ab 00 b9  	str	w22, [sp, #168]
    bf58: e3 53 40 f9  	ldr	x3, [sp, #160]
    bf5c: e2 ab 40 b9  	ldr	w2, [sp, #168]
    bf60: 60 08 40 79  	ldrh	w0, [x3, #4]
    bf64: 62 08 00 b9  	str	w2, [x3, #8]
    bf68: 00 3f ff 34  	cbz	w0, 0xa748 <__bpf_object__open.part.0+0xb78>
    bf6c: 00 04 00 51  	sub	w0, w0, #1
    bf70: 61 60 00 91  	add	x1, x3, #24
    bf74: 82 01 80 52  	mov	w2, #12
    bf78: 76 30 00 91  	add	x22, x3, #12
    bf7c: 19 07 80 52  	mov	w25, #56
    bf80: 38 00 80 52  	mov	w24, #1
    bf84: 15 04 a2 9b  	umaddl	x21, w0, w2, x1
    bf88: c1 02 40 b9  	ldr	w1, [x22]
    bf8c: 80 c3 40 f9  	ldr	x0, [x28, #384]
    bf90: 00 00 00 94  	bl	0xbf90 <__bpf_object__open.part.0+0x23c0>
    bf94: 01 00 40 b9  	ldr	w1, [x0]
    bf98: f7 03 00 aa  	mov	x23, x0
    bf9c: 80 c3 40 f9  	ldr	x0, [x28, #384]
    bfa0: 00 00 00 94  	bl	0xbfa0 <__bpf_object__open.part.0+0x23d0>
    bfa4: fa 03 00 aa  	mov	x26, x0
    bfa8: 82 93 40 b9  	ldr	w2, [x28, #144]
    bfac: 5f 00 00 71  	cmp	w2, #0
    bfb0: 2d 1d 00 54  	b.le	0xc354 <__bpf_object__open.part.0+0x2784>
    bfb4: 93 47 40 f9  	ldr	x19, [x28, #136]
    bfb8: 42 04 00 51  	sub	w2, w2, #1
    bfbc: 60 e2 00 91  	add	x0, x19, #56
    bfc0: 54 00 b9 9b  	umaddl	x20, w2, w25, x0
    bfc4: 04 00 00 14  	b	0xbfd4 <__bpf_object__open.part.0+0x2404>
    bfc8: 73 e2 00 91  	add	x19, x19, #56
    bfcc: 9f 02 13 eb  	cmp	x20, x19
    bfd0: 20 1c 00 54  	b.eq	0xc354 <__bpf_object__open.part.0+0x2784>
    bfd4: 60 0a 40 f9  	ldr	x0, [x19, #16]
    bfd8: e1 03 1a aa  	mov	x1, x26
    bfdc: 00 00 00 94  	bl	0xbfdc <__bpf_object__open.part.0+0x240c>
    bfe0: 40 ff ff 35  	cbnz	w0, 0xbfc8 <__bpf_object__open.part.0+0x23f8>
    bfe4: 60 2e 40 b9  	ldr	w0, [x19, #44]
    bfe8: d6 32 00 91  	add	x22, x22, #12
    bfec: f8 0e 00 b9  	str	w24, [x23, #12]
    bff0: c0 82 1f b8  	stur	w0, [x22, #-8]
    bff4: df 02 15 eb  	cmp	x22, x21
    bff8: 81 fc ff 54  	b.ne	0xbf88 <__bpf_object__open.part.0+0x23b8>
    bffc: d3 f9 ff 17  	b	0xa748 <__bpf_object__open.part.0+0xb78>
    c000: fb 03 16 aa  	mov	x27, x22
    c004: f9 03 15 aa  	mov	x25, x21
    c008: da 3c 40 92  	and	x26, x6, #0xffff
    c00c: 60 62 40 f9  	ldr	x0, [x19, #192]
    c010: e1 03 1a aa  	mov	x1, x26
    c014: 00 00 00 94  	bl	0xc014 <__bpf_object__open.part.0+0x2444>
    c018: f4 03 00 aa  	mov	x20, x0
    c01c: a0 4a 00 b4  	cbz	x0, 0xc970 <__bpf_object__open.part.0+0x2da0>
    c020: e1 03 14 aa  	mov	x1, x20
    c024: e0 03 13 aa  	mov	x0, x19
    c028: ce e2 ff 97  	bl	0x4b60 <elf_sec_name>
    c02c: 93 f4 81 92  	mov	x19, #-4005
    c030: 22 1b 40 f9  	ldr	x2, [x25, #48]
    c034: e4 03 00 aa  	mov	x4, x0
    c038: e3 03 1b aa  	mov	x3, x27
    c03c: 01 00 00 90  	adrp	x1, 0xc000 <__bpf_object__open.part.0+0x246c>
    c040: 00 00 80 52  	mov	w0, #0
    c044: 21 00 00 91  	add	x1, x1, #0
    c048: 00 00 00 94  	bl	0xc048 <__bpf_object__open.part.0+0x2478>
    c04c: f7 63 44 a9  	ldp	x23, x24, [sp, #64]
    c050: f9 6b 45 a9  	ldp	x25, x26, [sp, #80]
    c054: 59 f7 ff 17  	b	0x9db8 <__bpf_object__open.part.0+0x1e8>
    c058: a2 1a 40 f9  	ldr	x2, [x21, #48]
    c05c: e5 03 00 2a  	mov	w5, w0
    c060: e3 03 16 aa  	mov	x3, x22
    c064: 01 00 00 90  	adrp	x1, 0xc000 <__bpf_object__open.part.0+0x2494>
    c068: 00 00 80 52  	mov	w0, #0
    c06c: 21 00 00 91  	add	x1, x1, #0
    c070: 93 f4 81 92  	mov	x19, #-4005
    c074: 00 00 00 94  	bl	0xc074 <__bpf_object__open.part.0+0x24a4>
    c078: f7 63 44 a9  	ldp	x23, x24, [sp, #64]
    c07c: f9 6b 45 a9  	ldp	x25, x26, [sp, #80]
    c080: 4e f7 ff 17  	b	0x9db8 <__bpf_object__open.part.0+0x1e8>
    c084: 94 06 00 91  	add	x20, x20, #1
    c088: f5 43 00 f9  	str	x21, [sp, #128]
    c08c: cb f7 ff 17  	b	0x9fb8 <__bpf_object__open.part.0+0x3e8>
    c090: e2 03 18 2a  	mov	w2, w24
    c094: e3 03 14 aa  	mov	x3, x20
    c098: 01 00 00 90  	adrp	x1, 0xc000 <__bpf_object__open.part.0+0x24c8>
    c09c: 00 00 80 52  	mov	w0, #0
    c0a0: 21 00 00 91  	add	x1, x1, #0
    c0a4: 93 f4 81 92  	mov	x19, #-4005
    c0a8: 00 00 00 94  	bl	0xc0a8 <__bpf_object__open.part.0+0x24d8>
    c0ac: f7 63 44 a9  	ldp	x23, x24, [sp, #64]
    c0b0: f9 6b 45 a9  	ldp	x25, x26, [sp, #80]
    c0b4: 41 f7 ff 17  	b	0x9db8 <__bpf_object__open.part.0+0x1e8>
    c0b8: e2 03 18 2a  	mov	w2, w24
    c0bc: 01 00 00 90  	adrp	x1, 0xc000 <__bpf_object__open.part.0+0x24ec>
    c0c0: 13 f4 81 92  	mov	x19, #-4001
    c0c4: 21 00 00 91  	add	x1, x1, #0
    c0c8: 00 00 00 94  	bl	0xc0c8 <__bpf_object__open.part.0+0x24f8>
    c0cc: f7 63 44 a9  	ldp	x23, x24, [sp, #64]
    c0d0: f9 6b 45 a9  	ldp	x25, x26, [sp, #80]
    c0d4: 39 f7 ff 17  	b	0x9db8 <__bpf_object__open.part.0+0x1e8>
    c0d8: e3 27 41 b9  	ldr	w3, [sp, #292]
    c0dc: e2 03 18 2a  	mov	w2, w24
    c0e0: 01 00 00 90  	adrp	x1, 0xc000 <__bpf_object__open.part.0+0x2510>
    c0e4: 13 f4 81 92  	mov	x19, #-4001
    c0e8: 21 00 00 91  	add	x1, x1, #0
    c0ec: 00 00 00 94  	bl	0xc0ec <__bpf_object__open.part.0+0x251c>
    c0f0: f7 63 44 a9  	ldp	x23, x24, [sp, #64]
    c0f4: f9 6b 45 a9  	ldp	x25, x26, [sp, #80]
    c0f8: 30 f7 ff 17  	b	0x9db8 <__bpf_object__open.part.0+0x1e8>
    c0fc: 67 98 40 b9  	ldr	w7, [x3, #152]
    c100: fa 03 17 aa  	mov	x26, x23
    c104: 66 a4 40 b9  	ldr	w6, [x3, #164]
    c108: e9 03 03 aa  	mov	x9, x3
    c10c: 65 94 00 b9  	str	w5, [x3, #148]
    c110: 05 fd ff 17  	b	0xb524 <__bpf_object__open.part.0+0x1954>
    c114: e2 77 40 f9  	ldr	x2, [sp, #232]
    c118: 01 00 00 90  	adrp	x1, 0xc000 <__bpf_object__open.part.0+0x2548>
    c11c: 53 f4 81 92  	mov	x19, #-4003
    c120: 21 00 00 91  	add	x1, x1, #0
    c124: 00 00 00 94  	bl	0xc124 <__bpf_object__open.part.0+0x2554>
    c128: 24 f7 ff 17  	b	0x9db8 <__bpf_object__open.part.0+0x1e8>
    c12c: e0 43 40 f9  	ldr	x0, [sp, #128]
    c130: 33 00 80 12  	mov	w19, #-2
    c134: 80 01 00 b4  	cbz	x0, 0xc164 <__bpf_object__open.part.0+0x2594>
    c138: 80 c3 40 f9  	ldr	x0, [x28, #384]
    c13c: 40 0e ff b5  	cbnz	x0, 0xa304 <__bpf_object__open.part.0+0x734>
    c140: 03 00 00 90  	adrp	x3, 0xc000 <__bpf_object__open.part.0+0x2570>
    c144: 02 00 00 90  	adrp	x2, 0xc000 <__bpf_object__open.part.0+0x2574>
    c148: 01 00 00 90  	adrp	x1, 0xc000 <__bpf_object__open.part.0+0x2578>
    c14c: 63 00 00 91  	add	x3, x3, #0
    c150: 42 00 00 91  	add	x2, x2, #0
    c154: 21 00 00 91  	add	x1, x1, #0
    c158: 40 00 80 52  	mov	w0, #2
    c15c: 33 00 80 12  	mov	w19, #-2
    c160: 00 00 00 94  	bl	0xc160 <__bpf_object__open.part.0+0x2590>
    c164: 80 53 41 b9  	ldr	w0, [x28, #336]
    c168: 20 33 f8 37  	tbnz	w0, #31, 0xc7cc <__bpf_object__open.part.0+0x2bfc>
    c16c: 01 00 00 90  	adrp	x1, 0xc000 <__bpf_object__open.part.0+0x259c>
    c170: 00 00 80 52  	mov	w0, #0
    c174: 21 00 00 91  	add	x1, x1, #0
    c178: 73 7e 40 93  	sxtw	x19, w19
    c17c: 00 00 00 94  	bl	0xc17c <__bpf_object__open.part.0+0x25ac>
    c180: f7 63 44 a9  	ldp	x23, x24, [sp, #64]
    c184: f9 6b 45 a9  	ldp	x25, x26, [sp, #80]
    c188: 0c f7 ff 17  	b	0x9db8 <__bpf_object__open.part.0+0x1e8>
    c18c: 00 00 00 94  	bl	0xc18c <__bpf_object__open.part.0+0x25bc>
    c190: e1 03 14 4b  	neg	w1, w20
    c194: 01 00 00 b9  	str	w1, [x0]
    c198: 00 00 00 94  	bl	0xc198 <__bpf_object__open.part.0+0x25c8>
    c19c: 13 00 40 b9  	ldr	w19, [x0]
    c1a0: 53 0a ff 34  	cbz	w19, 0xa2e8 <__bpf_object__open.part.0+0x718>
    c1a4: 9f c3 00 f9  	str	xzr, [x28, #384]
    c1a8: f3 03 13 4b  	neg	w19, w19
    c1ac: e3 03 13 2a  	mov	w3, w19
    c1b0: 02 00 00 90  	adrp	x2, 0xc000 <__bpf_object__open.part.0+0x25e0>
    c1b4: 01 00 00 90  	adrp	x1, 0xc000 <__bpf_object__open.part.0+0x25e4>
    c1b8: 42 00 00 91  	add	x2, x2, #0
    c1bc: 21 00 00 91  	add	x1, x1, #0
    c1c0: 00 00 80 52  	mov	w0, #0
    c1c4: 00 00 00 94  	bl	0xc1c4 <__bpf_object__open.part.0+0x25f4>
    c1c8: e7 ff ff 17  	b	0xc164 <__bpf_object__open.part.0+0x2594>
    c1cc: 13 7c 40 93  	sxtw	x19, w0
    c1d0: 01 00 00 90  	adrp	x1, 0xc000 <__bpf_object__open.part.0+0x2600>
    c1d4: 00 00 80 52  	mov	w0, #0
    c1d8: 21 00 00 91  	add	x1, x1, #0
    c1dc: 00 00 00 94  	bl	0xc1dc <__bpf_object__open.part.0+0x260c>
    c1e0: f7 63 44 a9  	ldp	x23, x24, [sp, #64]
    c1e4: f9 6b 45 a9  	ldp	x25, x26, [sp, #80]
    c1e8: f4 f6 ff 17  	b	0x9db8 <__bpf_object__open.part.0+0x1e8>
    c1ec: 00 00 80 12  	mov	w0, #-1
    c1f0: 00 00 00 94  	bl	0xc1f0 <__bpf_object__open.part.0+0x2620>
    c1f4: e3 77 40 f9  	ldr	x3, [sp, #232]
    c1f8: e4 03 00 aa  	mov	x4, x0
    c1fc: e2 03 14 aa  	mov	x2, x20
    c200: 01 00 00 90  	adrp	x1, 0xc000 <__bpf_object__open.part.0+0x2630>
    c204: 00 00 80 52  	mov	w0, #0
    c208: 21 00 00 91  	add	x1, x1, #0
    c20c: 00 00 00 94  	bl	0xc20c <__bpf_object__open.part.0+0x263c>
    c210: 4f f8 ff 17  	b	0xa34c <__bpf_object__open.part.0+0x77c>
    c214: fb 03 16 aa  	mov	x27, x22
    c218: f9 03 15 aa  	mov	x25, x21
    c21c: 22 1b 40 f9  	ldr	x2, [x25, #48]
    c220: e3 03 1b aa  	mov	x3, x27
    c224: 01 00 00 90  	adrp	x1, 0xc000 <__bpf_object__open.part.0+0x2654>
    c228: 00 00 80 52  	mov	w0, #0
    c22c: 21 00 00 91  	add	x1, x1, #0
    c230: 93 f4 81 92  	mov	x19, #-4005
    c234: 00 00 00 94  	bl	0xc234 <__bpf_object__open.part.0+0x2664>
    c238: f7 63 44 a9  	ldp	x23, x24, [sp, #64]
    c23c: f9 6b 45 a9  	ldp	x25, x26, [sp, #80]
    c240: de f6 ff 17  	b	0x9db8 <__bpf_object__open.part.0+0x1e8>
    c244: f3 03 13 4b  	neg	w19, w19
    c248: 00 00 00 94  	bl	0xc248 <__bpf_object__open.part.0+0x2678>
    c24c: 13 00 00 b9  	str	w19, [x0]
    c250: 00 00 00 94  	bl	0xc250 <__bpf_object__open.part.0+0x2680>
    c254: 13 00 40 b9  	ldr	w19, [x0]
    c258: b3 06 ff 34  	cbz	w19, 0xa32c <__bpf_object__open.part.0+0x75c>
    c25c: f3 03 13 4b  	neg	w19, w19
    c260: 02 00 00 90  	adrp	x2, 0xc000 <__bpf_object__open.part.0+0x2690>
    c264: e3 03 13 2a  	mov	w3, w19
    c268: 42 00 00 91  	add	x2, x2, #0
    c26c: 01 00 00 90  	adrp	x1, 0xc000 <__bpf_object__open.part.0+0x269c>
    c270: 00 00 80 52  	mov	w0, #0
    c274: 21 00 00 91  	add	x1, x1, #0
    c278: 00 00 00 94  	bl	0xc278 <__bpf_object__open.part.0+0x26a8>
    c27c: 9f c7 00 f9  	str	xzr, [x28, #392]
    c280: b9 ff ff 17  	b	0xc164 <__bpf_object__open.part.0+0x2594>
    c284: e4 9f 40 f9  	ldr	x4, [sp, #312]
    c288: e3 03 13 aa  	mov	x3, x19
    c28c: e2 03 17 2a  	mov	w2, w23
    c290: 01 00 00 90  	adrp	x1, 0xc000 <__bpf_object__open.part.0+0x26c0>
    c294: 20 00 80 52  	mov	w0, #1
    c298: 21 00 00 91  	add	x1, x1, #0
    c29c: 94 06 00 91  	add	x20, x20, #1
    c2a0: 00 00 00 94  	bl	0xc2a0 <__bpf_object__open.part.0+0x26d0>
    c2a4: 45 f7 ff 17  	b	0x9fb8 <__bpf_object__open.part.0+0x3e8>
    c2a8: e0 47 41 b9  	ldr	w0, [sp, #324]
    c2ac: 82 a3 40 f9  	ldr	x2, [x28, #320]
    c2b0: e2 4b 00 f9  	str	x2, [sp, #144]
    c2b4: 16 7c 40 93  	sxtw	x22, w0
    c2b8: 81 4b 41 b9  	ldr	w1, [x28, #328]
    c2bc: 80 63 40 f9  	ldr	x0, [x28, #192]
    c2c0: e1 7b 00 b9  	str	w1, [sp, #120]
    c2c4: e1 03 16 aa  	mov	x1, x22
    c2c8: f6 9b 00 b9  	str	w22, [sp, #152]
    c2cc: 00 00 00 94  	bl	0xc2cc <__bpf_object__open.part.0+0x26fc>
    c2d0: e5 03 00 aa  	mov	x5, x0
    c2d4: 20 3a 00 b4  	cbz	x0, 0xca18 <__bpf_object__open.part.0+0x2e48>
    c2d8: e1 03 05 aa  	mov	x1, x5
    c2dc: e2 63 05 91  	add	x2, sp, #344
    c2e0: e0 03 1c aa  	mov	x0, x28
    c2e4: 9f d4 ff 97  	bl	0x1560 <elf_sec_hdr>
    c2e8: e0 35 00 35  	cbnz	w0, 0xc9a4 <__bpf_object__open.part.0+0x2dd4>
    c2ec: e0 b3 40 f9  	ldr	x0, [sp, #352]
    c2f0: a0 35 10 36  	tbz	w0, #2, 0xc9a4 <__bpf_object__open.part.0+0x2dd4>
    c2f4: e0 7b 40 b9  	ldr	w0, [sp, #120]
    c2f8: 13 09 80 d2  	mov	x19, #72
    c2fc: 00 04 00 11  	add	w0, w0, #1
    c300: 00 7c 40 93  	sxtw	x0, w0
    c304: 02 7c d3 9b  	umulh	x2, x0, x19
    c308: 01 7c 13 9b  	mul	x1, x0, x19
    c30c: e2 69 ff b5  	cbnz	x2, 0xb048 <__bpf_object__open.part.0+0x1478>
    c310: e0 4b 40 f9  	ldr	x0, [sp, #144]
    c314: 00 00 00 94  	bl	0xc314 <__bpf_object__open.part.0+0x2744>
    c318: e1 03 00 aa  	mov	x1, x0
    c31c: 60 69 ff b4  	cbz	x0, 0xb048 <__bpf_object__open.part.0+0x1478>
    c320: e0 7b 40 b9  	ldr	w0, [sp, #120]
    c324: 94 06 00 91  	add	x20, x20, #1
    c328: 82 4b 41 b9  	ldr	w2, [x28, #328]
    c32c: 20 07 40 ad  	ldp	q0, q1, [x25]
    c330: 42 04 00 11  	add	w2, w2, #1
    c334: 00 04 33 9b  	smaddl	x0, w0, w19, x1
    c338: 81 a3 00 f9  	str	x1, [x28, #320]
    c33c: 82 4b 01 b9  	str	w2, [x28, #328]
    c340: 00 04 00 ad  	stp	q0, q1, [x0]
    c344: 20 07 41 ad  	ldp	q0, q1, [x25, #32]
    c348: 15 20 00 f9  	str	x21, [x0, #64]
    c34c: 00 04 01 ad  	stp	q0, q1, [x0, #32]
    c350: 1a f7 ff 17  	b	0x9fb8 <__bpf_object__open.part.0+0x3e8>
    c354: e2 03 1a aa  	mov	x2, x26
    c358: 01 00 00 90  	adrp	x1, 0xc000 <__bpf_object__open.part.0+0x2788>
    c35c: 00 00 80 52  	mov	w0, #0
    c360: 21 00 00 91  	add	x1, x1, #0
    c364: 53 00 80 92  	mov	x19, #-3
    c368: 00 00 00 94  	bl	0xc368 <__bpf_object__open.part.0+0x2798>
    c36c: f7 63 44 a9  	ldp	x23, x24, [sp, #64]
    c370: f9 6b 45 a9  	ldp	x25, x26, [sp, #80]
    c374: 91 f6 ff 17  	b	0x9db8 <__bpf_object__open.part.0+0x1e8>
    c378: 03 00 00 90  	adrp	x3, 0xc000 <__bpf_object__open.part.0+0x27a8>
    c37c: 02 00 00 90  	adrp	x2, 0xc000 <__bpf_object__open.part.0+0x27ac>
    c380: 63 00 00 91  	add	x3, x3, #0
    c384: 42 00 00 91  	add	x2, x2, #0
    c388: 01 00 00 90  	adrp	x1, 0xc000 <__bpf_object__open.part.0+0x27b8>
    c38c: 40 00 80 52  	mov	w0, #2
    c390: 21 00 00 91  	add	x1, x1, #0
    c394: 00 00 00 94  	bl	0xc394 <__bpf_object__open.part.0+0x27c4>
    c398: e5 f7 ff 17  	b	0xa32c <__bpf_object__open.part.0+0x75c>
    c39c: 00 00 80 12  	mov	w0, #-1
    c3a0: 00 00 00 94  	bl	0xc3a0 <__bpf_object__open.part.0+0x27d0>
    c3a4: e3 77 40 f9  	ldr	x3, [sp, #232]
    c3a8: e4 03 00 aa  	mov	x4, x0
    c3ac: e2 03 13 aa  	mov	x2, x19
    c3b0: 00 00 80 52  	mov	w0, #0
    c3b4: 01 00 00 90  	adrp	x1, 0xc000 <__bpf_object__open.part.0+0x27e4>
    c3b8: 21 00 00 91  	add	x1, x1, #0
    c3bc: 00 00 00 94  	bl	0xc3bc <__bpf_object__open.part.0+0x27ec>
    c3c0: e0 03 1c aa  	mov	x0, x28
    c3c4: 01 00 80 d2  	mov	x1, #0
    c3c8: 26 e2 ff 97  	bl	0x4c60 <elf_sec_data>
    c3cc: e3 77 40 f9  	ldr	x3, [sp, #232]
    c3d0: 02 00 00 90  	adrp	x2, 0xc000 <__bpf_object__open.part.0+0x2800>
    c3d4: 01 00 00 90  	adrp	x1, 0xc000 <__bpf_object__open.part.0+0x2804>
    c3d8: 42 00 00 91  	add	x2, x2, #0
    c3dc: 21 00 00 91  	add	x1, x1, #0
    c3e0: 00 00 80 52  	mov	w0, #0
    c3e4: b3 02 80 92  	mov	x19, #-22
    c3e8: 00 00 00 94  	bl	0xc3e8 <__bpf_object__open.part.0+0x2818>
    c3ec: f7 63 44 a9  	ldp	x23, x24, [sp, #64]
    c3f0: f9 6b 45 a9  	ldp	x25, x26, [sp, #80]
    c3f4: 71 f6 ff 17  	b	0x9db8 <__bpf_object__open.part.0+0x1e8>
    c3f8: 81 0a 40 b9  	ldr	w1, [x20, #8]
    c3fc: 80 c3 40 f9  	ldr	x0, [x28, #384]
    c400: 00 00 00 94  	bl	0xc400 <__bpf_object__open.part.0+0x2830>
    c404: 01 08 40 79  	ldrh	w1, [x0, #4]
    c408: c1 01 00 34  	cbz	w1, 0xc440 <__bpf_object__open.part.0+0x2870>
    c40c: 21 04 00 51  	sub	w1, w1, #1
    c410: 02 50 00 91  	add	x2, x0, #20
    c414: 00 30 00 91  	add	x0, x0, #12
    c418: 41 4c 21 8b  	add	x1, x2, w1, uxtw #3
    c41c: 02 04 40 b9  	ldr	w2, [x0, #4]
    c420: a2 00 00 34  	cbz	w2, 0xc434 <__bpf_object__open.part.0+0x2864>
    c424: 02 00 40 b9  	ldr	w2, [x0]
    c428: 62 00 00 35  	cbnz	w2, 0xc434 <__bpf_object__open.part.0+0x2864>
    c42c: e2 02 40 b9  	ldr	w2, [x23]
    c430: 02 00 00 b9  	str	w2, [x0]
    c434: 00 20 00 91  	add	x0, x0, #8
    c438: 3f 00 00 eb  	cmp	x1, x0
    c43c: 01 ff ff 54  	b.ne	0xc41c <__bpf_object__open.part.0+0x284c>
    c440: e0 bb 40 b9  	ldr	w0, [sp, #184]
    c444: a0 02 00 b9  	str	w0, [x21]
    c448: 80 06 40 b9  	ldr	w0, [x20, #4]
    c44c: 20 00 80 72  	movk	w0, #1
    c450: 80 06 00 b9  	str	w0, [x20, #4]
    c454: 96 fe ff 17  	b	0xbeac <__bpf_object__open.part.0+0x22dc>
    c458: 80 1e 40 39  	ldrb	w0, [x20, #7]
    c45c: e3 03 18 aa  	mov	x3, x24
    c460: 53 00 80 92  	mov	x19, #-3
    c464: 00 10 00 12  	and	w0, w0, #0x1f
    c468: e6 ce ff 97  	bl	0x0 <__btf_kind_str>
    c46c: 01 00 00 90  	adrp	x1, 0xc000 <__bpf_object__open.part.0+0x289c>
    c470: e2 03 00 aa  	mov	x2, x0
    c474: 21 00 00 91  	add	x1, x1, #0
    c478: 00 00 80 52  	mov	w0, #0
    c47c: 00 00 00 94  	bl	0xc47c <__bpf_object__open.part.0+0x28ac>
    c480: f7 63 44 a9  	ldp	x23, x24, [sp, #64]
    c484: f9 6b 45 a9  	ldp	x25, x26, [sp, #80]
    c488: 4c f6 ff 17  	b	0x9db8 <__bpf_object__open.part.0+0x1e8>
    c48c: a0 0a 40 f9  	ldr	x0, [x21, #16]
    c490: e0 57 00 f9  	str	x0, [sp, #168]
    c494: 80 ef ff b4  	cbz	x0, 0xc284 <__bpf_object__open.part.0+0x26b4>
    c498: e0 93 40 f9  	ldr	x0, [sp, #288]
    c49c: e0 38 10 36  	tbz	w0, #2, 0xcbb8 <__bpf_object__open.part.0+0x2fe8>
    c4a0: 01 00 00 90  	adrp	x1, 0xc000 <__bpf_object__open.part.0+0x28d0>
    c4a4: e0 03 13 aa  	mov	x0, x19
    c4a8: 21 00 00 91  	add	x1, x1, #0
    c4ac: 00 00 00 94  	bl	0xc4ac <__bpf_object__open.part.0+0x28dc>
    c4b0: 40 00 00 35  	cbnz	w0, 0xc4b8 <__bpf_object__open.part.0+0x28e8>
    c4b4: 97 5b 01 b9  	str	w23, [x28, #344]
    c4b8: 80 87 40 f9  	ldr	x0, [x28, #264]
    c4bc: 01 03 80 d2  	mov	x1, #24
    c4c0: a2 02 40 f9  	ldr	x2, [x21]
    c4c4: e2 83 0b a9  	stp	x2, x0, [sp, #184]
    c4c8: 00 08 40 f9  	ldr	x0, [x0, #16]
    c4cc: 82 2f 40 f9  	ldr	x2, [x28, #88]
    c4d0: 01 08 c1 9a  	udiv	x1, x0, x1
    c4d4: e1 67 00 f9  	str	x1, [sp, #200]
    c4d8: 81 63 40 b9  	ldr	w1, [x28, #96]
    c4dc: e1 93 00 b9  	str	w1, [sp, #144]
    c4e0: 1f 5c 00 f1  	cmp	x0, #23
    c4e4: 69 e1 fe 54  	b.ls	0xa110 <__bpf_object__open.part.0+0x540>
    c4e8: e0 63 05 91  	add	x0, sp, #344
    c4ec: ff 4f 00 f9  	str	xzr, [sp, #152]
    c4f0: e0 e3 0d a9  	stp	x0, x24, [sp, #216]
    c4f4: f8 03 02 aa  	mov	x24, x2
    c4f8: fb 67 0f a9  	stp	x27, x25, [sp, #240]
    c4fc: 07 00 00 14  	b	0xc518 <__bpf_object__open.part.0+0x2948>
    c500: e0 4f 40 f9  	ldr	x0, [sp, #152]
    c504: e1 67 40 f9  	ldr	x1, [sp, #200]
    c508: 00 04 00 91  	add	x0, x0, #1
    c50c: e0 4f 00 f9  	str	x0, [sp, #152]
    c510: 3f 00 00 eb  	cmp	x1, x0
    c514: 49 36 00 54  	b.ls	0xcbdc <__bpf_object__open.part.0+0x300c>
    c518: e1 9b 40 b9  	ldr	w1, [sp, #152]
    c51c: e0 63 40 f9  	ldr	x0, [sp, #192]
    c520: e2 6f 40 f9  	ldr	x2, [sp, #216]
    c524: 00 00 00 94  	bl	0xc524 <__bpf_object__open.part.0+0x2954>
    c528: c0 fe ff b4  	cbz	x0, 0xc500 <__bpf_object__open.part.0+0x2930>
    c52c: f5 bf 42 79  	ldrh	w21, [sp, #350]
    c530: bf 02 14 6b  	cmp	w21, w20
    c534: 61 fe ff 54  	b.ne	0xc500 <__bpf_object__open.part.0+0x2930>
    c538: e0 73 45 39  	ldrb	w0, [sp, #348]
    c53c: 00 0c 00 12  	and	w0, w0, #0xf
    c540: 1f 08 00 71  	cmp	w0, #2
    c544: e1 fd ff 54  	b.ne	0xc500 <__bpf_object__open.part.0+0x2930>
    c548: 80 63 40 f9  	ldr	x0, [x28, #192]
    c54c: 81 9f 40 f9  	ldr	x1, [x28, #312]
    c550: f7 5b 41 b9  	ldr	w23, [sp, #344]
    c554: fb 5b 56 a9  	ldp	x27, x22, [sp, #352]
    c558: e2 03 17 aa  	mov	x2, x23
    c55c: 00 00 00 94  	bl	0xc55c <__bpf_object__open.part.0+0x298c>
    c560: e0 3f 00 f9  	str	x0, [sp, #120]
    c564: e0 2e 00 b4  	cbz	x0, 0xcb40 <__bpf_object__open.part.0+0x2f70>
    c568: e1 57 40 f9  	ldr	x1, [sp, #168]
    c56c: c0 02 1b 8b  	add	x0, x22, x27
    c570: 3f 00 00 eb  	cmp	x1, x0
    c574: 23 2d 00 54  	b.lo	0xcb18 <__bpf_object__open.part.0+0x2f48>
    c578: 80 5b 41 b9  	ldr	w0, [x28, #344]
    c57c: 1f 00 15 6b  	cmp	w0, w21
    c580: 80 00 00 54  	b.eq	0xc590 <__bpf_object__open.part.0+0x29c0>
    c584: e0 73 45 39  	ldrb	w0, [sp, #348]
    c588: ff 13 40 6b  	cmp	wzr, w0, lsr #4
    c58c: 20 30 00 54  	b.eq	0xcb90 <__bpf_object__open.part.0+0x2fc0>
    c590: e0 93 40 b9  	ldr	w0, [sp, #144]
    c594: 17 1b 80 d2  	mov	x23, #216
    c598: e3 3f 40 f9  	ldr	x3, [sp, #120]
    c59c: 00 04 00 11  	add	w0, w0, #1
    c5a0: e1 53 40 f9  	ldr	x1, [sp, #160]
    c5a4: 15 7c 40 93  	sxtw	x21, w0
    c5a8: 64 ff 43 d3  	lsr	x4, x27, #3
    c5ac: c6 fe 43 d3  	lsr	x6, x22, #3
    c5b0: e7 03 16 aa  	mov	x7, x22
    c5b4: e5 03 1b aa  	mov	x5, x27
    c5b8: e2 03 13 aa  	mov	x2, x19
    c5bc: e0 d3 00 b9  	str	w0, [sp, #208]
    c5c0: 40 00 80 52  	mov	w0, #2
    c5c4: e6 13 10 a9  	stp	x6, x4, [sp, #256]
    c5c8: 00 00 00 94  	bl	0xc5c8 <__bpf_object__open.part.0+0x29f8>
    c5cc: a0 7e d7 9b  	umulh	x0, x21, x23
    c5d0: a1 7e 17 9b  	mul	x1, x21, x23
    c5d4: e0 28 00 b5  	cbnz	x0, 0xcaf0 <__bpf_object__open.part.0+0x2f20>
    c5d8: e0 03 18 aa  	mov	x0, x24
    c5dc: 00 00 00 94  	bl	0xc5dc <__bpf_object__open.part.0+0x2a0c>
    c5e0: f8 03 00 aa  	mov	x24, x0
    c5e4: e6 13 50 a9  	ldp	x6, x4, [sp, #256]
    c5e8: 40 28 00 b4  	cbz	x0, 0xcaf0 <__bpf_object__open.part.0+0x2f20>
    c5ec: e0 5f 40 f9  	ldr	x0, [sp, #184]
    c5f0: e3 03 17 2a  	mov	w3, w23
    c5f4: 98 2f 00 f9  	str	x24, [x28, #88]
    c5f8: 17 00 1b 8b  	add	x23, x0, x27
    c5fc: e0 93 40 b9  	ldr	w0, [sp, #144]
    c600: 19 60 23 9b  	smaddl	x25, w0, w3, x24
    c604: f6 25 00 b4  	cbz	x22, 0xcac0 <__bpf_object__open.part.0+0x2ef0>
    c608: c0 02 1b aa  	orr	x0, x22, x27
    c60c: 1f 08 40 f2  	tst	x0, #0x7
    c610: 81 25 00 54  	b.ne	0xcac0 <__bpf_object__open.part.0+0x2ef0>
    c614: 00 04 00 4f  	movi	v0.4s, #0
    c618: 21 00 80 52  	mov	w1, #1
    c61c: 02 00 80 12  	mov	w2, #-1
    c620: 3f 6b 00 f9  	str	xzr, [x25, #208]
    c624: e0 03 13 aa  	mov	x0, x19
    c628: 20 03 00 ad  	stp	q0, q0, [x25]
    c62c: 20 03 01 ad  	stp	q0, q0, [x25, #32]
    c630: 20 03 02 ad  	stp	q0, q0, [x25, #64]
    c634: 20 03 03 ad  	stp	q0, q0, [x25, #96]
    c638: 20 03 04 ad  	stp	q0, q0, [x25, #128]
    c63c: 34 13 01 a9  	stp	x20, x4, [x25, #16]
    c640: 26 13 00 f9  	str	x6, [x25, #32]
    c644: 26 27 00 f9  	str	x6, [x25, #72]
    c648: 22 63 00 b9  	str	w2, [x25, #96]
    c64c: 3c 3f 00 f9  	str	x28, [x25, #120]
    c650: 21 43 02 39  	strb	w1, [x25, #144]
    c654: 20 03 05 ad  	stp	q0, q0, [x25, #160]
    c658: 20 33 80 3d  	str	q0, [x25, #192]
    c65c: 00 00 00 94  	bl	0xc65c <__bpf_object__open.part.0+0x2a8c>
    c660: fb 03 00 aa  	mov	x27, x0
    c664: 20 07 00 f9  	str	x0, [x25, #8]
    c668: 00 21 00 b4  	cbz	x0, 0xca88 <__bpf_object__open.part.0+0x2eb8>
    c66c: e0 3f 40 f9  	ldr	x0, [sp, #120]
    c670: 00 00 00 94  	bl	0xc670 <__bpf_object__open.part.0+0x2aa0>
    c674: 20 1b 00 f9  	str	x0, [x25, #48]
    c678: 80 20 00 b4  	cbz	x0, 0xca88 <__bpf_object__open.part.0+0x2eb8>
    c67c: e0 03 1b aa  	mov	x0, x27
    c680: 00 00 00 94  	bl	0xc680 <__bpf_object__open.part.0+0x2ab0>
    c684: fb 03 00 aa  	mov	x27, x0
    c688: 03 00 00 14  	b	0xc694 <__bpf_object__open.part.0+0x2ac4>
    c68c: e1 0b 80 52  	mov	w1, #95
    c690: 01 00 00 39  	strb	w1, [x0]
    c694: e1 05 80 52  	mov	w1, #47
    c698: 00 00 00 94  	bl	0xc698 <__bpf_object__open.part.0+0x2ac8>
    c69c: 80 ff ff b5  	cbnz	x0, 0xc68c <__bpf_object__open.part.0+0x2abc>
    c6a0: 3b 1f 00 f9  	str	x27, [x25, #56]
    c6a4: 3b 1f 00 b4  	cbz	x27, 0xca88 <__bpf_object__open.part.0+0x2eb8>
    c6a8: e0 03 16 aa  	mov	x0, x22
    c6ac: 00 00 00 94  	bl	0xc6ac <__bpf_object__open.part.0+0x2adc>
    c6b0: 20 23 00 f9  	str	x0, [x25, #64]
    c6b4: a0 1e 00 b4  	cbz	x0, 0xca88 <__bpf_object__open.part.0+0x2eb8>
    c6b8: e2 03 16 aa  	mov	x2, x22
    c6bc: e1 03 17 aa  	mov	x1, x23
    c6c0: 00 00 00 94  	bl	0xc6c0 <__bpf_object__open.part.0+0x2af0>
    c6c4: e0 73 45 39  	ldrb	w0, [sp, #348]
    c6c8: ff 13 40 6b  	cmp	wzr, w0, lsr #4
    c6cc: 00 01 00 54  	b.eq	0xc6ec <__bpf_object__open.part.0+0x2b1c>
    c6d0: e0 77 45 39  	ldrb	w0, [sp, #349]
    c6d4: 00 04 00 12  	and	w0, w0, #0x3
    c6d8: 00 04 00 51  	sub	w0, w0, #1
    c6dc: 1f 04 00 71  	cmp	w0, #1
    c6e0: 68 00 00 54  	b.hi	0xc6ec <__bpf_object__open.part.0+0x2b1c>
    c6e4: 20 00 80 52  	mov	w0, #1
    c6e8: 20 47 02 39  	strb	w0, [x25, #145]
    c6ec: e0 d3 40 b9  	ldr	w0, [sp, #208]
    c6f0: 95 33 00 f9  	str	x21, [x28, #96]
    c6f4: e0 93 00 b9  	str	w0, [sp, #144]
    c6f8: 82 ff ff 17  	b	0xc500 <__bpf_object__open.part.0+0x2930>
    c6fc: e2 77 40 f9  	ldr	x2, [sp, #232]
    c700: 01 00 00 90  	adrp	x1, 0xc000 <__bpf_object__open.part.0+0x2b30>
    c704: 13 f4 81 92  	mov	x19, #-4001
    c708: 21 00 00 91  	add	x1, x1, #0
    c70c: 00 00 00 94  	bl	0xc70c <__bpf_object__open.part.0+0x2b3c>
    c710: f7 63 44 a9  	ldp	x23, x24, [sp, #64]
    c714: f9 6b 45 a9  	ldp	x25, x26, [sp, #80]
    c718: a8 f5 ff 17  	b	0x9db8 <__bpf_object__open.part.0+0x1e8>
    c71c: 40 00 80 12  	mov	w0, #-3
    c720: f9 03 18 2a  	mov	w25, w24
    c724: e4 03 00 2a  	mov	w4, w0
    c728: 80 0e 00 b9  	str	w0, [x20, #12]
    c72c: d1 fc ff 17  	b	0xba70 <__bpf_object__open.part.0+0x1ea0>
    c730: 13 f4 81 92  	mov	x19, #-4001
    c734: f7 63 44 a9  	ldp	x23, x24, [sp, #64]
    c738: f9 6b 45 a9  	ldp	x25, x26, [sp, #80]
    c73c: 9f f5 ff 17  	b	0x9db8 <__bpf_object__open.part.0+0x1e8>
    c740: e2 03 15 aa  	mov	x2, x21
    c744: 01 00 00 90  	adrp	x1, 0xc000 <__bpf_object__open.part.0+0x2b74>
    c748: d3 0b 80 92  	mov	x19, #-95
    c74c: 21 00 00 91  	add	x1, x1, #0
    c750: 00 00 00 94  	bl	0xc750 <__bpf_object__open.part.0+0x2b80>
    c754: f7 63 44 a9  	ldp	x23, x24, [sp, #64]
    c758: f9 6b 45 a9  	ldp	x25, x26, [sp, #80]
    c75c: 97 f5 ff 17  	b	0x9db8 <__bpf_object__open.part.0+0x1e8>
    c760: 82 0a 40 f9  	ldr	x2, [x20, #16]
    c764: e3 03 01 aa  	mov	x3, x1
    c768: d3 0b 80 92  	mov	x19, #-95
    c76c: 01 00 00 90  	adrp	x1, 0xc000 <__bpf_object__open.part.0+0x2b9c>
    c770: 21 00 00 91  	add	x1, x1, #0
    c774: 00 00 00 94  	bl	0xc774 <__bpf_object__open.part.0+0x2ba4>
    c778: f7 63 44 a9  	ldp	x23, x24, [sp, #64]
    c77c: f9 6b 45 a9  	ldp	x25, x26, [sp, #80]
    c780: 8e f5 ff 17  	b	0x9db8 <__bpf_object__open.part.0+0x1e8>
    c784: e3 03 00 2a  	mov	w3, w0
    c788: e2 03 15 aa  	mov	x2, x21
    c78c: 01 00 00 90  	adrp	x1, 0xc000 <__bpf_object__open.part.0+0x2bbc>
    c790: 00 00 80 52  	mov	w0, #0
    c794: 21 00 00 91  	add	x1, x1, #0
    c798: b3 02 80 92  	mov	x19, #-22
    c79c: 00 00 00 94  	bl	0xc79c <__bpf_object__open.part.0+0x2bcc>
    c7a0: f7 63 44 a9  	ldp	x23, x24, [sp, #64]
    c7a4: f9 6b 45 a9  	ldp	x25, x26, [sp, #80]
    c7a8: 84 f5 ff 17  	b	0x9db8 <__bpf_object__open.part.0+0x1e8>
    c7ac: e3 03 00 2a  	mov	w3, w0
    c7b0: e2 03 15 aa  	mov	x2, x21
    c7b4: 01 00 00 90  	adrp	x1, 0xc000 <__bpf_object__open.part.0+0x2be4>
    c7b8: 00 00 80 52  	mov	w0, #0
    c7bc: 21 00 00 91  	add	x1, x1, #0
    c7c0: 00 00 00 94  	bl	0xc7c0 <__bpf_object__open.part.0+0x2bf0>
    c7c4: 93 26 40 b9  	ldr	w19, [x20, #36]
    c7c8: df f7 ff 17  	b	0xa744 <__bpf_object__open.part.0+0xb74>
    c7cc: 80 6f 41 b9  	ldr	w0, [x28, #364]
    c7d0: e0 cc ff 36  	tbz	w0, #31, 0xc16c <__bpf_object__open.part.0+0x259c>
    c7d4: 80 93 40 b9  	ldr	w0, [x28, #144]
    c7d8: 1f 00 00 71  	cmp	w0, #0
    c7dc: 8c cc ff 54  	b.gt	0xc16c <__bpf_object__open.part.0+0x259c>
    c7e0: d3 f6 ff 17  	b	0xa32c <__bpf_object__open.part.0+0x75c>
    c7e4: e2 03 18 aa  	mov	x2, x24
    c7e8: 01 00 00 90  	adrp	x1, 0xc000 <__bpf_object__open.part.0+0x2c18>
    c7ec: 00 00 80 52  	mov	w0, #0
    c7f0: 21 00 00 91  	add	x1, x1, #0
    c7f4: d3 0b 80 92  	mov	x19, #-95
    c7f8: 00 00 00 94  	bl	0xc7f8 <__bpf_object__open.part.0+0x2c28>
    c7fc: f7 63 44 a9  	ldp	x23, x24, [sp, #64]
    c800: f9 6b 45 a9  	ldp	x25, x26, [sp, #80]
    c804: 6d f5 ff 17  	b	0x9db8 <__bpf_object__open.part.0+0x1e8>
    c808: 82 93 40 b9  	ldr	w2, [x28, #144]
    c80c: 01 00 00 90  	adrp	x1, 0xc000 <__bpf_object__open.part.0+0x2c3c>
    c810: 40 00 80 52  	mov	w0, #2
    c814: 21 00 00 91  	add	x1, x1, #0
    c818: 00 00 00 94  	bl	0xc818 <__bpf_object__open.part.0+0x2c48>
    c81c: 81 93 40 b9  	ldr	w1, [x28, #144]
    c820: 41 f9 fe 34  	cbz	w1, 0xa748 <__bpf_object__open.part.0+0xb78>
    c824: 80 47 40 f9  	ldr	x0, [x28, #136]
    c828: 21 7c 40 93  	sxtw	x1, w1
    c82c: 03 00 00 90  	adrp	x3, 0xc000 <__bpf_object__open.part.0+0x2c5c>
    c830: 02 07 80 d2  	mov	x2, #56
    c834: 63 00 00 91  	add	x3, x3, #0
    c838: 00 00 00 94  	bl	0xc838 <__bpf_object__open.part.0+0x2c68>
    c83c: c3 f7 ff 17  	b	0xa748 <__bpf_object__open.part.0+0xb78>
    c840: 53 00 80 92  	mov	x19, #-3
    c844: f7 63 44 a9  	ldp	x23, x24, [sp, #64]
    c848: f9 6b 45 a9  	ldp	x25, x26, [sp, #80]
    c84c: 5b f5 ff 17  	b	0x9db8 <__bpf_object__open.part.0+0x1e8>
    c850: 23 03 40 f9  	ldr	x3, [x25]
    c854: e2 03 18 2a  	mov	w2, w24
    c858: 01 00 00 90  	adrp	x1, 0xc000 <__bpf_object__open.part.0+0x2c88>
    c85c: 84 00 80 d2  	mov	x4, #4
    c860: 21 00 00 91  	add	x1, x1, #0
    c864: 00 00 80 52  	mov	w0, #0
    c868: b3 02 80 92  	mov	x19, #-22
    c86c: 00 00 00 94  	bl	0xc86c <__bpf_object__open.part.0+0x2c9c>
    c870: f7 63 44 a9  	ldp	x23, x24, [sp, #64]
    c874: f9 6b 45 a9  	ldp	x25, x26, [sp, #80]
    c878: 50 f5 ff 17  	b	0x9db8 <__bpf_object__open.part.0+0x1e8>
    c87c: 43 00 80 12  	mov	w3, #-3
    c880: aa f7 ff 17  	b	0xa728 <__bpf_object__open.part.0+0xb58>
    c884: 13 f4 81 12  	mov	w19, #-4001
    c888: 18 fd ff 17  	b	0xbce8 <__bpf_object__open.part.0+0x2118>
    c88c: 16 00 80 d2  	mov	x22, #0
    c890: bd f7 ff 17  	b	0xa784 <__bpf_object__open.part.0+0xbb4>
    c894: e2 77 40 f9  	ldr	x2, [sp, #232]
    c898: 01 00 00 90  	adrp	x1, 0xc000 <__bpf_object__open.part.0+0x2cc8>
    c89c: 00 00 80 52  	mov	w0, #0
    c8a0: 21 00 00 91  	add	x1, x1, #0
    c8a4: 13 f4 81 92  	mov	x19, #-4001
    c8a8: 00 00 00 94  	bl	0xc8a8 <__bpf_object__open.part.0+0x2cd8>
    c8ac: f7 63 44 a9  	ldp	x23, x24, [sp, #64]
    c8b0: f9 6b 45 a9  	ldp	x25, x26, [sp, #80]
    c8b4: 41 f5 ff 17  	b	0x9db8 <__bpf_object__open.part.0+0x1e8>
    c8b8: 82 0a 40 f9  	ldr	x2, [x20, #16]
    c8bc: 01 00 00 90  	adrp	x1, 0xc000 <__bpf_object__open.part.0+0x2cec>
    c8c0: d3 0b 80 92  	mov	x19, #-95
    c8c4: 21 00 00 91  	add	x1, x1, #0
    c8c8: 00 00 00 94  	bl	0xc8c8 <__bpf_object__open.part.0+0x2cf8>
    c8cc: f7 63 44 a9  	ldp	x23, x24, [sp, #64]
    c8d0: f9 6b 45 a9  	ldp	x25, x26, [sp, #80]
    c8d4: 39 f5 ff 17  	b	0x9db8 <__bpf_object__open.part.0+0x1e8>
    c8d8: f7 63 44 a9  	ldp	x23, x24, [sp, #64]
    c8dc: f6 03 13 aa  	mov	x22, x19
    c8e0: e2 03 16 aa  	mov	x2, x22
    c8e4: 01 00 00 90  	adrp	x1, 0xc000 <__bpf_object__open.part.0+0x2d14>
    c8e8: 00 00 80 52  	mov	w0, #0
    c8ec: 21 00 00 91  	add	x1, x1, #0
    c8f0: 7c 01 80 92  	mov	x28, #-12
    c8f4: 00 00 00 94  	bl	0xc8f4 <__bpf_object__open.part.0+0x2d24>
    c8f8: 33 f5 ff 17  	b	0x9dc4 <__bpf_object__open.part.0+0x1f4>
    c8fc: 73 01 80 92  	mov	x19, #-12
    c900: 2e f5 ff 17  	b	0x9db8 <__bpf_object__open.part.0+0x1e8>
    c904: 00 06 40 39  	ldrb	w0, [x16, #1]
    c908: 00 0c 1c 12  	and	w0, w0, #0xf0
    c90c: 1f 40 00 71  	cmp	w0, #16
    c910: c1 02 00 54  	b.ne	0xc968 <__bpf_object__open.part.0+0x2d98>
    c914: 60 5a 41 b9  	ldr	w0, [x19, #344]
    c918: 1f 00 06 6b  	cmp	w0, w6
    c91c: 21 b7 ff 54  	b.ne	0xc000 <__bpf_object__open.part.0+0x2430>
    c920: e4 b3 40 f9  	ldr	x4, [sp, #352]
    c924: 9f 08 40 f2  	tst	x4, #0x7
    c928: c1 00 00 54  	b.ne	0xc940 <__bpf_object__open.part.0+0x2d70>
    c92c: 20 00 80 52  	mov	w0, #1
    c930: 20 69 2d b8  	str	w0, [x9, x13]
    c934: 87 05 00 b9  	str	w7, [x12, #4]
    c938: 84 0d 00 b9  	str	w4, [x12, #12]
    c93c: 7f f8 ff 17  	b	0xab38 <__bpf_object__open.part.0+0xf68>
    c940: a2 1a 40 f9  	ldr	x2, [x21, #48]
    c944: e3 03 16 aa  	mov	x3, x22
    c948: 01 00 00 90  	adrp	x1, 0xc000 <__bpf_object__open.part.0+0x2d78>
    c94c: 00 00 80 52  	mov	w0, #0
    c950: 21 00 00 91  	add	x1, x1, #0
    c954: 93 f4 81 92  	mov	x19, #-4005
    c958: 00 00 00 94  	bl	0xc958 <__bpf_object__open.part.0+0x2d88>
    c95c: f7 63 44 a9  	ldp	x23, x24, [sp, #64]
    c960: f9 6b 45 a9  	ldp	x25, x26, [sp, #80]
    c964: 15 f5 ff 17  	b	0x9db8 <__bpf_object__open.part.0+0x1e8>
    c968: f9 03 15 aa  	mov	x25, x21
    c96c: d1 f8 ff 17  	b	0xacb0 <__bpf_object__open.part.0+0x10e0>
    c970: 00 00 80 12  	mov	w0, #-1
    c974: 00 00 00 94  	bl	0xc974 <__bpf_object__open.part.0+0x2da4>
    c978: e2 03 1a aa  	mov	x2, x26
    c97c: e4 03 00 aa  	mov	x4, x0
    c980: 63 62 07 91  	add	x3, x19, #472
    c984: 01 00 00 90  	adrp	x1, 0xc000 <__bpf_object__open.part.0+0x2db4>
    c988: 00 00 80 52  	mov	w0, #0
    c98c: 21 00 00 91  	add	x1, x1, #0
    c990: 00 00 00 94  	bl	0xc990 <__bpf_object__open.part.0+0x2dc0>
    c994: a3 fd ff 17  	b	0xc020 <__bpf_object__open.part.0+0x2450>
    c998: f7 63 04 a9  	stp	x23, x24, [sp, #64]
    c99c: f9 6b 05 a9  	stp	x25, x26, [sp, #80]
    c9a0: 00 00 00 94  	bl	0xc9a0 <__bpf_object__open.part.0+0x2dd0>
    c9a4: 01 00 00 90  	adrp	x1, 0xc000 <__bpf_object__open.part.0+0x2dd4>
    c9a8: e0 03 13 aa  	mov	x0, x19
    c9ac: 21 00 00 91  	add	x1, x1, #0
    c9b0: 00 00 00 94  	bl	0xc9b0 <__bpf_object__open.part.0+0x2de0>
    c9b4: 00 ca ff 34  	cbz	w0, 0xc2f4 <__bpf_object__open.part.0+0x2724>
    c9b8: 01 00 00 90  	adrp	x1, 0xc000 <__bpf_object__open.part.0+0x2de8>
    c9bc: e0 03 13 aa  	mov	x0, x19
    c9c0: 21 00 00 91  	add	x1, x1, #0
    c9c4: 00 00 00 94  	bl	0xc9c4 <__bpf_object__open.part.0+0x2df4>
    c9c8: 60 c9 ff 34  	cbz	w0, 0xc2f4 <__bpf_object__open.part.0+0x2724>
    c9cc: 80 63 40 f9  	ldr	x0, [x28, #192]
    c9d0: e1 03 16 aa  	mov	x1, x22
    c9d4: 00 00 00 94  	bl	0xc9d4 <__bpf_object__open.part.0+0x2e04>
    c9d8: f5 03 00 aa  	mov	x21, x0
    c9dc: c0 03 00 b4  	cbz	x0, 0xca54 <__bpf_object__open.part.0+0x2e84>
    c9e0: e1 03 15 aa  	mov	x1, x21
    c9e4: e0 03 1c aa  	mov	x0, x28
    c9e8: 5e e0 ff 97  	bl	0x4b60 <elf_sec_name>
    c9ec: e5 03 00 aa  	mov	x5, x0
    c9f0: c0 02 00 b4  	cbz	x0, 0xca48 <__bpf_object__open.part.0+0x2e78>
    c9f4: e4 9b 40 b9  	ldr	w4, [sp, #152]
    c9f8: e3 03 13 aa  	mov	x3, x19
    c9fc: e2 03 17 2a  	mov	w2, w23
    ca00: 01 00 00 90  	adrp	x1, 0xc000 <__bpf_object__open.part.0+0x2e30>
    ca04: 20 00 80 52  	mov	w0, #1
    ca08: 21 00 00 91  	add	x1, x1, #0
    ca0c: 94 06 00 91  	add	x20, x20, #1
    ca10: 00 00 00 94  	bl	0xca10 <__bpf_object__open.part.0+0x2e40>
    ca14: 69 f5 ff 17  	b	0x9fb8 <__bpf_object__open.part.0+0x3e8>
    ca18: 00 00 80 12  	mov	w0, #-1
    ca1c: e5 57 00 f9  	str	x5, [sp, #168]
    ca20: 00 00 00 94  	bl	0xca20 <__bpf_object__open.part.0+0x2e50>
    ca24: e4 03 00 aa  	mov	x4, x0
    ca28: e3 77 40 f9  	ldr	x3, [sp, #232]
    ca2c: e2 03 16 aa  	mov	x2, x22
    ca30: 01 00 00 90  	adrp	x1, 0xc000 <__bpf_object__open.part.0+0x2e60>
    ca34: 00 00 80 52  	mov	w0, #0
    ca38: 21 00 00 91  	add	x1, x1, #0
    ca3c: 00 00 00 94  	bl	0xca3c <__bpf_object__open.part.0+0x2e6c>
    ca40: e5 57 40 f9  	ldr	x5, [sp, #168]
    ca44: 25 fe ff 17  	b	0xc2d8 <__bpf_object__open.part.0+0x2708>
    ca48: 05 00 00 90  	adrp	x5, 0xc000 <__bpf_object__open.part.0+0x2e78>
    ca4c: a5 00 00 91  	add	x5, x5, #0
    ca50: e9 ff ff 17  	b	0xc9f4 <__bpf_object__open.part.0+0x2e24>
    ca54: 00 00 80 12  	mov	w0, #-1
    ca58: 00 00 00 94  	bl	0xca58 <__bpf_object__open.part.0+0x2e88>
    ca5c: e3 77 40 f9  	ldr	x3, [sp, #232]
    ca60: e4 03 00 aa  	mov	x4, x0
    ca64: e2 03 16 aa  	mov	x2, x22
    ca68: 01 00 00 90  	adrp	x1, 0xc000 <__bpf_object__open.part.0+0x2e98>
    ca6c: 00 00 80 52  	mov	w0, #0
    ca70: 21 00 00 91  	add	x1, x1, #0
    ca74: 00 00 00 94  	bl	0xca74 <__bpf_object__open.part.0+0x2ea4>
    ca78: da ff ff 17  	b	0xc9e0 <__bpf_object__open.part.0+0x2e10>
    ca7c: f9 03 15 aa  	mov	x25, x21
    ca80: e6 b3 40 f9  	ldr	x6, [sp, #352]
    ca84: cd fb ff 17  	b	0xb9b8 <__bpf_object__open.part.0+0x1de8>
    ca88: e3 3f 40 f9  	ldr	x3, [sp, #120]
    ca8c: e2 03 13 aa  	mov	x2, x19
    ca90: 00 00 80 52  	mov	w0, #0
    ca94: 01 00 00 90  	adrp	x1, 0xc000 <__bpf_object__open.part.0+0x2ec4>
    ca98: 21 00 00 91  	add	x1, x1, #0
    ca9c: f9 43 00 f9  	str	x25, [sp, #128]
    caa0: 00 00 00 94  	bl	0xcaa0 <__bpf_object__open.part.0+0x2ed0>
    caa4: 73 01 80 92  	mov	x19, #-12
    caa8: e5 43 40 f9  	ldr	x5, [sp, #128]
    caac: e0 03 05 aa  	mov	x0, x5
    cab0: 08 e2 ff 97  	bl	0x52d0 <bpf_program__exit>
    cab4: f7 63 44 a9  	ldp	x23, x24, [sp, #64]
    cab8: f9 6b 45 a9  	ldp	x25, x26, [sp, #80]
    cabc: bf f4 ff 17  	b	0x9db8 <__bpf_object__open.part.0+0x1e8>
    cac0: e3 3f 40 f9  	ldr	x3, [sp, #120]
    cac4: e2 03 13 aa  	mov	x2, x19
    cac8: e5 03 16 aa  	mov	x5, x22
    cacc: e4 03 1b aa  	mov	x4, x27
    cad0: 01 00 00 90  	adrp	x1, 0xc000 <__bpf_object__open.part.0+0x2f00>
    cad4: 00 00 80 52  	mov	w0, #0
    cad8: 21 00 00 91  	add	x1, x1, #0
    cadc: b3 02 80 92  	mov	x19, #-22
    cae0: 00 00 00 94  	bl	0xcae0 <__bpf_object__open.part.0+0x2f10>
    cae4: f7 63 44 a9  	ldp	x23, x24, [sp, #64]
    cae8: f9 6b 45 a9  	ldp	x25, x26, [sp, #80]
    caec: b3 f4 ff 17  	b	0x9db8 <__bpf_object__open.part.0+0x1e8>
    caf0: e3 3f 40 f9  	ldr	x3, [sp, #120]
    caf4: e2 03 13 aa  	mov	x2, x19
    caf8: 01 00 00 90  	adrp	x1, 0xc000 <__bpf_object__open.part.0+0x2f28>
    cafc: 00 00 80 52  	mov	w0, #0
    cb00: 21 00 00 91  	add	x1, x1, #0
    cb04: 73 01 80 92  	mov	x19, #-12
    cb08: 00 00 00 94  	bl	0xcb08 <__bpf_object__open.part.0+0x2f38>
    cb0c: f7 63 44 a9  	ldp	x23, x24, [sp, #64]
    cb10: f9 6b 45 a9  	ldp	x25, x26, [sp, #80]
    cb14: a9 f4 ff 17  	b	0x9db8 <__bpf_object__open.part.0+0x1e8>
    cb18: e2 03 13 aa  	mov	x2, x19
    cb1c: e3 03 1b aa  	mov	x3, x27
    cb20: 01 00 00 90  	adrp	x1, 0xc000 <__bpf_object__open.part.0+0x2f50>
    cb24: 00 00 80 52  	mov	w0, #0
    cb28: 21 00 00 91  	add	x1, x1, #0
    cb2c: 13 f4 81 92  	mov	x19, #-4001
    cb30: 00 00 00 94  	bl	0xcb30 <__bpf_object__open.part.0+0x2f60>
    cb34: f7 63 44 a9  	ldp	x23, x24, [sp, #64]
    cb38: f9 6b 45 a9  	ldp	x25, x26, [sp, #80]
    cb3c: 9f f4 ff 17  	b	0x9db8 <__bpf_object__open.part.0+0x1e8>
    cb40: 00 00 80 12  	mov	w0, #-1
    cb44: f7 3f 00 f9  	str	x23, [sp, #120]
    cb48: 00 00 00 94  	bl	0xcb48 <__bpf_object__open.part.0+0x2f78>
    cb4c: e4 03 00 aa  	mov	x4, x0
    cb50: e2 3f 40 f9  	ldr	x2, [sp, #120]
    cb54: 00 00 80 52  	mov	w0, #0
    cb58: e3 77 40 f9  	ldr	x3, [sp, #232]
    cb5c: 01 00 00 90  	adrp	x1, 0xc000 <__bpf_object__open.part.0+0x2f8c>
    cb60: 21 00 00 91  	add	x1, x1, #0
    cb64: 00 00 00 94  	bl	0xcb64 <__bpf_object__open.part.0+0x2f94>
    cb68: e2 03 13 aa  	mov	x2, x19
    cb6c: e3 03 1b aa  	mov	x3, x27
    cb70: 01 00 00 90  	adrp	x1, 0xc000 <__bpf_object__open.part.0+0x2fa0>
    cb74: 00 00 80 52  	mov	w0, #0
    cb78: 21 00 00 91  	add	x1, x1, #0
    cb7c: 13 f4 81 92  	mov	x19, #-4001
    cb80: 00 00 00 94  	bl	0xcb80 <__bpf_object__open.part.0+0x2fb0>
    cb84: f7 63 44 a9  	ldp	x23, x24, [sp, #64]
    cb88: f9 6b 45 a9  	ldp	x25, x26, [sp, #80]
    cb8c: 8b f4 ff 17  	b	0x9db8 <__bpf_object__open.part.0+0x1e8>
    cb90: e3 3f 40 f9  	ldr	x3, [sp, #120]
    cb94: e2 03 13 aa  	mov	x2, x19
    cb98: 01 00 00 90  	adrp	x1, 0xc000 <__bpf_object__open.part.0+0x2fc8>
    cb9c: 00 00 80 52  	mov	w0, #0
    cba0: 21 00 00 91  	add	x1, x1, #0
    cba4: d3 0b 80 92  	mov	x19, #-95
    cba8: 00 00 00 94  	bl	0xcba8 <__bpf_object__open.part.0+0x2fd8>
    cbac: f7 63 44 a9  	ldp	x23, x24, [sp, #64]
    cbb0: f9 6b 45 a9  	ldp	x25, x26, [sp, #80]
    cbb4: 81 f4 ff 17  	b	0x9db8 <__bpf_object__open.part.0+0x1e8>
    cbb8: 01 00 00 90  	adrp	x1, 0xc000 <__bpf_object__open.part.0+0x2fe8>
    cbbc: e0 03 13 aa  	mov	x0, x19
    cbc0: 21 00 00 91  	add	x1, x1, #0
    cbc4: 00 00 00 94  	bl	0xcbc4 <__bpf_object__open.part.0+0x2ff4>
    cbc8: 20 01 00 35  	cbnz	w0, 0xcbec <__bpf_object__open.part.0+0x301c>
    cbcc: 94 06 00 91  	add	x20, x20, #1
    cbd0: 95 8b 00 f9  	str	x21, [x28, #272]
    cbd4: 97 63 01 b9  	str	w23, [x28, #352]
    cbd8: f8 f4 ff 17  	b	0x9fb8 <__bpf_object__open.part.0+0x3e8>
    cbdc: 94 06 00 91  	add	x20, x20, #1
    cbe0: f8 73 40 f9  	ldr	x24, [sp, #224]
    cbe4: fb 67 4f a9  	ldp	x27, x25, [sp, #240]
    cbe8: f4 f4 ff 17  	b	0x9fb8 <__bpf_object__open.part.0+0x3e8>
    cbec: 01 00 00 90  	adrp	x1, 0xc000 <__bpf_object__open.part.0+0x301c>
    cbf0: e0 03 13 aa  	mov	x0, x19
    cbf4: 21 00 00 91  	add	x1, x1, #0
    cbf8: 00 00 00 94  	bl	0xcbf8 <__bpf_object__open.part.0+0x3028>
    cbfc: a0 00 00 35  	cbnz	w0, 0xcc10 <__bpf_object__open.part.0+0x3040>
    cc00: 94 06 00 91  	add	x20, x20, #1
    cc04: 95 8f 00 f9  	str	x21, [x28, #280]
    cc08: 97 67 01 b9  	str	w23, [x28, #356]
    cc0c: eb f4 ff 17  	b	0x9fb8 <__bpf_object__open.part.0+0x3e8>
    cc10: 01 00 00 90  	adrp	x1, 0xc000 <__bpf_object__open.part.0+0x3040>
    cc14: e0 03 13 aa  	mov	x0, x19
    cc18: 21 00 00 91  	add	x1, x1, #0
    cc1c: 00 00 00 94  	bl	0xcc1c <__bpf_object__open.part.0+0x304c>
    cc20: a0 00 00 35  	cbnz	w0, 0xcc34 <__bpf_object__open.part.0+0x3064>
    cc24: 94 06 00 91  	add	x20, x20, #1
    cc28: 95 97 00 f9  	str	x21, [x28, #296]
    cc2c: 97 6f 01 b9  	str	w23, [x28, #364]
    cc30: e2 f4 ff 17  	b	0x9fb8 <__bpf_object__open.part.0+0x3e8>
    cc34: e3 03 13 aa  	mov	x3, x19
    cc38: e2 03 17 2a  	mov	w2, w23
    cc3c: 01 00 00 90  	adrp	x1, 0xc000 <__bpf_object__open.part.0+0x306c>
    cc40: 20 00 80 52  	mov	w0, #1
    cc44: 21 00 00 91  	add	x1, x1, #0
    cc48: 94 06 00 91  	add	x20, x20, #1
    cc4c: 00 00 00 94  	bl	0xcc4c <__bpf_object__open.part.0+0x307c>
    cc50: da f4 ff 17  	b	0x9fb8 <__bpf_object__open.part.0+0x3e8>

000000000000cc54 <bpf_object__open_file>:
    cc54: fd 7b be a9  	stp	x29, x30, [sp, #-32]!
    cc58: fd 03 00 91  	mov	x29, sp
    cc5c: f3 53 01 a9  	stp	x19, x20, [sp, #16]
    cc60: 80 04 00 b4  	cbz	x0, 0xccf0 <bpf_object__open_file+0x9c>
    cc64: e2 03 00 aa  	mov	x2, x0
    cc68: f4 03 01 aa  	mov	x20, x1
    cc6c: 01 00 00 90  	adrp	x1, 0xc000 <bpf_object__open_file+0x18>
    cc70: 21 00 00 91  	add	x1, x1, #0
    cc74: f3 03 00 aa  	mov	x19, x0
    cc78: 40 00 80 52  	mov	w0, #2
    cc7c: 00 00 00 94  	bl	0xcc7c <bpf_object__open_file+0x28>
    cc80: 20 00 80 52  	mov	w0, #1
    cc84: 00 00 00 94  	bl	0xcc84 <bpf_object__open_file+0x30>
    cc88: a0 01 00 34  	cbz	w0, 0xccbc <bpf_object__open_file+0x68>
    cc8c: e0 03 13 aa  	mov	x0, x19
    cc90: e3 03 14 aa  	mov	x3, x20
    cc94: 02 00 80 d2  	mov	x2, #0
    cc98: 01 00 80 d2  	mov	x1, #0
    cc9c: cd f3 ff 97  	bl	0x9bd0 <__bpf_object__open.part.0>
    cca0: f3 03 00 aa  	mov	x19, x0
    cca4: 1f 04 40 b1  	cmn	x0, #1, lsl #12         // =4096
    cca8: a8 03 00 54  	b.hi	0xcd1c <bpf_object__open_file+0xc8>
    ccac: e0 03 13 aa  	mov	x0, x19
    ccb0: f3 53 41 a9  	ldp	x19, x20, [sp, #16]
    ccb4: fd 7b c2 a8  	ldp	x29, x30, [sp], #32
    ccb8: c0 03 5f d6  	ret
    ccbc: e2 03 13 aa  	mov	x2, x19
    ccc0: 01 00 00 90  	adrp	x1, 0xc000 <bpf_object__open_file+0x6c>
    ccc4: 14 f4 81 52  	mov	w20, #4000
    ccc8: 21 00 00 91  	add	x1, x1, #0
    cccc: f3 f3 81 92  	mov	x19, #-4000
    ccd0: 00 00 00 94  	bl	0xccd0 <bpf_object__open_file+0x7c>
    ccd4: 00 00 00 94  	bl	0xccd4 <bpf_object__open_file+0x80>
    ccd8: 14 00 00 b9  	str	w20, [x0]
    ccdc: 01 00 00 90  	adrp	x1, 0xc000 <bpf_object__open_file+0x88>
    cce0: 20 00 40 b9  	ldr	w0, [x1]
    cce4: 40 fe 07 36  	tbz	w0, #0, 0xccac <bpf_object__open_file+0x58>
    cce8: 13 00 80 d2  	mov	x19, #0
    ccec: f0 ff ff 17  	b	0xccac <bpf_object__open_file+0x58>
    ccf0: 00 00 00 94  	bl	0xccf0 <bpf_object__open_file+0x9c>
    ccf4: b3 02 80 92  	mov	x19, #-22
    ccf8: c2 02 80 52  	mov	w2, #22
    ccfc: 01 00 00 90  	adrp	x1, 0xc000 <bpf_object__open_file+0xa8>
    cd00: 02 00 00 b9  	str	w2, [x0]
    cd04: 20 00 40 b9  	ldr	w0, [x1]
    cd08: 00 ff 07 37  	tbnz	w0, #0, 0xcce8 <bpf_object__open_file+0x94>
    cd0c: e0 03 13 aa  	mov	x0, x19
    cd10: f3 53 41 a9  	ldp	x19, x20, [sp, #16]
    cd14: fd 7b c2 a8  	ldp	x29, x30, [sp], #32
    cd18: c0 03 5f d6  	ret
    cd1c: f4 03 00 4b  	neg	w20, w0
    cd20: ed ff ff 17  	b	0xccd4 <bpf_object__open_file+0x80>

000000000000cd24 <bpf_object__open_mem>:
    cd24: fd 7b bd a9  	stp	x29, x30, [sp, #-48]!
    cd28: 1f 00 00 f1  	cmp	x0, #0
    cd2c: 24 18 40 fa  	ccmp	x1, #0, #4, ne
    cd30: fd 03 00 91  	mov	x29, sp
    cd34: f3 53 01 a9  	stp	x19, x20, [sp, #16]
    cd38: 80 04 00 54  	b.eq	0xcdc8 <bpf_object__open_mem+0xa4>
    cd3c: f3 03 00 aa  	mov	x19, x0
    cd40: f4 03 01 aa  	mov	x20, x1
    cd44: 20 00 80 52  	mov	w0, #1
    cd48: f5 13 00 f9  	str	x21, [sp, #32]
    cd4c: f5 03 02 aa  	mov	x21, x2
    cd50: 00 00 00 94  	bl	0xcd50 <bpf_object__open_mem+0x2c>
    cd54: c0 01 00 34  	cbz	w0, 0xcd8c <bpf_object__open_mem+0x68>
    cd58: e1 03 13 aa  	mov	x1, x19
    cd5c: e3 03 15 aa  	mov	x3, x21
    cd60: e2 03 14 aa  	mov	x2, x20
    cd64: 00 00 80 d2  	mov	x0, #0
    cd68: 9a f3 ff 97  	bl	0x9bd0 <__bpf_object__open.part.0>
    cd6c: f3 03 00 aa  	mov	x19, x0
    cd70: 1f 04 40 b1  	cmn	x0, #1, lsl #12         // =4096
    cd74: 08 04 00 54  	b.hi	0xcdf4 <bpf_object__open_mem+0xd0>
    cd78: f5 13 40 f9  	ldr	x21, [sp, #32]
    cd7c: e0 03 13 aa  	mov	x0, x19
    cd80: f3 53 41 a9  	ldp	x19, x20, [sp, #16]
    cd84: fd 7b c3 a8  	ldp	x29, x30, [sp], #48
    cd88: c0 03 5f d6  	ret
    cd8c: 14 f4 81 52  	mov	w20, #4000
    cd90: f3 f3 81 92  	mov	x19, #-4000
    cd94: 02 00 00 90  	adrp	x2, 0xc000 <bpf_object__open_mem+0x70>
    cd98: 01 00 00 90  	adrp	x1, 0xc000 <bpf_object__open_mem+0x74>
    cd9c: 42 00 00 91  	add	x2, x2, #0
    cda0: 21 00 00 91  	add	x1, x1, #0
    cda4: 00 00 00 94  	bl	0xcda4 <bpf_object__open_mem+0x80>
    cda8: 00 00 00 94  	bl	0xcda8 <bpf_object__open_mem+0x84>
    cdac: 01 00 00 90  	adrp	x1, 0xc000 <bpf_object__open_mem+0x88>
    cdb0: f5 13 40 f9  	ldr	x21, [sp, #32]
    cdb4: 14 00 00 b9  	str	w20, [x0]
    cdb8: 20 00 40 b9  	ldr	w0, [x1]
    cdbc: 00 fe 07 36  	tbz	w0, #0, 0xcd7c <bpf_object__open_mem+0x58>
    cdc0: 13 00 80 d2  	mov	x19, #0
    cdc4: ee ff ff 17  	b	0xcd7c <bpf_object__open_mem+0x58>
    cdc8: 00 00 00 94  	bl	0xcdc8 <bpf_object__open_mem+0xa4>
    cdcc: b3 02 80 92  	mov	x19, #-22
    cdd0: c2 02 80 52  	mov	w2, #22
    cdd4: 01 00 00 90  	adrp	x1, 0xc000 <bpf_object__open_mem+0xb0>
    cdd8: 02 00 00 b9  	str	w2, [x0]
    cddc: 20 00 40 b9  	ldr	w0, [x1]
    cde0: 00 ff 07 37  	tbnz	w0, #0, 0xcdc0 <bpf_object__open_mem+0x9c>
    cde4: e0 03 13 aa  	mov	x0, x19
    cde8: f3 53 41 a9  	ldp	x19, x20, [sp, #16]
    cdec: fd 7b c3 a8  	ldp	x29, x30, [sp], #48
    cdf0: c0 03 5f d6  	ret
    cdf4: f4 03 00 4b  	neg	w20, w0
    cdf8: ec ff ff 17  	b	0xcda8 <bpf_object__open_mem+0x84>
    cdfc: 1f 20 03 d5  	nop

000000000000ce00 <bpf_object__open_buffer>:
    ce00: fd 7b b5 a9  	stp	x29, x30, [sp, #-176]!
    ce04: 03 00 00 90  	adrp	x3, 0xc000 <bpf_object__open_buffer+0x4>
    ce08: 05 07 80 d2  	mov	x5, #56
    ce0c: fd 03 00 91  	mov	x29, sp
    ce10: 63 00 40 f9  	ldr	x3, [x3]
    ce14: f3 53 01 a9  	stp	x19, x20, [sp, #16]
    ce18: 24 00 80 52  	mov	w4, #1
    ce1c: 66 00 40 f9  	ldr	x6, [x3]
    ce20: e6 57 00 f9  	str	x6, [sp, #168]
    ce24: 06 00 80 d2  	mov	x6, #0
    ce28: ff 7f 08 a9  	stp	xzr, xzr, [sp, #128]
    ce2c: f3 63 25 8b  	add	x19, sp, x5
    ce30: e5 0b 07 a9  	stp	x5, x2, [sp, #112]
    ce34: 1f 00 00 f1  	cmp	x0, #0
    ce38: 24 18 40 fa  	ccmp	x1, #0, #4, ne
    ce3c: e4 03 02 39  	strb	w4, [sp, #128]
    ce40: 7f 7e 02 a9  	stp	xzr, xzr, [x19, #32]
    ce44: e0 87 43 ad  	ldp	q0, q1, [sp, #112]
    ce48: 7f 1a 00 f9  	str	xzr, [x19, #48]
    ce4c: ff 7f 09 a9  	stp	xzr, xzr, [sp, #144]
    ce50: ff 53 00 f9  	str	xzr, [sp, #160]
    ce54: 60 06 00 ad  	stp	q0, q1, [x19]
    ce58: 40 05 00 54  	b.eq	0xcf00 <bpf_object__open_buffer+0x100>
    ce5c: f4 03 00 aa  	mov	x20, x0
    ce60: 20 00 80 52  	mov	w0, #1
    ce64: f5 13 00 f9  	str	x21, [sp, #32]
    ce68: f5 03 01 aa  	mov	x21, x1
    ce6c: 00 00 00 94  	bl	0xce6c <bpf_object__open_buffer+0x6c>
    ce70: a0 02 00 34  	cbz	w0, 0xcec4 <bpf_object__open_buffer+0xc4>
    ce74: e3 03 13 aa  	mov	x3, x19
    ce78: e2 03 15 aa  	mov	x2, x21
    ce7c: e1 03 14 aa  	mov	x1, x20
    ce80: 00 00 80 d2  	mov	x0, #0
    ce84: 53 f3 ff 97  	bl	0x9bd0 <__bpf_object__open.part.0>
    ce88: f3 03 00 aa  	mov	x19, x0
    ce8c: 1f 04 40 b1  	cmn	x0, #1, lsl #12         // =4096
    ce90: 68 04 00 54  	b.hi	0xcf1c <bpf_object__open_buffer+0x11c>
    ce94: f5 13 40 f9  	ldr	x21, [sp, #32]
    ce98: 00 00 00 90  	adrp	x0, 0xc000 <bpf_object__open_buffer+0x98>
    ce9c: 00 00 40 f9  	ldr	x0, [x0]
    cea0: e2 57 40 f9  	ldr	x2, [sp, #168]
    cea4: 01 00 40 f9  	ldr	x1, [x0]
    cea8: 42 00 01 eb  	subs	x2, x2, x1
    ceac: 01 00 80 d2  	mov	x1, #0
    ceb0: 21 03 00 54  	b.ne	0xcf14 <bpf_object__open_buffer+0x114>
    ceb4: e0 03 13 aa  	mov	x0, x19
    ceb8: f3 53 41 a9  	ldp	x19, x20, [sp, #16]
    cebc: fd 7b cb a8  	ldp	x29, x30, [sp], #176
    cec0: c0 03 5f d6  	ret
    cec4: 14 f4 81 52  	mov	w20, #4000
    cec8: f3 f3 81 92  	mov	x19, #-4000
    cecc: 02 00 00 90  	adrp	x2, 0xc000 <bpf_object__open_buffer+0xcc>
    ced0: 01 00 00 90  	adrp	x1, 0xc000 <bpf_object__open_buffer+0xd0>
    ced4: 42 00 00 91  	add	x2, x2, #0
    ced8: 21 00 00 91  	add	x1, x1, #0
    cedc: 00 00 00 94  	bl	0xcedc <bpf_object__open_buffer+0xdc>
    cee0: 00 00 00 94  	bl	0xcee0 <bpf_object__open_buffer+0xe0>
    cee4: 01 00 00 90  	adrp	x1, 0xc000 <bpf_object__open_buffer+0xe4>
    cee8: f5 13 40 f9  	ldr	x21, [sp, #32]
    ceec: 14 00 00 b9  	str	w20, [x0]
    cef0: 20 00 40 b9  	ldr	w0, [x1]
    cef4: 1f 00 40 f2  	tst	x0, #0x1
    cef8: 73 02 9f 9a  	csel	x19, x19, xzr, eq
    cefc: e7 ff ff 17  	b	0xce98 <bpf_object__open_buffer+0x98>
    cf00: 00 00 00 94  	bl	0xcf00 <bpf_object__open_buffer+0x100>
    cf04: 13 00 80 d2  	mov	x19, #0
    cf08: c1 02 80 52  	mov	w1, #22
    cf0c: 01 00 00 b9  	str	w1, [x0]
    cf10: e2 ff ff 17  	b	0xce98 <bpf_object__open_buffer+0x98>
    cf14: f5 13 00 f9  	str	x21, [sp, #32]
    cf18: 00 00 00 94  	bl	0xcf18 <bpf_object__open_buffer+0x118>
    cf1c: f4 03 00 4b  	neg	w20, w0
    cf20: f0 ff ff 17  	b	0xcee0 <bpf_object__open_buffer+0xe0>

000000000000cf24 <__bpf_object__open_xattr.constprop.0>:
    cf24: fd 7b b6 a9  	stp	x29, x30, [sp, #-160]!
    cf28: 02 00 00 90  	adrp	x2, 0xc000 <__bpf_object__open_xattr.constprop.0+0x4>
    cf2c: fd 03 00 91  	mov	x29, sp
    cf30: 42 00 40 f9  	ldr	x2, [x2]
    cf34: f3 53 01 a9  	stp	x19, x20, [sp, #16]
    cf38: e1 83 01 91  	add	x1, sp, #96
    cf3c: 43 00 40 f9  	ldr	x3, [x2]
    cf40: e3 4f 00 f9  	str	x3, [sp, #152]
    cf44: 03 00 80 d2  	mov	x3, #0
    cf48: f4 03 00 aa  	mov	x20, x0
    cf4c: 00 07 80 d2  	mov	x0, #56
    cf50: e0 33 00 f9  	str	x0, [sp, #96]
    cf54: ff ff 06 a9  	stp	xzr, xzr, [sp, #104]
    cf58: f3 a3 00 91  	add	x19, sp, #40
    cf5c: ff ff 07 a9  	stp	xzr, xzr, [sp, #120]
    cf60: ff ff 08 a9  	stp	xzr, xzr, [sp, #136]
    cf64: 21 08 40 ad  	ldp	q1, q2, [x1]
    cf68: 20 08 c0 3d  	ldr	q0, [x1, #32]
    cf6c: 80 02 40 f9  	ldr	x0, [x20]
    cf70: 61 0a 00 ad  	stp	q1, q2, [x19]
    cf74: 21 18 40 f9  	ldr	x1, [x1, #48]
    cf78: 61 1a 00 f9  	str	x1, [x19, #48]
    cf7c: 60 0a 80 3d  	str	q0, [x19, #32]
    cf80: e0 01 00 b4  	cbz	x0, 0xcfbc <__bpf_object__open_xattr.constprop.0+0x98>
    cf84: e2 03 00 aa  	mov	x2, x0
    cf88: 01 00 00 90  	adrp	x1, 0xc000 <__bpf_object__open_xattr.constprop.0+0x64>
    cf8c: 21 00 00 91  	add	x1, x1, #0
    cf90: 40 00 80 52  	mov	w0, #2
    cf94: 00 00 00 94  	bl	0xcf94 <__bpf_object__open_xattr.constprop.0+0x70>
    cf98: 20 00 80 52  	mov	w0, #1
    cf9c: 94 02 40 f9  	ldr	x20, [x20]
    cfa0: 00 00 00 94  	bl	0xcfa0 <__bpf_object__open_xattr.constprop.0+0x7c>
    cfa4: 00 02 00 34  	cbz	w0, 0xcfe4 <__bpf_object__open_xattr.constprop.0+0xc0>
    cfa8: e3 03 13 aa  	mov	x3, x19
    cfac: e0 03 14 aa  	mov	x0, x20
    cfb0: 02 00 80 d2  	mov	x2, #0
    cfb4: 01 00 80 d2  	mov	x1, #0
    cfb8: 06 f3 ff 97  	bl	0x9bd0 <__bpf_object__open.part.0>
    cfbc: 01 00 00 90  	adrp	x1, 0xc000 <__bpf_object__open_xattr.constprop.0+0x98>
    cfc0: 21 00 40 f9  	ldr	x1, [x1]
    cfc4: e3 4f 40 f9  	ldr	x3, [sp, #152]
    cfc8: 22 00 40 f9  	ldr	x2, [x1]
    cfcc: 63 00 02 eb  	subs	x3, x3, x2
    cfd0: 02 00 80 d2  	mov	x2, #0
    cfd4: a1 01 00 54  	b.ne	0xd008 <__bpf_object__open_xattr.constprop.0+0xe4>
    cfd8: f3 53 41 a9  	ldp	x19, x20, [sp, #16]
    cfdc: fd 7b ca a8  	ldp	x29, x30, [sp], #160
    cfe0: c0 03 5f d6  	ret
    cfe4: 9f 02 00 f1  	cmp	x20, #0
    cfe8: 02 00 00 90  	adrp	x2, 0xc000 <__bpf_object__open_xattr.constprop.0+0xc4>
    cfec: 42 00 00 91  	add	x2, x2, #0
    cff0: 01 00 00 90  	adrp	x1, 0xc000 <__bpf_object__open_xattr.constprop.0+0xcc>
    cff4: 42 00 94 9a  	csel	x2, x2, x20, eq
    cff8: 21 00 00 91  	add	x1, x1, #0
    cffc: 00 00 00 94  	bl	0xcffc <__bpf_object__open_xattr.constprop.0+0xd8>
    d000: e0 f3 81 92  	mov	x0, #-4000
    d004: ee ff ff 17  	b	0xcfbc <__bpf_object__open_xattr.constprop.0+0x98>
    d008: 00 00 00 94  	bl	0xd008 <__bpf_object__open_xattr.constprop.0+0xe4>
    d00c: 1f 20 03 d5  	nop

000000000000d010 <bpf_object__open>:
    d010: fd 7b bc a9  	stp	x29, x30, [sp, #-64]!
    d014: 01 00 00 90  	adrp	x1, 0xd000 <bpf_object__open+0x4>
    d018: e2 03 00 aa  	mov	x2, x0
    d01c: fd 03 00 91  	mov	x29, sp
    d020: 21 00 40 f9  	ldr	x1, [x1]
    d024: f3 0b 00 f9  	str	x19, [sp, #16]
    d028: e0 a3 00 91  	add	x0, sp, #40
    d02c: 23 00 40 f9  	ldr	x3, [x1]
    d030: e3 1f 00 f9  	str	x3, [sp, #56]
    d034: 03 00 80 d2  	mov	x3, #0
    d038: e2 17 00 f9  	str	x2, [sp, #40]
    d03c: ff 33 00 b9  	str	wzr, [sp, #48]
    d040: b9 ff ff 97  	bl	0xcf24 <__bpf_object__open_xattr.constprop.0>
    d044: f3 03 00 aa  	mov	x19, x0
    d048: 1f 04 40 b1  	cmn	x0, #1, lsl #12         // =4096
    d04c: 88 01 00 54  	b.hi	0xd07c <bpf_object__open+0x6c>
    d050: 00 00 00 90  	adrp	x0, 0xd000 <bpf_object__open+0x40>
    d054: 00 00 40 f9  	ldr	x0, [x0]
    d058: e2 1f 40 f9  	ldr	x2, [sp, #56]
    d05c: 01 00 40 f9  	ldr	x1, [x0]
    d060: 42 00 01 eb  	subs	x2, x2, x1
    d064: 01 00 80 d2  	mov	x1, #0
    d068: a1 01 00 54  	b.ne	0xd09c <bpf_object__open+0x8c>
    d06c: e0 03 13 aa  	mov	x0, x19
    d070: f3 0b 40 f9  	ldr	x19, [sp, #16]
    d074: fd 7b c4 a8  	ldp	x29, x30, [sp], #64
    d078: c0 03 5f d6  	ret
    d07c: 00 00 00 94  	bl	0xd07c <bpf_object__open+0x6c>
    d080: e2 03 13 4b  	neg	w2, w19
    d084: 01 00 00 90  	adrp	x1, 0xd000 <bpf_object__open+0x74>
    d088: 02 00 00 b9  	str	w2, [x0]
    d08c: 20 00 40 b9  	ldr	w0, [x1]
    d090: 1f 00 40 f2  	tst	x0, #0x1
    d094: 73 02 9f 9a  	csel	x19, x19, xzr, eq
    d098: ee ff ff 17  	b	0xd050 <bpf_object__open+0x40>
    d09c: 00 00 00 94  	bl	0xd09c <bpf_object__open+0x8c>

000000000000d0a0 <bpf_object__open_xattr>:
    d0a0: fd 7b be a9  	stp	x29, x30, [sp, #-32]!
    d0a4: fd 03 00 91  	mov	x29, sp
    d0a8: f3 0b 00 f9  	str	x19, [sp, #16]
    d0ac: 9e ff ff 97  	bl	0xcf24 <__bpf_object__open_xattr.constprop.0>
    d0b0: f3 03 00 aa  	mov	x19, x0
    d0b4: 1f 04 40 b1  	cmn	x0, #1, lsl #12         // =4096
    d0b8: a8 00 00 54  	b.hi	0xd0cc <bpf_object__open_xattr+0x2c>
    d0bc: e0 03 13 aa  	mov	x0, x19
    d0c0: f3 0b 40 f9  	ldr	x19, [sp, #16]
    d0c4: fd 7b c2 a8  	ldp	x29, x30, [sp], #32
    d0c8: c0 03 5f d6  	ret
    d0cc: 00 00 00 94  	bl	0xd0cc <bpf_object__open_xattr+0x2c>
    d0d0: e2 03 13 4b  	neg	w2, w19
    d0d4: 01 00 00 90  	adrp	x1, 0xd000 <bpf_object__open_xattr+0x34>
    d0d8: 02 00 00 b9  	str	w2, [x0]
    d0dc: 20 00 40 b9  	ldr	w0, [x1]
    d0e0: 1f 00 40 f2  	tst	x0, #0x1
    d0e4: 73 02 9f 9a  	csel	x19, x19, xzr, eq
    d0e8: e0 03 13 aa  	mov	x0, x19
    d0ec: f3 0b 40 f9  	ldr	x19, [sp, #16]
    d0f0: fd 7b c2 a8  	ldp	x29, x30, [sp], #32
    d0f4: c0 03 5f d6  	ret
    d0f8: 1f 20 03 d5  	nop
    d0fc: 1f 20 03 d5  	nop

000000000000d100 <bpf_object__find_map_fd_by_name>:
    d100: fd 7b bf a9  	stp	x29, x30, [sp, #-16]!
    d104: fd 03 00 91  	mov	x29, sp
    d108: 00 00 00 94  	bl	0xd108 <bpf_object__find_map_fd_by_name+0x8>
    d10c: 80 00 00 b4  	cbz	x0, 0xd11c <bpf_object__find_map_fd_by_name+0x1c>
    d110: 00 08 40 b9  	ldr	w0, [x0, #8]
    d114: fd 7b c1 a8  	ldp	x29, x30, [sp], #16
    d118: c0 03 5f d6  	ret
    d11c: 00 00 00 94  	bl	0xd11c <bpf_object__find_map_fd_by_name+0x1c>
    d120: e1 03 00 aa  	mov	x1, x0
    d124: c2 02 80 52  	mov	w2, #22
    d128: a0 02 80 12  	mov	w0, #-22
    d12c: 22 00 00 b9  	str	w2, [x1]
    d130: f9 ff ff 17  	b	0xd114 <bpf_object__find_map_fd_by_name+0x14>

000000000000d134 <bpf_object__find_map_by_offset>:
    d134: fd 7b bf a9  	stp	x29, x30, [sp, #-16]!
    d138: fd 03 00 91  	mov	x29, sp
    d13c: 00 00 00 94  	bl	0xd13c <bpf_object__find_map_by_offset+0x8>
    d140: e3 0b 80 52  	mov	w3, #95
    d144: 02 00 00 90  	adrp	x2, 0xd000 <bpf_object__find_map_by_offset+0x10>
    d148: 03 00 00 b9  	str	w3, [x0]
    d14c: c1 0b 80 92  	mov	x1, #-95
    d150: 40 00 40 b9  	ldr	w0, [x2]
    d154: fd 7b c1 a8  	ldp	x29, x30, [sp], #16
    d158: 1f 00 40 f2  	tst	x0, #0x1
    d15c: 20 00 9f 9a  	csel	x0, x1, xzr, eq
    d160: c0 03 5f d6  	ret

000000000000d164 <libbpf_get_error>:
    d164: fd 7b be a9  	stp	x29, x30, [sp, #-32]!
    d168: fd 03 00 91  	mov	x29, sp
    d16c: 20 01 00 b4  	cbz	x0, 0xd190 <libbpf_get_error+0x2c>
    d170: f3 0b 00 f9  	str	x19, [sp, #16]
    d174: f3 03 00 aa  	mov	x19, x0
    d178: 1f 04 40 b1  	cmn	x0, #1, lsl #12         // =4096
    d17c: 68 01 00 54  	b.hi	0xd1a8 <libbpf_get_error+0x44>
    d180: 00 00 80 d2  	mov	x0, #0
    d184: f3 0b 40 f9  	ldr	x19, [sp, #16]
    d188: fd 7b c2 a8  	ldp	x29, x30, [sp], #32
    d18c: c0 03 5f d6  	ret
    d190: 00 00 00 94  	bl	0xd190 <libbpf_get_error+0x2c>
    d194: 00 00 40 b9  	ldr	w0, [x0]
    d198: e0 03 00 4b  	neg	w0, w0
    d19c: fd 7b c2 a8  	ldp	x29, x30, [sp], #32
    d1a0: 00 7c 40 93  	sxtw	x0, w0
    d1a4: c0 03 5f d6  	ret
    d1a8: 00 00 00 94  	bl	0xd1a8 <libbpf_get_error+0x44>
    d1ac: e1 03 00 aa  	mov	x1, x0
    d1b0: e0 03 13 4b  	neg	w0, w19
    d1b4: f3 0b 40 f9  	ldr	x19, [sp, #16]
    d1b8: 20 00 00 b9  	str	w0, [x1]
    d1bc: f7 ff ff 17  	b	0xd198 <libbpf_get_error+0x34>

000000000000d1c0 <bpf_link__update_program>:
    d1c0: fd 7b be a9  	stp	x29, x30, [sp, #-32]!
    d1c4: fd 03 00 91  	mov	x29, sp
    d1c8: f3 0b 00 f9  	str	x19, [sp, #16]
    d1cc: 13 18 40 b9  	ldr	w19, [x0, #24]
    d1d0: e1 03 00 b4  	cbz	x1, 0xd24c <bpf_link__update_program+0x8c>
    d1d4: 24 60 40 b9  	ldr	w4, [x1, #96]
    d1d8: e2 03 01 aa  	mov	x2, x1
    d1dc: 9f 00 00 71  	cmp	w4, #0
    d1e0: ad 02 00 54  	b.le	0xd234 <bpf_link__update_program+0x74>
    d1e4: 20 34 40 f9  	ldr	x0, [x1, #104]
    d1e8: 01 00 40 b9  	ldr	w1, [x0]
    d1ec: a1 03 f8 37  	tbnz	w1, #31, 0xd260 <bpf_link__update_program+0xa0>
    d1f0: e0 03 13 2a  	mov	w0, w19
    d1f4: 02 00 80 d2  	mov	x2, #0
    d1f8: 00 00 00 94  	bl	0xd1f8 <bpf_link__update_program+0x38>
    d1fc: 01 00 00 90  	adrp	x1, 0xd000 <bpf_link__update_program+0x3c>
    d200: 21 00 40 b9  	ldr	w1, [x1]
    d204: 3f 00 7f f2  	tst	x1, #0x2
    d208: 00 18 40 7a  	ccmp	w0, #0, #0, ne
    d20c: 8b 00 00 54  	b.lt	0xd21c <bpf_link__update_program+0x5c>
    d210: f3 0b 40 f9  	ldr	x19, [sp, #16]
    d214: fd 7b c2 a8  	ldp	x29, x30, [sp], #32
    d218: c0 03 5f d6  	ret
    d21c: 00 00 00 94  	bl	0xd21c <bpf_link__update_program+0x5c>
    d220: 00 00 40 b9  	ldr	w0, [x0]
    d224: f3 0b 40 f9  	ldr	x19, [sp, #16]
    d228: e0 03 00 4b  	neg	w0, w0
    d22c: fd 7b c2 a8  	ldp	x29, x30, [sp], #32
    d230: c0 03 5f d6  	ret
    d234: 43 18 40 f9  	ldr	x3, [x2, #48]
    d238: 01 00 00 90  	adrp	x1, 0xd000 <bpf_link__update_program+0x78>
    d23c: 00 00 80 52  	mov	w0, #0
    d240: 21 00 00 91  	add	x1, x1, #0
    d244: 02 00 80 52  	mov	w2, #0
    d248: 00 00 00 94  	bl	0xd248 <bpf_link__update_program+0x88>
    d24c: 00 00 00 94  	bl	0xd24c <bpf_link__update_program+0x8c>
    d250: c2 02 80 52  	mov	w2, #22
    d254: a1 02 80 12  	mov	w1, #-22
    d258: 02 00 00 b9  	str	w2, [x0]
    d25c: e5 ff ff 17  	b	0xd1f0 <bpf_link__update_program+0x30>
    d260: 43 18 40 f9  	ldr	x3, [x2, #48]
    d264: 01 00 00 90  	adrp	x1, 0xd000 <bpf_link__update_program+0xa4>
    d268: 21 00 00 91  	add	x1, x1, #0
    d26c: 02 00 80 52  	mov	w2, #0
    d270: 00 00 80 52  	mov	w0, #0
    d274: 00 00 00 94  	bl	0xd274 <bpf_link__update_program+0xb4>
    d278: 00 00 00 94  	bl	0xd278 <bpf_link__update_program+0xb8>
    d27c: 42 00 80 52  	mov	w2, #2
    d280: 21 00 80 12  	mov	w1, #-2
    d284: 02 00 00 b9  	str	w2, [x0]
    d288: da ff ff 17  	b	0xd1f0 <bpf_link__update_program+0x30>
    d28c: 1f 20 03 d5  	nop

000000000000d290 <bpf_link__disconnect>:
    d290: 21 00 80 52  	mov	w1, #1
    d294: 01 70 00 39  	strb	w1, [x0, #28]
    d298: c0 03 5f d6  	ret
    d29c: 1f 20 03 d5  	nop

000000000000d2a0 <bpf_link__destroy>:
    d2a0: 80 00 00 b4  	cbz	x0, 0xd2b0 <bpf_link__destroy+0x10>
    d2a4: 1f 04 40 b1  	cmn	x0, #1, lsl #12         // =4096
    d2a8: 48 00 00 54  	b.hi	0xd2b0 <bpf_link__destroy+0x10>
    d2ac: 05 d0 ff 17  	b	0x12c0 <bpf_link__destroy.part.0>
    d2b0: 00 00 80 52  	mov	w0, #0
    d2b4: c0 03 5f d6  	ret
    d2b8: 1f 20 03 d5  	nop
    d2bc: 1f 20 03 d5  	nop

000000000000d2c0 <bpf_link__fd>:
    d2c0: 00 18 40 b9  	ldr	w0, [x0, #24]
    d2c4: c0 03 5f d6  	ret
    d2c8: 1f 20 03 d5  	nop
    d2cc: 1f 20 03 d5  	nop

000000000000d2d0 <bpf_link__pin_path>:
    d2d0: 00 08 40 f9  	ldr	x0, [x0, #16]
    d2d4: c0 03 5f d6  	ret
    d2d8: 1f 20 03 d5  	nop
    d2dc: 1f 20 03 d5  	nop

000000000000d2e0 <bpf_link__open>:
    d2e0: fd 7b bd a9  	stp	x29, x30, [sp, #-48]!
    d2e4: fd 03 00 91  	mov	x29, sp
    d2e8: f3 53 01 a9  	stp	x19, x20, [sp, #16]
    d2ec: f5 5b 02 a9  	stp	x21, x22, [sp, #32]
    d2f0: f5 03 00 aa  	mov	x21, x0
    d2f4: 00 00 00 94  	bl	0xd2f4 <bpf_link__open+0x14>
    d2f8: a0 02 f8 37  	tbnz	w0, #31, 0xd34c <bpf_link__open+0x6c>
    d2fc: f4 03 00 2a  	mov	w20, w0
    d300: 01 04 80 d2  	mov	x1, #32
    d304: 20 00 80 d2  	mov	x0, #1
    d308: 00 00 00 94  	bl	0xd308 <bpf_link__open+0x28>
    d30c: f3 03 00 aa  	mov	x19, x0
    d310: f6 03 00 aa  	mov	x22, x0
    d314: 40 05 00 b4  	cbz	x0, 0xd3bc <bpf_link__open+0xdc>
    d318: 01 00 00 90  	adrp	x1, 0xd000 <bpf_link__open+0x38>
    d31c: 21 00 00 91  	add	x1, x1, #0
    d320: 61 02 00 f9  	str	x1, [x19]
    d324: e0 03 15 aa  	mov	x0, x21
    d328: 74 1a 00 b9  	str	w20, [x19, #24]
    d32c: 00 00 00 94  	bl	0xd32c <bpf_link__open+0x4c>
    d330: 60 0a 00 f9  	str	x0, [x19, #16]
    d334: 60 03 00 b4  	cbz	x0, 0xd3a0 <bpf_link__open+0xc0>
    d338: e0 03 16 aa  	mov	x0, x22
    d33c: f3 53 41 a9  	ldp	x19, x20, [sp, #16]
    d340: f5 5b 42 a9  	ldp	x21, x22, [sp, #32]
    d344: fd 7b c3 a8  	ldp	x29, x30, [sp], #48
    d348: c0 03 5f d6  	ret
    d34c: 00 00 00 94  	bl	0xd34c <bpf_link__open+0x6c>
    d350: f3 03 00 aa  	mov	x19, x0
    d354: e2 03 15 aa  	mov	x2, x21
    d358: 00 00 80 52  	mov	w0, #0
    d35c: 01 00 00 90  	adrp	x1, 0xd000 <bpf_link__open+0x7c>
    d360: 21 00 00 91  	add	x1, x1, #0
    d364: 74 02 40 b9  	ldr	w20, [x19]
    d368: f6 03 14 4b  	neg	w22, w20
    d36c: e3 03 16 2a  	mov	w3, w22
    d370: 00 00 00 94  	bl	0xd370 <bpf_link__open+0x90>
    d374: 00 00 00 90  	adrp	x0, 0xd000 <bpf_link__open+0x94>
    d378: 74 02 00 b9  	str	w20, [x19]
    d37c: d6 7e 40 93  	sxtw	x22, w22
    d380: 00 00 40 b9  	ldr	w0, [x0]
    d384: f3 53 41 a9  	ldp	x19, x20, [sp, #16]
    d388: 1f 00 40 f2  	tst	x0, #0x1
    d38c: d6 02 9f 9a  	csel	x22, x22, xzr, eq
    d390: e0 03 16 aa  	mov	x0, x22
    d394: f5 5b 42 a9  	ldp	x21, x22, [sp, #32]
    d398: fd 7b c3 a8  	ldp	x29, x30, [sp], #48
    d39c: c0 03 5f d6  	ret
    d3a0: e0 03 13 aa  	mov	x0, x19
    d3a4: 00 00 00 94  	bl	0xd3a4 <bpf_link__open+0xc4>
    d3a8: f3 53 41 a9  	ldp	x19, x20, [sp, #16]
    d3ac: 60 01 80 12  	mov	w0, #-12
    d3b0: f5 5b 42 a9  	ldp	x21, x22, [sp, #32]
    d3b4: fd 7b c3 a8  	ldp	x29, x30, [sp], #48
    d3b8: 9e cb ff 17  	b	0x230 <libbpf_err_ptr>
    d3bc: e0 03 14 2a  	mov	w0, w20
    d3c0: 00 00 00 94  	bl	0xd3c0 <bpf_link__open+0xe0>
    d3c4: f9 ff ff 17  	b	0xd3a8 <bpf_link__open+0xc8>
    d3c8: 1f 20 03 d5  	nop
    d3cc: 1f 20 03 d5  	nop

000000000000d3d0 <bpf_link__detach>:
    d3d0: fd 7b bf a9  	stp	x29, x30, [sp, #-16]!
    d3d4: fd 03 00 91  	mov	x29, sp
    d3d8: 00 18 40 b9  	ldr	w0, [x0, #24]
    d3dc: 00 00 00 94  	bl	0xd3dc <bpf_link__detach+0xc>
    d3e0: 80 00 00 34  	cbz	w0, 0xd3f0 <bpf_link__detach+0x20>
    d3e4: 00 00 00 94  	bl	0xd3e4 <bpf_link__detach+0x14>
    d3e8: 00 00 40 b9  	ldr	w0, [x0]
    d3ec: e0 03 00 4b  	neg	w0, w0
    d3f0: fd 7b c1 a8  	ldp	x29, x30, [sp], #16
    d3f4: c0 03 5f d6  	ret
    d3f8: 1f 20 03 d5  	nop
    d3fc: 1f 20 03 d5  	nop

000000000000d400 <bpf_link__pin>:
    d400: fd 7b bd a9  	stp	x29, x30, [sp, #-48]!
    d404: fd 03 00 91  	mov	x29, sp
    d408: f3 53 01 a9  	stp	x19, x20, [sp, #16]
    d40c: f4 03 00 aa  	mov	x20, x0
    d410: 00 08 40 f9  	ldr	x0, [x0, #16]
    d414: 60 07 00 b5  	cbnz	x0, 0xd500 <bpf_link__pin+0x100>
    d418: e0 03 01 aa  	mov	x0, x1
    d41c: f5 5b 02 a9  	stp	x21, x22, [sp, #32]
    d420: f5 03 01 aa  	mov	x21, x1
    d424: b8 d8 ff 97  	bl	0x3704 <make_parent_dir>
    d428: f3 03 00 2a  	mov	w19, w0
    d42c: 1f 00 00 71  	cmp	w0, #0
    d430: e0 00 00 34  	cbz	w0, 0xd44c <bpf_link__pin+0x4c>
    d434: eb 03 00 54  	b.lt	0xd4b0 <bpf_link__pin+0xb0>
    d438: f5 5b 42 a9  	ldp	x21, x22, [sp, #32]
    d43c: e0 03 13 2a  	mov	w0, w19
    d440: f3 53 41 a9  	ldp	x19, x20, [sp, #16]
    d444: fd 7b c3 a8  	ldp	x29, x30, [sp], #48
    d448: c0 03 5f d6  	ret
    d44c: e0 03 15 aa  	mov	x0, x21
    d450: e8 d8 ff 97  	bl	0x37f0 <check_path>
    d454: f3 03 00 2a  	mov	w19, w0
    d458: 1f 00 00 71  	cmp	w0, #0
    d45c: c0 fe ff 35  	cbnz	w0, 0xd434 <bpf_link__pin+0x34>
    d460: e0 03 15 aa  	mov	x0, x21
    d464: 00 00 00 94  	bl	0xd464 <bpf_link__pin+0x64>
    d468: 80 0a 00 f9  	str	x0, [x20, #16]
    d46c: e1 03 00 aa  	mov	x1, x0
    d470: 20 05 00 b4  	cbz	x0, 0xd514 <bpf_link__pin+0x114>
    d474: 80 1a 40 b9  	ldr	w0, [x20, #24]
    d478: 00 00 00 94  	bl	0xd478 <bpf_link__pin+0x78>
    d47c: f3 03 00 2a  	mov	w19, w0
    d480: 80 02 00 35  	cbnz	w0, 0xd4d0 <bpf_link__pin+0xd0>
    d484: 82 1a 40 b9  	ldr	w2, [x20, #24]
    d488: 40 00 80 52  	mov	w0, #2
    d48c: 83 0a 40 f9  	ldr	x3, [x20, #16]
    d490: 01 00 00 90  	adrp	x1, 0xd000 <bpf_link__pin+0x90>
    d494: 21 00 00 91  	add	x1, x1, #0
    d498: 00 00 00 94  	bl	0xd498 <bpf_link__pin+0x98>
    d49c: e0 03 13 2a  	mov	w0, w19
    d4a0: f3 53 41 a9  	ldp	x19, x20, [sp, #16]
    d4a4: f5 5b 42 a9  	ldp	x21, x22, [sp, #32]
    d4a8: fd 7b c3 a8  	ldp	x29, x30, [sp], #48
    d4ac: c0 03 5f d6  	ret
    d4b0: 00 00 00 94  	bl	0xd4b0 <bpf_link__pin+0xb0>
    d4b4: e1 03 13 4b  	neg	w1, w19
    d4b8: f5 5b 42 a9  	ldp	x21, x22, [sp, #32]
    d4bc: 01 00 00 b9  	str	w1, [x0]
    d4c0: e0 03 13 2a  	mov	w0, w19
    d4c4: f3 53 41 a9  	ldp	x19, x20, [sp, #16]
    d4c8: fd 7b c3 a8  	ldp	x29, x30, [sp], #48
    d4cc: c0 03 5f d6  	ret
    d4d0: 00 00 00 94  	bl	0xd4d0 <bpf_link__pin+0xd0>
    d4d4: 16 00 40 b9  	ldr	w22, [x0]
    d4d8: f5 03 00 aa  	mov	x21, x0
    d4dc: 80 0a 40 f9  	ldr	x0, [x20, #16]
    d4e0: f3 03 16 4b  	neg	w19, w22
    d4e4: 00 00 00 94  	bl	0xd4e4 <bpf_link__pin+0xe4>
    d4e8: 9f 0a 00 f9  	str	xzr, [x20, #16]
    d4ec: df 02 00 71  	cmp	w22, #0
    d4f0: 4d fa ff 54  	b.le	0xd438 <bpf_link__pin+0x38>
    d4f4: b6 02 00 b9  	str	w22, [x21]
    d4f8: f5 5b 42 a9  	ldp	x21, x22, [sp, #32]
    d4fc: d0 ff ff 17  	b	0xd43c <bpf_link__pin+0x3c>
    d500: 00 00 00 94  	bl	0xd500 <bpf_link__pin+0x100>
    d504: f3 01 80 12  	mov	w19, #-16
    d508: 01 02 80 52  	mov	w1, #16
    d50c: 01 00 00 b9  	str	w1, [x0]
    d510: cb ff ff 17  	b	0xd43c <bpf_link__pin+0x3c>
    d514: 60 01 80 12  	mov	w0, #-12
    d518: f3 03 00 2a  	mov	w19, w0
    d51c: c1 cd ff 97  	bl	0xc20 <libbpf_err.part.0>
    d520: f5 5b 42 a9  	ldp	x21, x22, [sp, #32]
    d524: c6 ff ff 17  	b	0xd43c <bpf_link__pin+0x3c>
    d528: 1f 20 03 d5  	nop
    d52c: 1f 20 03 d5  	nop

000000000000d530 <bpf_link__unpin>:
    d530: fd 7b be a9  	stp	x29, x30, [sp, #-32]!
    d534: fd 03 00 91  	mov	x29, sp
    d538: f3 53 01 a9  	stp	x19, x20, [sp, #16]
    d53c: f4 03 00 aa  	mov	x20, x0
    d540: 00 08 40 f9  	ldr	x0, [x0, #16]
    d544: 00 03 00 b4  	cbz	x0, 0xd5a4 <bpf_link__unpin+0x74>
    d548: 00 00 00 94  	bl	0xd548 <bpf_link__unpin+0x18>
    d54c: f3 03 00 2a  	mov	w19, w0
    d550: 00 01 00 34  	cbz	w0, 0xd570 <bpf_link__unpin+0x40>
    d554: 00 00 00 94  	bl	0xd554 <bpf_link__unpin+0x24>
    d558: 13 00 40 b9  	ldr	w19, [x0]
    d55c: f3 03 13 4b  	neg	w19, w19
    d560: e0 03 13 2a  	mov	w0, w19
    d564: f3 53 41 a9  	ldp	x19, x20, [sp, #16]
    d568: fd 7b c2 a8  	ldp	x29, x30, [sp], #32
    d56c: c0 03 5f d6  	ret
    d570: 82 1a 40 b9  	ldr	w2, [x20, #24]
    d574: 40 00 80 52  	mov	w0, #2
    d578: 83 0a 40 f9  	ldr	x3, [x20, #16]
    d57c: 01 00 00 90  	adrp	x1, 0xd000 <bpf_link__unpin+0x4c>
    d580: 21 00 00 91  	add	x1, x1, #0
    d584: 00 00 00 94  	bl	0xd584 <bpf_link__unpin+0x54>
    d588: 80 0a 40 f9  	ldr	x0, [x20, #16]
    d58c: 00 00 00 94  	bl	0xd58c <bpf_link__unpin+0x5c>
    d590: 9f 0a 00 f9  	str	xzr, [x20, #16]
    d594: e0 03 13 2a  	mov	w0, w19
    d598: f3 53 41 a9  	ldp	x19, x20, [sp, #16]
    d59c: fd 7b c2 a8  	ldp	x29, x30, [sp], #32
    d5a0: c0 03 5f d6  	ret
    d5a4: 00 00 00 94  	bl	0xd5a4 <bpf_link__unpin+0x74>
    d5a8: b3 02 80 12  	mov	w19, #-22
    d5ac: c1 02 80 52  	mov	w1, #22
    d5b0: 01 00 00 b9  	str	w1, [x0]
    d5b4: eb ff ff 17  	b	0xd560 <bpf_link__unpin+0x30>
    d5b8: 1f 20 03 d5  	nop
    d5bc: 1f 20 03 d5  	nop

000000000000d5c0 <bpf_program__attach_perf_event_opts>:
    d5c0: fd 7b ad a9  	stp	x29, x30, [sp, #-304]!
    d5c4: 03 00 00 90  	adrp	x3, 0xd000 <bpf_program__attach_perf_event_opts+0x4>
    d5c8: fd 03 00 91  	mov	x29, sp
    d5cc: 63 00 40 f9  	ldr	x3, [x3]
    d5d0: f3 53 01 a9  	stp	x19, x20, [sp, #16]
    d5d4: f3 03 02 aa  	mov	x19, x2
    d5d8: f5 5b 02 a9  	stp	x21, x22, [sp, #32]
    d5dc: f6 03 00 aa  	mov	x22, x0
    d5e0: f5 03 01 2a  	mov	w21, w1
    d5e4: 60 00 40 f9  	ldr	x0, [x3]
    d5e8: e0 97 00 f9  	str	x0, [sp, #296]
    d5ec: 00 00 80 d2  	mov	x0, #0
    d5f0: c2 02 00 b4  	cbz	x2, 0xd648 <bpf_program__attach_perf_event_opts+0x88>
    d5f4: 43 00 40 f9  	ldr	x3, [x2]
    d5f8: 7f 1c 00 f1  	cmp	x3, #7
    d5fc: 69 10 00 54  	b.ls	0xd808 <bpf_program__attach_perf_event_opts+0x248>
    d600: 60 40 00 d1  	sub	x0, x3, #16
    d604: 44 40 00 91  	add	x4, x2, #16
    d608: 1f 00 00 f1  	cmp	x0, #0
    d60c: ed 01 00 54  	b.le	0xd648 <bpf_program__attach_perf_event_opts+0x88>
    d610: 42 00 03 8b  	add	x2, x2, x3
    d614: 04 00 00 14  	b	0xd624 <bpf_program__attach_perf_event_opts+0x64>
    d618: 84 04 00 91  	add	x4, x4, #1
    d61c: 9f 00 02 eb  	cmp	x4, x2
    d620: 40 01 00 54  	b.eq	0xd648 <bpf_program__attach_perf_event_opts+0x88>
    d624: 85 00 40 39  	ldrb	w5, [x4]
    d628: 85 ff ff 34  	cbz	w5, 0xd618 <bpf_program__attach_perf_event_opts+0x58>
    d62c: 02 00 00 90  	adrp	x2, 0xd000 <bpf_program__attach_perf_event_opts+0x6c>
    d630: 01 00 00 90  	adrp	x1, 0xd000 <bpf_program__attach_perf_event_opts+0x70>
    d634: 42 00 00 91  	add	x2, x2, #0
    d638: 21 00 00 91  	add	x1, x1, #0
    d63c: 00 00 80 52  	mov	w0, #0
    d640: 00 00 00 94  	bl	0xd640 <bpf_program__attach_perf_event_opts+0x80>
    d644: 44 00 00 14  	b	0xd754 <bpf_program__attach_perf_event_opts+0x194>
    d648: b5 07 f8 37  	tbnz	w21, #31, 0xd73c <bpf_program__attach_perf_event_opts+0x17c>
    d64c: e0 03 16 aa  	mov	x0, x22
    d650: 01 00 80 52  	mov	w1, #0
    d654: f7 63 03 a9  	stp	x23, x24, [sp, #48]
    d658: 00 00 00 94  	bl	0xd658 <bpf_program__attach_perf_event_opts+0x98>
    d65c: f7 03 00 2a  	mov	w23, w0
    d660: 40 0b f8 37  	tbnz	w0, #31, 0xd7c8 <bpf_program__attach_perf_event_opts+0x208>
    d664: 01 05 80 d2  	mov	x1, #40
    d668: 20 00 80 d2  	mov	x0, #1
    d66c: 00 00 00 94  	bl	0xd66c <bpf_program__attach_perf_event_opts+0xac>
    d670: f4 03 00 aa  	mov	x20, x0
    d674: 60 1b 00 b4  	cbz	x0, 0xd9e0 <bpf_program__attach_perf_event_opts+0x420>
    d678: c2 3e 40 f9  	ldr	x2, [x22, #120]
    d67c: 01 00 00 90  	adrp	x1, 0xd000 <bpf_program__attach_perf_event_opts+0xbc>
    d680: 21 00 00 91  	add	x1, x1, #0
    d684: 81 02 00 f9  	str	x1, [x20]
    d688: 00 00 00 90  	adrp	x0, 0xd000 <bpf_program__attach_perf_event_opts+0xc8>
    d68c: 00 00 00 91  	add	x0, x0, #0
    d690: 41 50 40 f9  	ldr	x1, [x2, #160]
    d694: 80 06 00 f9  	str	x0, [x20, #8]
    d698: 95 22 00 b9  	str	w21, [x20, #32]
    d69c: c1 06 00 b4  	cbz	x1, 0xd774 <bpf_program__attach_perf_event_opts+0x1b4>
    d6a0: 04 00 80 d2  	mov	x4, #0
    d6a4: b3 00 00 b4  	cbz	x19, 0xd6b8 <bpf_program__attach_perf_event_opts+0xf8>
    d6a8: 60 02 40 f9  	ldr	x0, [x19]
    d6ac: 04 00 80 d2  	mov	x4, #0
    d6b0: 1f 3c 00 f1  	cmp	x0, #15
    d6b4: 68 0a 00 54  	b.hi	0xd800 <bpf_program__attach_perf_event_opts+0x240>
    d6b8: 00 05 80 d2  	mov	x0, #40
    d6bc: e0 43 00 f9  	str	x0, [sp, #128]
    d6c0: ff ff 08 a9  	stp	xzr, xzr, [sp, #136]
    d6c4: e3 63 01 91  	add	x3, sp, #88
    d6c8: e1 03 15 2a  	mov	w1, w21
    d6cc: ff 93 09 a9  	stp	xzr, x4, [sp, #152]
    d6d0: e0 03 17 2a  	mov	w0, w23
    d6d4: 22 05 80 52  	mov	w2, #41
    d6d8: e0 07 44 ad  	ldp	q0, q1, [sp, #128]
    d6dc: 64 10 00 f9  	str	x4, [x3, #32]
    d6e0: 60 04 00 ad  	stp	q0, q1, [x3]
    d6e4: 00 00 00 94  	bl	0xd6e4 <bpf_program__attach_perf_event_opts+0x124>
    d6e8: f3 03 00 2a  	mov	w19, w0
    d6ec: 60 0d f8 37  	tbnz	w0, #31, 0xd898 <bpf_program__attach_perf_event_opts+0x2d8>
    d6f0: e0 03 15 2a  	mov	w0, w21
    d6f4: 02 00 80 52  	mov	w2, #0
    d6f8: 01 80 84 d2  	mov	x1, #9216
    d6fc: 93 1a 00 b9  	str	w19, [x20, #24]
    d700: 00 00 00 94  	bl	0xd700 <bpf_program__attach_perf_event_opts+0x140>
    d704: 20 10 f8 37  	tbnz	w0, #31, 0xd908 <bpf_program__attach_perf_event_opts+0x348>
    d708: f7 63 43 a9  	ldp	x23, x24, [sp, #48]
    d70c: e0 03 14 aa  	mov	x0, x20
    d710: 01 00 00 90  	adrp	x1, 0xd000 <bpf_program__attach_perf_event_opts+0x150>
    d714: 21 00 40 f9  	ldr	x1, [x1]
    d718: e3 97 40 f9  	ldr	x3, [sp, #296]
    d71c: 22 00 40 f9  	ldr	x2, [x1]
    d720: 63 00 02 eb  	subs	x3, x3, x2
    d724: 02 00 80 d2  	mov	x2, #0
    d728: 61 15 00 54  	b.ne	0xd9d4 <bpf_program__attach_perf_event_opts+0x414>
    d72c: f3 53 41 a9  	ldp	x19, x20, [sp, #16]
    d730: f5 5b 42 a9  	ldp	x21, x22, [sp, #32]
    d734: fd 7b d3 a8  	ldp	x29, x30, [sp], #304
    d738: c0 03 5f d6  	ret
    d73c: c2 1a 40 f9  	ldr	x2, [x22, #48]
    d740: 01 00 00 90  	adrp	x1, 0xd000 <bpf_program__attach_perf_event_opts+0x180>
    d744: e3 03 15 2a  	mov	w3, w21
    d748: 21 00 00 91  	add	x1, x1, #0
    d74c: 00 00 80 52  	mov	w0, #0
    d750: 00 00 00 94  	bl	0xd750 <bpf_program__attach_perf_event_opts+0x190>
    d754: 00 00 00 94  	bl	0xd754 <bpf_program__attach_perf_event_opts+0x194>
    d758: c2 02 80 52  	mov	w2, #22
    d75c: 01 00 00 90  	adrp	x1, 0xd000 <bpf_program__attach_perf_event_opts+0x19c>
    d760: 02 00 00 b9  	str	w2, [x0]
    d764: 20 00 40 b9  	ldr	w0, [x1]
    d768: 80 04 00 37  	tbnz	w0, #0, 0xd7f8 <bpf_program__attach_perf_event_opts+0x238>
    d76c: a0 02 80 92  	mov	x0, #-22
    d770: e8 ff ff 17  	b	0xd710 <bpf_program__attach_perf_event_opts+0x150>
    d774: 80 01 80 52  	mov	w0, #12
    d778: 22 d0 ff 97  	bl	0x1800 <kernel_supports.part.0>
    d77c: 1f 1c 00 72  	tst	w0, #0xff
    d780: 01 f9 ff 54  	b.ne	0xd6a0 <bpf_program__attach_perf_event_opts+0xe0>
    d784: f3 04 00 b4  	cbz	x19, 0xd820 <bpf_program__attach_perf_event_opts+0x260>
    d788: 60 02 40 f9  	ldr	x0, [x19]
    d78c: 1f 3c 00 f1  	cmp	x0, #15
    d790: 89 04 00 54  	b.ls	0xd820 <bpf_program__attach_perf_event_opts+0x260>
    d794: 60 06 40 f9  	ldr	x0, [x19, #8]
    d798: 40 04 00 b4  	cbz	x0, 0xd820 <bpf_program__attach_perf_event_opts+0x260>
    d79c: c2 1a 40 f9  	ldr	x2, [x22, #48]
    d7a0: 01 00 00 90  	adrp	x1, 0xd000 <bpf_program__attach_perf_event_opts+0x1e0>
    d7a4: 21 00 00 91  	add	x1, x1, #0
    d7a8: 00 00 80 52  	mov	w0, #0
    d7ac: f9 23 00 f9  	str	x25, [sp, #64]
    d7b0: d8 0b 80 12  	mov	w24, #-95
    d7b4: 00 00 00 94  	bl	0xd7b4 <bpf_program__attach_perf_event_opts+0x1f4>
    d7b8: f9 0b 80 52  	mov	w25, #95
    d7bc: 00 00 00 94  	bl	0xd7bc <bpf_program__attach_perf_event_opts+0x1fc>
    d7c0: f7 03 00 aa  	mov	x23, x0
    d7c4: 47 00 00 14  	b	0xd8e0 <bpf_program__attach_perf_event_opts+0x320>
    d7c8: c2 1a 40 f9  	ldr	x2, [x22, #48]
    d7cc: 01 00 00 90  	adrp	x1, 0xd000 <bpf_program__attach_perf_event_opts+0x20c>
    d7d0: 21 00 00 91  	add	x1, x1, #0
    d7d4: 00 00 80 52  	mov	w0, #0
    d7d8: 00 00 00 94  	bl	0xd7d8 <bpf_program__attach_perf_event_opts+0x218>
    d7dc: 00 00 00 94  	bl	0xd7dc <bpf_program__attach_perf_event_opts+0x21c>
    d7e0: c2 02 80 52  	mov	w2, #22
    d7e4: 01 00 00 90  	adrp	x1, 0xd000 <bpf_program__attach_perf_event_opts+0x224>
    d7e8: f7 63 43 a9  	ldp	x23, x24, [sp, #48]
    d7ec: 02 00 00 b9  	str	w2, [x0]
    d7f0: 20 00 40 b9  	ldr	w0, [x1]
    d7f4: c0 fb 07 36  	tbz	w0, #0, 0xd76c <bpf_program__attach_perf_event_opts+0x1ac>
    d7f8: 00 00 80 d2  	mov	x0, #0
    d7fc: c5 ff ff 17  	b	0xd710 <bpf_program__attach_perf_event_opts+0x150>
    d800: 64 06 40 f9  	ldr	x4, [x19, #8]
    d804: ad ff ff 17  	b	0xd6b8 <bpf_program__attach_perf_event_opts+0xf8>
    d808: 02 00 00 90  	adrp	x2, 0xd000 <bpf_program__attach_perf_event_opts+0x248>
    d80c: 01 00 00 90  	adrp	x1, 0xd000 <bpf_program__attach_perf_event_opts+0x24c>
    d810: 42 00 00 91  	add	x2, x2, #0
    d814: 21 00 00 91  	add	x1, x1, #0
    d818: 00 00 00 94  	bl	0xd818 <bpf_program__attach_perf_event_opts+0x258>
    d81c: ce ff ff 17  	b	0xd754 <bpf_program__attach_perf_event_opts+0x194>
    d820: 01 81 84 d2  	mov	x1, #9224
    d824: e2 03 17 2a  	mov	w2, w23
    d828: e0 03 15 2a  	mov	w0, w21
    d82c: 81 00 a8 f2  	movk	x1, #16388, lsl #16
    d830: 00 00 00 94  	bl	0xd830 <bpf_program__attach_perf_event_opts+0x270>
    d834: a0 09 f8 37  	tbnz	w0, #31, 0xd968 <bpf_program__attach_perf_event_opts+0x3a8>
    d838: e0 03 15 2a  	mov	w0, w21
    d83c: 02 00 80 52  	mov	w2, #0
    d840: 01 80 84 d2  	mov	x1, #9216
    d844: 95 1a 00 b9  	str	w21, [x20, #24]
    d848: 00 00 00 94  	bl	0xd848 <bpf_program__attach_perf_event_opts+0x288>
    d84c: e0 f5 ff 36  	tbz	w0, #31, 0xd708 <bpf_program__attach_perf_event_opts+0x148>
    d850: f9 23 00 f9  	str	x25, [sp, #64]
    d854: 00 00 00 94  	bl	0xd854 <bpf_program__attach_perf_event_opts+0x294>
    d858: 19 00 40 b9  	ldr	w25, [x0]
    d85c: e1 a3 02 91  	add	x1, sp, #168
    d860: d3 1a 40 f9  	ldr	x19, [x22, #48]
    d864: f8 03 19 4b  	neg	w24, w25
    d868: f7 03 00 aa  	mov	x23, x0
    d86c: 02 10 80 52  	mov	w2, #128
    d870: e0 03 18 2a  	mov	w0, w24
    d874: 00 00 00 94  	bl	0xd874 <bpf_program__attach_perf_event_opts+0x2b4>
    d878: e2 03 13 aa  	mov	x2, x19
    d87c: e4 03 00 aa  	mov	x4, x0
    d880: e3 03 15 2a  	mov	w3, w21
    d884: 01 00 00 90  	adrp	x1, 0xd000 <bpf_program__attach_perf_event_opts+0x2c4>
    d888: 00 00 80 52  	mov	w0, #0
    d88c: 21 00 00 91  	add	x1, x1, #0
    d890: 00 00 00 94  	bl	0xd890 <bpf_program__attach_perf_event_opts+0x2d0>
    d894: 13 00 00 14  	b	0xd8e0 <bpf_program__attach_perf_event_opts+0x320>
    d898: f9 23 00 f9  	str	x25, [sp, #64]
    d89c: 00 00 00 94  	bl	0xd89c <bpf_program__attach_perf_event_opts+0x2dc>
    d8a0: 19 00 40 b9  	ldr	w25, [x0]
    d8a4: e1 a3 02 91  	add	x1, sp, #168
    d8a8: d3 1a 40 f9  	ldr	x19, [x22, #48]
    d8ac: f8 03 19 4b  	neg	w24, w25
    d8b0: 02 10 80 52  	mov	w2, #128
    d8b4: f7 03 00 aa  	mov	x23, x0
    d8b8: e0 03 18 2a  	mov	w0, w24
    d8bc: 00 00 00 94  	bl	0xd8bc <bpf_program__attach_perf_event_opts+0x2fc>
    d8c0: 01 00 00 90  	adrp	x1, 0xd000 <bpf_program__attach_perf_event_opts+0x300>
    d8c4: e5 03 00 aa  	mov	x5, x0
    d8c8: e2 03 13 aa  	mov	x2, x19
    d8cc: e3 03 15 2a  	mov	w3, w21
    d8d0: e4 03 18 2a  	mov	w4, w24
    d8d4: 21 00 00 91  	add	x1, x1, #0
    d8d8: 00 00 80 52  	mov	w0, #0
    d8dc: 00 00 00 94  	bl	0xd8dc <bpf_program__attach_perf_event_opts+0x31c>
    d8e0: e0 03 14 aa  	mov	x0, x20
    d8e4: 00 00 00 94  	bl	0xd8e4 <bpf_program__attach_perf_event_opts+0x324>
    d8e8: 00 00 00 90  	adrp	x0, 0xd000 <bpf_program__attach_perf_event_opts+0x328>
    d8ec: f9 02 00 b9  	str	w25, [x23]
    d8f0: 00 00 40 b9  	ldr	w0, [x0]
    d8f4: 20 03 00 37  	tbnz	w0, #0, 0xd958 <bpf_program__attach_perf_event_opts+0x398>
    d8f8: 00 7f 40 93  	sxtw	x0, w24
    d8fc: f7 63 43 a9  	ldp	x23, x24, [sp, #48]
    d900: f9 23 40 f9  	ldr	x25, [sp, #64]
    d904: 83 ff ff 17  	b	0xd710 <bpf_program__attach_perf_event_opts+0x150>
    d908: f9 23 00 f9  	str	x25, [sp, #64]
    d90c: 00 00 00 94  	bl	0xd90c <bpf_program__attach_perf_event_opts+0x34c>
    d910: 19 00 40 b9  	ldr	w25, [x0]
    d914: e1 a3 02 91  	add	x1, sp, #168
    d918: d6 1a 40 f9  	ldr	x22, [x22, #48]
    d91c: f8 03 19 4b  	neg	w24, w25
    d920: f7 03 00 aa  	mov	x23, x0
    d924: 02 10 80 52  	mov	w2, #128
    d928: e0 03 18 2a  	mov	w0, w24
    d92c: 00 00 00 94  	bl	0xd92c <bpf_program__attach_perf_event_opts+0x36c>
    d930: e2 03 16 aa  	mov	x2, x22
    d934: e4 03 00 aa  	mov	x4, x0
    d938: e3 03 15 2a  	mov	w3, w21
    d93c: 01 00 00 90  	adrp	x1, 0xd000 <bpf_program__attach_perf_event_opts+0x37c>
    d940: 21 00 00 91  	add	x1, x1, #0
    d944: 00 00 80 52  	mov	w0, #0
    d948: 00 00 00 94  	bl	0xd948 <bpf_program__attach_perf_event_opts+0x388>
    d94c: e0 03 13 2a  	mov	w0, w19
    d950: 00 00 00 94  	bl	0xd950 <bpf_program__attach_perf_event_opts+0x390>
    d954: e3 ff ff 17  	b	0xd8e0 <bpf_program__attach_perf_event_opts+0x320>
    d958: 00 00 80 d2  	mov	x0, #0
    d95c: f7 63 43 a9  	ldp	x23, x24, [sp, #48]
    d960: f9 23 40 f9  	ldr	x25, [sp, #64]
    d964: 6b ff ff 17  	b	0xd710 <bpf_program__attach_perf_event_opts+0x150>
    d968: f9 23 00 f9  	str	x25, [sp, #64]
    d96c: 00 00 00 94  	bl	0xd96c <bpf_program__attach_perf_event_opts+0x3ac>
    d970: 19 00 40 b9  	ldr	w25, [x0]
    d974: e1 a3 02 91  	add	x1, sp, #168
    d978: d3 1a 40 f9  	ldr	x19, [x22, #48]
    d97c: f8 03 19 4b  	neg	w24, w25
    d980: 02 10 80 52  	mov	w2, #128
    d984: f7 03 00 aa  	mov	x23, x0
    d988: e0 03 18 2a  	mov	w0, w24
    d98c: 00 00 00 94  	bl	0xd98c <bpf_program__attach_perf_event_opts+0x3cc>
    d990: 01 00 00 90  	adrp	x1, 0xd000 <bpf_program__attach_perf_event_opts+0x3d0>
    d994: e4 03 00 aa  	mov	x4, x0
    d998: e2 03 13 aa  	mov	x2, x19
    d99c: e3 03 15 2a  	mov	w3, w21
    d9a0: 21 00 00 91  	add	x1, x1, #0
    d9a4: 00 00 80 52  	mov	w0, #0
    d9a8: 00 00 00 94  	bl	0xd9a8 <bpf_program__attach_perf_event_opts+0x3e8>
    d9ac: 3f 1f 01 71  	cmp	w25, #71
    d9b0: 81 f9 ff 54  	b.ne	0xd8e0 <bpf_program__attach_perf_event_opts+0x320>
    d9b4: c2 1a 40 f9  	ldr	x2, [x22, #48]
    d9b8: e3 03 15 2a  	mov	w3, w21
    d9bc: 01 00 00 90  	adrp	x1, 0xd000 <bpf_program__attach_perf_event_opts+0x3fc>
    d9c0: 00 00 80 52  	mov	w0, #0
    d9c4: 21 00 00 91  	add	x1, x1, #0
    d9c8: d8 08 80 12  	mov	w24, #-71
    d9cc: 00 00 00 94  	bl	0xd9cc <bpf_program__attach_perf_event_opts+0x40c>
    d9d0: c4 ff ff 17  	b	0xd8e0 <bpf_program__attach_perf_event_opts+0x320>
    d9d4: f7 63 03 a9  	stp	x23, x24, [sp, #48]
    d9d8: f9 23 00 f9  	str	x25, [sp, #64]
    d9dc: 00 00 00 94  	bl	0xd9dc <bpf_program__attach_perf_event_opts+0x41c>
    d9e0: 00 00 00 90  	adrp	x0, 0xd000 <bpf_program__attach_perf_event_opts+0x420>
    d9e4: 00 00 40 f9  	ldr	x0, [x0]
    d9e8: e2 97 40 f9  	ldr	x2, [sp, #296]
    d9ec: 01 00 40 f9  	ldr	x1, [x0]
    d9f0: 42 00 01 eb  	subs	x2, x2, x1
    d9f4: 01 00 80 d2  	mov	x1, #0
    d9f8: 01 ff ff 54  	b.ne	0xd9d8 <bpf_program__attach_perf_event_opts+0x418>
    d9fc: f3 53 41 a9  	ldp	x19, x20, [sp, #16]
    da00: 60 01 80 12  	mov	w0, #-12
    da04: f5 5b 42 a9  	ldp	x21, x22, [sp, #32]
    da08: f7 63 43 a9  	ldp	x23, x24, [sp, #48]
    da0c: fd 7b d3 a8  	ldp	x29, x30, [sp], #304
    da10: 08 ca ff 17  	b	0x230 <libbpf_err_ptr>

000000000000da14 <bpf_program__attach_perf_event>:
    da14: 02 00 80 d2  	mov	x2, #0
    da18: 00 00 00 14  	b	0xda18 <bpf_program__attach_perf_event+0x4>
    da1c: 1f 20 03 d5  	nop

000000000000da20 <bpf_program__attach_kprobe_opts>:
    da20: fd 7b b1 a9  	stp	x29, x30, [sp, #-240]!
    da24: 03 00 00 90  	adrp	x3, 0xd000 <bpf_program__attach_kprobe_opts+0x4>
    da28: 04 02 80 d2  	mov	x4, #16
    da2c: fd 03 00 91  	mov	x29, sp
    da30: 63 00 40 f9  	ldr	x3, [x3]
    da34: f3 53 01 a9  	stp	x19, x20, [sp, #16]
    da38: f5 5b 02 a9  	stp	x21, x22, [sp, #32]
    da3c: f6 03 00 aa  	mov	x22, x0
    da40: f5 03 01 aa  	mov	x21, x1
    da44: f7 63 03 a9  	stp	x23, x24, [sp, #48]
    da48: 60 00 40 f9  	ldr	x0, [x3]
    da4c: e0 77 00 f9  	str	x0, [sp, #232]
    da50: 00 00 80 d2  	mov	x0, #0
    da54: e4 ff 05 a9  	stp	x4, xzr, [sp, #88]
    da58: c2 0c 00 b4  	cbz	x2, 0xdbf0 <bpf_program__attach_kprobe_opts+0x1d0>
    da5c: 43 00 40 f9  	ldr	x3, [x2]
    da60: 7f 1c 00 f1  	cmp	x3, #7
    da64: 09 0e 00 54  	b.ls	0xdc24 <bpf_program__attach_kprobe_opts+0x204>
    da68: 60 64 00 d1  	sub	x0, x3, #25
    da6c: 45 64 00 91  	add	x5, x2, #25
    da70: 1f 00 00 f1  	cmp	x0, #0
    da74: ed 02 00 54  	b.le	0xdad0 <bpf_program__attach_kprobe_opts+0xb0>
    da78: 40 00 03 8b  	add	x0, x2, x3
    da7c: 04 00 00 14  	b	0xda8c <bpf_program__attach_kprobe_opts+0x6c>
    da80: a5 04 00 91  	add	x5, x5, #1
    da84: bf 00 00 eb  	cmp	x5, x0
    da88: 40 02 00 54  	b.eq	0xdad0 <bpf_program__attach_kprobe_opts+0xb0>
    da8c: a6 00 40 39  	ldrb	w6, [x5]
    da90: 86 ff ff 34  	cbz	w6, 0xda80 <bpf_program__attach_kprobe_opts+0x60>
    da94: 02 00 00 90  	adrp	x2, 0xd000 <bpf_program__attach_kprobe_opts+0x74>
    da98: 01 00 00 90  	adrp	x1, 0xd000 <bpf_program__attach_kprobe_opts+0x78>
    da9c: 42 00 00 91  	add	x2, x2, #0
    daa0: 21 00 00 91  	add	x1, x1, #0
    daa4: 00 00 80 52  	mov	w0, #0
    daa8: 00 00 00 94  	bl	0xdaa8 <bpf_program__attach_kprobe_opts+0x88>
    daac: 00 00 00 94  	bl	0xdaac <bpf_program__attach_kprobe_opts+0x8c>
    dab0: b4 02 80 92  	mov	x20, #-22
    dab4: c2 02 80 52  	mov	w2, #22
    dab8: 01 00 00 90  	adrp	x1, 0xd000 <bpf_program__attach_kprobe_opts+0x98>
    dabc: 02 00 00 b9  	str	w2, [x0]
    dac0: 20 00 40 b9  	ldr	w0, [x1]
    dac4: 60 03 00 36  	tbz	w0, #0, 0xdb30 <bpf_program__attach_kprobe_opts+0x110>
    dac8: 14 00 80 d2  	mov	x20, #0
    dacc: 19 00 00 14  	b	0xdb30 <bpf_program__attach_kprobe_opts+0x110>
    dad0: 7f 60 00 f1  	cmp	x3, #24
    dad4: 88 04 00 54  	b.hi	0xdb64 <bpf_program__attach_kprobe_opts+0x144>
    dad8: e0 12 00 54  	b.eq	0xdd34 <bpf_program__attach_kprobe_opts+0x314>
    dadc: 7f 3c 00 f1  	cmp	x3, #15
    dae0: c8 10 00 54  	b.hi	0xdcf8 <bpf_program__attach_kprobe_opts+0x2d8>
    dae4: e2 03 15 aa  	mov	x2, x21
    dae8: 05 00 80 d2  	mov	x5, #0
    daec: 04 00 80 12  	mov	w4, #-1
    daf0: 03 00 80 d2  	mov	x3, #0
    daf4: 01 00 80 52  	mov	w1, #0
    daf8: 00 00 80 52  	mov	w0, #0
    dafc: ff 33 00 f9  	str	xzr, [sp, #96]
    db00: f8 d7 ff 97  	bl	0x3ae0 <perf_event_open_probe>
    db04: f3 03 00 2a  	mov	w19, w0
    db08: 60 08 f8 37  	tbnz	w0, #31, 0xdc14 <bpf_program__attach_kprobe_opts+0x1f4>
    db0c: 18 00 80 52  	mov	w24, #0
    db10: e2 63 01 91  	add	x2, sp, #88
    db14: e1 03 13 2a  	mov	w1, w19
    db18: e0 03 16 aa  	mov	x0, x22
    db1c: 00 00 00 94  	bl	0xdb1c <bpf_program__attach_kprobe_opts+0xfc>
    db20: f4 03 00 aa  	mov	x20, x0
    db24: c0 08 00 b4  	cbz	x0, 0xdc3c <bpf_program__attach_kprobe_opts+0x21c>
    db28: 1f 04 40 b1  	cmn	x0, #1, lsl #12         // =4096
    db2c: 08 0d 00 54  	b.hi	0xdccc <bpf_program__attach_kprobe_opts+0x2ac>
    db30: 00 00 00 90  	adrp	x0, 0xd000 <bpf_program__attach_kprobe_opts+0x110>
    db34: 00 00 40 f9  	ldr	x0, [x0]
    db38: e2 77 40 f9  	ldr	x2, [sp, #232]
    db3c: 01 00 40 f9  	ldr	x1, [x0]
    db40: 42 00 01 eb  	subs	x2, x2, x1
    db44: 01 00 80 d2  	mov	x1, #0
    db48: 41 0d 00 54  	b.ne	0xdcf0 <bpf_program__attach_kprobe_opts+0x2d0>
    db4c: e0 03 14 aa  	mov	x0, x20
    db50: f3 53 41 a9  	ldp	x19, x20, [sp, #16]
    db54: f5 5b 42 a9  	ldp	x21, x22, [sp, #32]
    db58: f7 63 43 a9  	ldp	x23, x24, [sp, #48]
    db5c: fd 7b cf a8  	ldp	x29, x30, [sp], #240
    db60: c0 03 5f d6  	ret
    db64: 58 60 40 39  	ldrb	w24, [x2, #24]
    db68: 46 8c 40 a9  	ldp	x6, x3, [x2, #8]
    db6c: e1 03 18 2a  	mov	w1, w24
    db70: e2 03 15 aa  	mov	x2, x21
    db74: 05 00 80 d2  	mov	x5, #0
    db78: 04 00 80 12  	mov	w4, #-1
    db7c: 00 00 80 52  	mov	w0, #0
    db80: e6 33 00 f9  	str	x6, [sp, #96]
    db84: d7 d7 ff 97  	bl	0x3ae0 <perf_event_open_probe>
    db88: f3 03 00 2a  	mov	w19, w0
    db8c: 20 fc ff 36  	tbz	w0, #31, 0xdb10 <bpf_program__attach_kprobe_opts+0xf0>
    db90: d6 1a 40 f9  	ldr	x22, [x22, #48]
    db94: b8 0c 00 34  	cbz	w24, 0xdd28 <bpf_program__attach_kprobe_opts+0x308>
    db98: 14 00 00 90  	adrp	x20, 0xd000 <bpf_program__attach_kprobe_opts+0x178>
    db9c: 94 02 00 91  	add	x20, x20, #0
    dba0: e1 a3 01 91  	add	x1, sp, #104
    dba4: 02 10 80 52  	mov	w2, #128
    dba8: e0 03 13 2a  	mov	w0, w19
    dbac: 00 00 00 94  	bl	0xdbac <bpf_program__attach_kprobe_opts+0x18c>
    dbb0: e2 03 16 aa  	mov	x2, x22
    dbb4: e5 03 00 aa  	mov	x5, x0
    dbb8: e4 03 15 aa  	mov	x4, x21
    dbbc: e3 03 14 aa  	mov	x3, x20
    dbc0: 01 00 00 90  	adrp	x1, 0xd000 <bpf_program__attach_kprobe_opts+0x1a0>
    dbc4: 21 00 00 91  	add	x1, x1, #0
    dbc8: 00 00 80 52  	mov	w0, #0
    dbcc: 00 00 00 94  	bl	0xdbcc <bpf_program__attach_kprobe_opts+0x1ac>
    dbd0: 00 00 00 94  	bl	0xdbd0 <bpf_program__attach_kprobe_opts+0x1b0>
    dbd4: e2 03 13 4b  	neg	w2, w19
    dbd8: 01 00 00 90  	adrp	x1, 0xd000 <bpf_program__attach_kprobe_opts+0x1b8>
    dbdc: 02 00 00 b9  	str	w2, [x0]
    dbe0: 20 00 40 b9  	ldr	w0, [x1]
    dbe4: 20 f7 07 37  	tbnz	w0, #0, 0xdac8 <bpf_program__attach_kprobe_opts+0xa8>
    dbe8: 74 7e 40 93  	sxtw	x20, w19
    dbec: d1 ff ff 17  	b	0xdb30 <bpf_program__attach_kprobe_opts+0x110>
    dbf0: e2 03 01 aa  	mov	x2, x1
    dbf4: 05 00 80 d2  	mov	x5, #0
    dbf8: 04 00 80 12  	mov	w4, #-1
    dbfc: 03 00 80 d2  	mov	x3, #0
    dc00: 01 00 80 52  	mov	w1, #0
    dc04: 00 00 80 52  	mov	w0, #0
    dc08: b6 d7 ff 97  	bl	0x3ae0 <perf_event_open_probe>
    dc0c: f3 03 00 2a  	mov	w19, w0
    dc10: e0 f7 ff 36  	tbz	w0, #31, 0xdb0c <bpf_program__attach_kprobe_opts+0xec>
    dc14: 14 00 00 90  	adrp	x20, 0xd000 <bpf_program__attach_kprobe_opts+0x1f4>
    dc18: 94 02 00 91  	add	x20, x20, #0
    dc1c: d6 1a 40 f9  	ldr	x22, [x22, #48]
    dc20: e0 ff ff 17  	b	0xdba0 <bpf_program__attach_kprobe_opts+0x180>
    dc24: 02 00 00 90  	adrp	x2, 0xd000 <bpf_program__attach_kprobe_opts+0x204>
    dc28: 01 00 00 90  	adrp	x1, 0xd000 <bpf_program__attach_kprobe_opts+0x208>
    dc2c: 42 00 00 91  	add	x2, x2, #0
    dc30: 21 00 00 91  	add	x1, x1, #0
    dc34: 00 00 00 94  	bl	0xdc34 <bpf_program__attach_kprobe_opts+0x214>
    dc38: 9d ff ff 17  	b	0xdaac <bpf_program__attach_kprobe_opts+0x8c>
    dc3c: f9 23 00 f9  	str	x25, [sp, #64]
    dc40: 00 00 00 94  	bl	0xdc40 <bpf_program__attach_kprobe_opts+0x220>
    dc44: 17 00 40 b9  	ldr	w23, [x0]
    dc48: f9 03 00 aa  	mov	x25, x0
    dc4c: 77 00 00 35  	cbnz	w23, 0xdc58 <bpf_program__attach_kprobe_opts+0x238>
    dc50: f9 23 40 f9  	ldr	x25, [sp, #64]
    dc54: b7 ff ff 17  	b	0xdb30 <bpf_program__attach_kprobe_opts+0x110>
    dc58: e0 03 13 2a  	mov	w0, w19
    dc5c: 00 00 00 94  	bl	0xdc5c <bpf_program__attach_kprobe_opts+0x23c>
    dc60: 1f 03 00 71  	cmp	w24, #0
    dc64: f4 03 17 4b  	neg	w20, w23
    dc68: d6 1a 40 f9  	ldr	x22, [x22, #48]
    dc6c: 01 00 00 90  	adrp	x1, 0xd000 <bpf_program__attach_kprobe_opts+0x24c>
    dc70: 13 00 00 90  	adrp	x19, 0xd000 <bpf_program__attach_kprobe_opts+0x250>
    dc74: 21 00 00 91  	add	x1, x1, #0
    dc78: 73 02 00 91  	add	x19, x19, #0
    dc7c: 02 10 80 52  	mov	w2, #128
    dc80: 73 12 81 9a  	csel	x19, x19, x1, ne
    dc84: e0 03 14 2a  	mov	w0, w20
    dc88: e1 a3 01 91  	add	x1, sp, #104
    dc8c: 00 00 00 94  	bl	0xdc8c <bpf_program__attach_kprobe_opts+0x26c>
    dc90: e3 03 13 aa  	mov	x3, x19
    dc94: e5 03 00 aa  	mov	x5, x0
    dc98: e2 03 16 aa  	mov	x2, x22
    dc9c: 00 00 80 52  	mov	w0, #0
    dca0: e4 03 15 aa  	mov	x4, x21
    dca4: 01 00 00 90  	adrp	x1, 0xd000 <bpf_program__attach_kprobe_opts+0x284>
    dca8: 21 00 00 91  	add	x1, x1, #0
    dcac: 00 00 00 94  	bl	0xdcac <bpf_program__attach_kprobe_opts+0x28c>
    dcb0: 00 00 00 90  	adrp	x0, 0xd000 <bpf_program__attach_kprobe_opts+0x290>
    dcb4: 37 03 00 b9  	str	w23, [x25]
    dcb8: 00 00 40 b9  	ldr	w0, [x0]
    dcbc: 40 01 00 37  	tbnz	w0, #0, 0xdce4 <bpf_program__attach_kprobe_opts+0x2c4>
    dcc0: 94 7e 40 93  	sxtw	x20, w20
    dcc4: f9 23 40 f9  	ldr	x25, [sp, #64]
    dcc8: 9a ff ff 17  	b	0xdb30 <bpf_program__attach_kprobe_opts+0x110>
    dccc: f7 03 00 4b  	neg	w23, w0
    dcd0: f9 23 00 f9  	str	x25, [sp, #64]
    dcd4: 00 00 00 94  	bl	0xdcd4 <bpf_program__attach_kprobe_opts+0x2b4>
    dcd8: f9 03 00 aa  	mov	x25, x0
    dcdc: 17 00 00 b9  	str	w23, [x0]
    dce0: db ff ff 17  	b	0xdc4c <bpf_program__attach_kprobe_opts+0x22c>
    dce4: 14 00 80 d2  	mov	x20, #0
    dce8: f9 23 40 f9  	ldr	x25, [sp, #64]
    dcec: 91 ff ff 17  	b	0xdb30 <bpf_program__attach_kprobe_opts+0x110>
    dcf0: f9 23 00 f9  	str	x25, [sp, #64]
    dcf4: 00 00 00 94  	bl	0xdcf4 <bpf_program__attach_kprobe_opts+0x2d4>
    dcf8: 46 04 40 f9  	ldr	x6, [x2, #8]
    dcfc: 05 00 80 d2  	mov	x5, #0
    dd00: e2 03 15 aa  	mov	x2, x21
    dd04: 04 00 80 12  	mov	w4, #-1
    dd08: 03 00 80 d2  	mov	x3, #0
    dd0c: 01 00 80 52  	mov	w1, #0
    dd10: 00 00 80 52  	mov	w0, #0
    dd14: e6 33 00 f9  	str	x6, [sp, #96]
    dd18: 72 d7 ff 97  	bl	0x3ae0 <perf_event_open_probe>
    dd1c: f3 03 00 2a  	mov	w19, w0
    dd20: a0 f7 ff 37  	tbnz	w0, #31, 0xdc14 <bpf_program__attach_kprobe_opts+0x1f4>
    dd24: 7a ff ff 17  	b	0xdb0c <bpf_program__attach_kprobe_opts+0xec>
    dd28: 14 00 00 90  	adrp	x20, 0xd000 <bpf_program__attach_kprobe_opts+0x308>
    dd2c: 94 02 00 91  	add	x20, x20, #0
    dd30: 9c ff ff 17  	b	0xdba0 <bpf_program__attach_kprobe_opts+0x180>
    dd34: 18 00 80 52  	mov	w24, #0
    dd38: 8c ff ff 17  	b	0xdb68 <bpf_program__attach_kprobe_opts+0x148>
    dd3c: 1f 20 03 d5  	nop

000000000000dd40 <attach_kprobe>:
    dd40: fd 7b b7 a9  	stp	x29, x30, [sp, #-144]!
    dd44: 02 00 00 90  	adrp	x2, 0xd000 <attach_kprobe+0x4>
    dd48: e3 03 00 aa  	mov	x3, x0
    dd4c: fd 03 00 91  	mov	x29, sp
    dd50: 42 00 40 f9  	ldr	x2, [x2]
    dd54: f3 53 01 a9  	stp	x19, x20, [sp, #16]
    dd58: f3 03 01 aa  	mov	x19, x1
    dd5c: 34 04 40 f9  	ldr	x20, [x1, #8]
    dd60: f5 13 00 f9  	str	x21, [sp, #32]
    dd64: 00 04 80 d2  	mov	x0, #32
    dd68: f5 23 01 91  	add	x21, sp, #72
    dd6c: 41 00 40 f9  	ldr	x1, [x2]
    dd70: e1 47 00 f9  	str	x1, [sp, #136]
    dd74: 01 00 80 d2  	mov	x1, #0
    dd78: e2 a3 01 91  	add	x2, sp, #104
    dd7c: e0 37 00 f9  	str	x0, [sp, #104]
    dd80: 01 00 00 90  	adrp	x1, 0xd000 <attach_kprobe+0x40>
    dd84: ff 7f 07 a9  	stp	xzr, xzr, [sp, #112]
    dd88: 21 00 00 91  	add	x1, x1, #0
    dd8c: ff 43 00 f9  	str	xzr, [sp, #128]
    dd90: ff 1f 00 f9  	str	xzr, [sp, #56]
    dd94: 40 04 40 ad  	ldp	q0, q1, [x2]
    dd98: 60 08 40 a9  	ldp	x0, x2, [x3]
    dd9c: a0 06 00 ad  	stp	q0, q1, [x21]
    dda0: 94 02 02 8b  	add	x20, x20, x2
    dda4: 00 00 00 94  	bl	0xdda4 <attach_kprobe+0x64>
    dda8: 1f 00 00 71  	cmp	w0, #0
    ddac: 01 00 00 90  	adrp	x1, 0xd000 <attach_kprobe+0x6c>
    ddb0: e4 17 9f 1a  	cset	w4, eq
    ddb4: e0 03 14 aa  	mov	x0, x20
    ddb8: 21 00 00 91  	add	x1, x1, #0
    ddbc: e3 e3 00 91  	add	x3, sp, #56
    ddc0: e2 03 01 91  	add	x2, sp, #64
    ddc4: e4 83 01 39  	strb	w4, [sp, #96]
    ddc8: 00 00 00 94  	bl	0xddc8 <attach_kprobe+0x88>
    ddcc: 1f 00 00 71  	cmp	w0, #0
    ddd0: cd 04 00 54  	b.le	0xde68 <attach_kprobe+0x128>
    ddd4: e2 83 41 39  	ldrb	w2, [sp, #96]
    ddd8: e3 87 43 a9  	ldp	x3, x1, [sp, #56]
    dddc: 42 00 00 34  	cbz	w2, 0xdde4 <attach_kprobe+0xa4>
    dde0: 83 02 00 b5  	cbnz	x3, 0xde30 <attach_kprobe+0xf0>
    dde4: e0 03 13 aa  	mov	x0, x19
    dde8: e2 03 15 aa  	mov	x2, x21
    ddec: e3 2f 00 f9  	str	x3, [sp, #88]
    ddf0: 00 00 00 94  	bl	0xddf0 <attach_kprobe+0xb0>
    ddf4: f3 03 00 aa  	mov	x19, x0
    ddf8: e0 23 40 f9  	ldr	x0, [sp, #64]
    ddfc: 00 00 00 94  	bl	0xddfc <attach_kprobe+0xbc>
    de00: 01 00 00 90  	adrp	x1, 0xd000 <attach_kprobe+0xc0>
    de04: 21 00 40 f9  	ldr	x1, [x1]
    de08: e0 47 40 f9  	ldr	x0, [sp, #136]
    de0c: 22 00 40 f9  	ldr	x2, [x1]
    de10: 00 00 02 eb  	subs	x0, x0, x2
    de14: 02 00 80 d2  	mov	x2, #0
    de18: 81 03 00 54  	b.ne	0xde88 <attach_kprobe+0x148>
    de1c: e0 03 13 aa  	mov	x0, x19
    de20: f3 53 41 a9  	ldp	x19, x20, [sp, #16]
    de24: f5 13 40 f9  	ldr	x21, [sp, #32]
    de28: fd 7b c9 a8  	ldp	x29, x30, [sp], #144
    de2c: c0 03 5f d6  	ret
    de30: e0 03 01 aa  	mov	x0, x1
    de34: 00 00 00 94  	bl	0xde34 <attach_kprobe+0xf4>
    de38: 01 00 00 90  	adrp	x1, 0xd000 <attach_kprobe+0xf8>
    de3c: 00 00 80 52  	mov	w0, #0
    de40: 21 00 00 91  	add	x1, x1, #0
    de44: 00 00 00 94  	bl	0xde44 <attach_kprobe+0x104>
    de48: 00 00 00 94  	bl	0xde48 <attach_kprobe+0x108>
    de4c: c2 02 80 52  	mov	w2, #22
    de50: 01 00 00 90  	adrp	x1, 0xd000 <attach_kprobe+0x110>
    de54: 02 00 00 b9  	str	w2, [x0]
    de58: 20 00 40 b9  	ldr	w0, [x1]
    de5c: 20 01 00 37  	tbnz	w0, #0, 0xde80 <attach_kprobe+0x140>
    de60: b3 02 80 92  	mov	x19, #-22
    de64: e7 ff ff 17  	b	0xde00 <attach_kprobe+0xc0>
    de68: e2 03 14 aa  	mov	x2, x20
    de6c: 01 00 00 90  	adrp	x1, 0xd000 <attach_kprobe+0x12c>
    de70: 00 00 80 52  	mov	w0, #0
    de74: 21 00 00 91  	add	x1, x1, #0
    de78: 00 00 00 94  	bl	0xde78 <attach_kprobe+0x138>
    de7c: f3 ff ff 17  	b	0xde48 <attach_kprobe+0x108>
    de80: 13 00 80 d2  	mov	x19, #0
    de84: df ff ff 17  	b	0xde00 <attach_kprobe+0xc0>
    de88: 00 00 00 94  	bl	0xde88 <attach_kprobe+0x148>
    de8c: 1f 20 03 d5  	nop

000000000000de90 <bpf_program__attach_kprobe>:
    de90: fd 7b ba a9  	stp	x29, x30, [sp, #-96]!
    de94: 04 00 00 90  	adrp	x4, 0xd000 <bpf_program__attach_kprobe+0x4>
    de98: e5 03 02 aa  	mov	x5, x2
    de9c: fd 03 00 91  	mov	x29, sp
    dea0: 84 00 40 f9  	ldr	x4, [x4]
    dea4: e3 63 00 91  	add	x3, sp, #24
    dea8: e2 03 03 aa  	mov	x2, x3
    deac: 06 04 80 d2  	mov	x6, #32
    deb0: 83 00 40 f9  	ldr	x3, [x4]
    deb4: e3 2f 00 f9  	str	x3, [sp, #88]
    deb8: 03 00 80 d2  	mov	x3, #0
    debc: ff 2b 00 f9  	str	xzr, [sp, #80]
    dec0: e3 e3 00 91  	add	x3, sp, #56
    dec4: e6 1f 00 f9  	str	x6, [sp, #56]
    dec8: ff 7f 04 a9  	stp	xzr, xzr, [sp, #64]
    decc: e1 43 01 39  	strb	w1, [sp, #80]
    ded0: e1 03 05 aa  	mov	x1, x5
    ded4: 60 04 40 ad  	ldp	q0, q1, [x3]
    ded8: 40 04 00 ad  	stp	q0, q1, [x2]
    dedc: 00 00 00 94  	bl	0xdedc <bpf_program__attach_kprobe+0x4c>
    dee0: 01 00 00 90  	adrp	x1, 0xd000 <bpf_program__attach_kprobe+0x50>
    dee4: 21 00 40 f9  	ldr	x1, [x1]
    dee8: e3 2f 40 f9  	ldr	x3, [sp, #88]
    deec: 22 00 40 f9  	ldr	x2, [x1]
    def0: 63 00 02 eb  	subs	x3, x3, x2
    def4: 02 00 80 d2  	mov	x2, #0
    def8: 61 00 00 54  	b.ne	0xdf04 <bpf_program__attach_kprobe+0x74>
    defc: fd 7b c6 a8  	ldp	x29, x30, [sp], #96
    df00: c0 03 5f d6  	ret
    df04: 00 00 00 94  	bl	0xdf04 <bpf_program__attach_kprobe+0x74>
    df08: 1f 20 03 d5  	nop
    df0c: 1f 20 03 d5  	nop

000000000000df10 <bpf_program__attach_uprobe_opts>:
    df10: fd 7b b1 a9  	stp	x29, x30, [sp, #-240]!
    df14: 05 00 00 90  	adrp	x5, 0xd000 <bpf_program__attach_uprobe_opts+0x4>
    df18: e8 03 04 aa  	mov	x8, x4
    df1c: fd 03 00 91  	mov	x29, sp
    df20: a5 00 40 f9  	ldr	x5, [x5]
    df24: f3 53 01 a9  	stp	x19, x20, [sp, #16]
    df28: 06 02 80 d2  	mov	x6, #16
    df2c: f5 5b 02 a9  	stp	x21, x22, [sp, #32]
    df30: f5 03 02 aa  	mov	x21, x2
    df34: f6 03 03 aa  	mov	x22, x3
    df38: f7 63 03 a9  	stp	x23, x24, [sp, #48]
    df3c: f7 03 00 aa  	mov	x23, x0
    df40: a4 00 40 f9  	ldr	x4, [x5]
    df44: e4 77 00 f9  	str	x4, [sp, #232]
    df48: 04 00 80 d2  	mov	x4, #0
    df4c: e6 ff 05 a9  	stp	x6, xzr, [sp, #88]
    df50: e4 03 01 2a  	mov	w4, w1
    df54: 08 09 00 b4  	cbz	x8, 0xe074 <bpf_program__attach_uprobe_opts+0x164>
    df58: 03 01 40 f9  	ldr	x3, [x8]
    df5c: 7f 1c 00 f1  	cmp	x3, #7
    df60: 89 0d 00 54  	b.ls	0xe110 <bpf_program__attach_uprobe_opts+0x200>
    df64: 60 64 00 d1  	sub	x0, x3, #25
    df68: 06 65 00 91  	add	x6, x8, #25
    df6c: 1f 00 00 f1  	cmp	x0, #0
    df70: ed 02 00 54  	b.le	0xdfcc <bpf_program__attach_uprobe_opts+0xbc>
    df74: 00 01 03 8b  	add	x0, x8, x3
    df78: 04 00 00 14  	b	0xdf88 <bpf_program__attach_uprobe_opts+0x78>
    df7c: c6 04 00 91  	add	x6, x6, #1
    df80: df 00 00 eb  	cmp	x6, x0
    df84: 40 02 00 54  	b.eq	0xdfcc <bpf_program__attach_uprobe_opts+0xbc>
    df88: c7 00 40 39  	ldrb	w7, [x6]
    df8c: 87 ff ff 34  	cbz	w7, 0xdf7c <bpf_program__attach_uprobe_opts+0x6c>
    df90: 02 00 00 90  	adrp	x2, 0xd000 <bpf_program__attach_uprobe_opts+0x80>
    df94: 01 00 00 90  	adrp	x1, 0xd000 <bpf_program__attach_uprobe_opts+0x84>
    df98: 42 00 00 91  	add	x2, x2, #0
    df9c: 21 00 00 91  	add	x1, x1, #0
    dfa0: 00 00 80 52  	mov	w0, #0
    dfa4: 00 00 00 94  	bl	0xdfa4 <bpf_program__attach_uprobe_opts+0x94>
    dfa8: 00 00 00 94  	bl	0xdfa8 <bpf_program__attach_uprobe_opts+0x98>
    dfac: b4 02 80 92  	mov	x20, #-22
    dfb0: c2 02 80 52  	mov	w2, #22
    dfb4: 01 00 00 90  	adrp	x1, 0xd000 <bpf_program__attach_uprobe_opts+0xa4>
    dfb8: 02 00 00 b9  	str	w2, [x0]
    dfbc: 20 00 40 b9  	ldr	w0, [x1]
    dfc0: a0 03 00 36  	tbz	w0, #0, 0xe034 <bpf_program__attach_uprobe_opts+0x124>
    dfc4: 14 00 80 d2  	mov	x20, #0
    dfc8: 1b 00 00 14  	b	0xe034 <bpf_program__attach_uprobe_opts+0x124>
    dfcc: 7f 60 00 f1  	cmp	x3, #24
    dfd0: c8 04 00 54  	b.hi	0xe068 <bpf_program__attach_uprobe_opts+0x158>
    dfd4: 18 00 80 52  	mov	w24, #0
    dfd8: 05 00 80 d2  	mov	x5, #0
    dfdc: 7f 3c 00 f1  	cmp	x3, #15
    dfe0: 68 04 00 54  	b.hi	0xe06c <bpf_program__attach_uprobe_opts+0x15c>
    dfe4: 06 00 80 d2  	mov	x6, #0
    dfe8: 7f 5c 00 f1  	cmp	x3, #23
    dfec: 49 00 00 54  	b.ls	0xdff4 <bpf_program__attach_uprobe_opts+0xe4>
    dff0: 06 09 40 f9  	ldr	x6, [x8, #16]
    dff4: e3 03 16 aa  	mov	x3, x22
    dff8: e2 03 15 aa  	mov	x2, x21
    dffc: e1 03 18 2a  	mov	w1, w24
    e000: 20 00 80 52  	mov	w0, #1
    e004: e6 33 00 f9  	str	x6, [sp, #96]
    e008: b6 d6 ff 97  	bl	0x3ae0 <perf_event_open_probe>
    e00c: f3 03 00 2a  	mov	w19, w0
    e010: 80 04 f8 37  	tbnz	w0, #31, 0xe0a0 <bpf_program__attach_uprobe_opts+0x190>
    e014: e2 63 01 91  	add	x2, sp, #88
    e018: e1 03 13 2a  	mov	w1, w19
    e01c: e0 03 17 aa  	mov	x0, x23
    e020: 00 00 00 94  	bl	0xe020 <bpf_program__attach_uprobe_opts+0x110>
    e024: f4 03 00 aa  	mov	x20, x0
    e028: 20 08 00 b4  	cbz	x0, 0xe12c <bpf_program__attach_uprobe_opts+0x21c>
    e02c: 1f 04 40 b1  	cmn	x0, #1, lsl #12         // =4096
    e030: 88 0c 00 54  	b.hi	0xe1c0 <bpf_program__attach_uprobe_opts+0x2b0>
    e034: 00 00 00 90  	adrp	x0, 0xe000 <bpf_program__attach_uprobe_opts+0x124>
    e038: 00 00 40 f9  	ldr	x0, [x0]
    e03c: e2 77 40 f9  	ldr	x2, [sp, #232]
    e040: 01 00 40 f9  	ldr	x1, [x0]
    e044: 42 00 01 eb  	subs	x2, x2, x1
    e048: 01 00 80 d2  	mov	x1, #0
    e04c: c1 0c 00 54  	b.ne	0xe1e4 <bpf_program__attach_uprobe_opts+0x2d4>
    e050: e0 03 14 aa  	mov	x0, x20
    e054: f3 53 41 a9  	ldp	x19, x20, [sp, #16]
    e058: f5 5b 42 a9  	ldp	x21, x22, [sp, #32]
    e05c: f7 63 43 a9  	ldp	x23, x24, [sp, #48]
    e060: fd 7b cf a8  	ldp	x29, x30, [sp], #240
    e064: c0 03 5f d6  	ret
    e068: 18 61 40 39  	ldrb	w24, [x8, #24]
    e06c: 05 05 40 f9  	ldr	x5, [x8, #8]
    e070: dd ff ff 17  	b	0xdfe4 <bpf_program__attach_uprobe_opts+0xd4>
    e074: 05 00 80 d2  	mov	x5, #0
    e078: 01 00 80 52  	mov	w1, #0
    e07c: 20 00 80 52  	mov	w0, #1
    e080: 18 00 80 52  	mov	w24, #0
    e084: 97 d6 ff 97  	bl	0x3ae0 <perf_event_open_probe>
    e088: f3 03 00 2a  	mov	w19, w0
    e08c: 40 fc ff 36  	tbz	w0, #31, 0xe014 <bpf_program__attach_uprobe_opts+0x104>
    e090: 14 00 00 90  	adrp	x20, 0xe000 <bpf_program__attach_uprobe_opts+0x180>
    e094: 94 02 00 91  	add	x20, x20, #0
    e098: f7 1a 40 f9  	ldr	x23, [x23, #48]
    e09c: 08 00 00 14  	b	0xe0bc <bpf_program__attach_uprobe_opts+0x1ac>
    e0a0: 1f 03 00 71  	cmp	w24, #0
    e0a4: 00 00 00 90  	adrp	x0, 0xe000 <bpf_program__attach_uprobe_opts+0x194>
    e0a8: 14 00 00 90  	adrp	x20, 0xe000 <bpf_program__attach_uprobe_opts+0x198>
    e0ac: 00 00 00 91  	add	x0, x0, #0
    e0b0: 94 02 00 91  	add	x20, x20, #0
    e0b4: f7 1a 40 f9  	ldr	x23, [x23, #48]
    e0b8: 94 12 80 9a  	csel	x20, x20, x0, ne
    e0bc: e1 a3 01 91  	add	x1, sp, #104
    e0c0: 02 10 80 52  	mov	w2, #128
    e0c4: e0 03 13 2a  	mov	w0, w19
    e0c8: 00 00 00 94  	bl	0xe0c8 <bpf_program__attach_uprobe_opts+0x1b8>
    e0cc: e2 03 17 aa  	mov	x2, x23
    e0d0: e6 03 00 aa  	mov	x6, x0
    e0d4: e5 03 16 aa  	mov	x5, x22
    e0d8: e4 03 15 aa  	mov	x4, x21
    e0dc: e3 03 14 aa  	mov	x3, x20
    e0e0: 01 00 00 90  	adrp	x1, 0xe000 <bpf_program__attach_uprobe_opts+0x1d0>
    e0e4: 21 00 00 91  	add	x1, x1, #0
    e0e8: 00 00 80 52  	mov	w0, #0
    e0ec: 00 00 00 94  	bl	0xe0ec <bpf_program__attach_uprobe_opts+0x1dc>
    e0f0: 00 00 00 94  	bl	0xe0f0 <bpf_program__attach_uprobe_opts+0x1e0>
    e0f4: e2 03 13 4b  	neg	w2, w19
    e0f8: 01 00 00 90  	adrp	x1, 0xe000 <bpf_program__attach_uprobe_opts+0x1e8>
    e0fc: 02 00 00 b9  	str	w2, [x0]
    e100: 20 00 40 b9  	ldr	w0, [x1]
    e104: 00 f6 07 37  	tbnz	w0, #0, 0xdfc4 <bpf_program__attach_uprobe_opts+0xb4>
    e108: 74 7e 40 93  	sxtw	x20, w19
    e10c: ca ff ff 17  	b	0xe034 <bpf_program__attach_uprobe_opts+0x124>
    e110: 02 00 00 90  	adrp	x2, 0xe000 <bpf_program__attach_uprobe_opts+0x200>
    e114: 01 00 00 90  	adrp	x1, 0xe000 <bpf_program__attach_uprobe_opts+0x204>
    e118: 42 00 00 91  	add	x2, x2, #0
    e11c: 21 00 00 91  	add	x1, x1, #0
    e120: 00 00 80 52  	mov	w0, #0
    e124: 00 00 00 94  	bl	0xe124 <bpf_program__attach_uprobe_opts+0x214>
    e128: a0 ff ff 17  	b	0xdfa8 <bpf_program__attach_uprobe_opts+0x98>
    e12c: f9 6b 04 a9  	stp	x25, x26, [sp, #64]
    e130: 00 00 00 94  	bl	0xe130 <bpf_program__attach_uprobe_opts+0x220>
    e134: 19 00 40 b9  	ldr	w25, [x0]
    e138: fa 03 00 aa  	mov	x26, x0
    e13c: 79 00 00 35  	cbnz	w25, 0xe148 <bpf_program__attach_uprobe_opts+0x238>
    e140: f9 6b 44 a9  	ldp	x25, x26, [sp, #64]
    e144: bc ff ff 17  	b	0xe034 <bpf_program__attach_uprobe_opts+0x124>
    e148: e0 03 13 2a  	mov	w0, w19
    e14c: 00 00 00 94  	bl	0xe14c <bpf_program__attach_uprobe_opts+0x23c>
    e150: 1f 03 00 71  	cmp	w24, #0
    e154: f4 03 19 4b  	neg	w20, w25
    e158: f7 1a 40 f9  	ldr	x23, [x23, #48]
    e15c: 01 00 00 90  	adrp	x1, 0xe000 <bpf_program__attach_uprobe_opts+0x24c>
    e160: 13 00 00 90  	adrp	x19, 0xe000 <bpf_program__attach_uprobe_opts+0x250>
    e164: 21 00 00 91  	add	x1, x1, #0
    e168: 73 02 00 91  	add	x19, x19, #0
    e16c: 02 10 80 52  	mov	w2, #128
    e170: 73 12 81 9a  	csel	x19, x19, x1, ne
    e174: e0 03 14 2a  	mov	w0, w20
    e178: e1 a3 01 91  	add	x1, sp, #104
    e17c: 00 00 00 94  	bl	0xe17c <bpf_program__attach_uprobe_opts+0x26c>
    e180: e3 03 13 aa  	mov	x3, x19
    e184: e6 03 00 aa  	mov	x6, x0
    e188: e2 03 17 aa  	mov	x2, x23
    e18c: 00 00 80 52  	mov	w0, #0
    e190: e5 03 16 aa  	mov	x5, x22
    e194: e4 03 15 aa  	mov	x4, x21
    e198: 01 00 00 90  	adrp	x1, 0xe000 <bpf_program__attach_uprobe_opts+0x288>
    e19c: 21 00 00 91  	add	x1, x1, #0
    e1a0: 00 00 00 94  	bl	0xe1a0 <bpf_program__attach_uprobe_opts+0x290>
    e1a4: 59 03 00 b9  	str	w25, [x26]
    e1a8: 00 00 00 90  	adrp	x0, 0xe000 <bpf_program__attach_uprobe_opts+0x298>
    e1ac: 00 00 40 b9  	ldr	w0, [x0]
    e1b0: 40 01 00 37  	tbnz	w0, #0, 0xe1d8 <bpf_program__attach_uprobe_opts+0x2c8>
    e1b4: 94 7e 40 93  	sxtw	x20, w20
    e1b8: f9 6b 44 a9  	ldp	x25, x26, [sp, #64]
    e1bc: 9e ff ff 17  	b	0xe034 <bpf_program__attach_uprobe_opts+0x124>
    e1c0: f9 6b 04 a9  	stp	x25, x26, [sp, #64]
    e1c4: 00 00 00 94  	bl	0xe1c4 <bpf_program__attach_uprobe_opts+0x2b4>
    e1c8: f9 03 14 4b  	neg	w25, w20
    e1cc: fa 03 00 aa  	mov	x26, x0
    e1d0: 19 00 00 b9  	str	w25, [x0]
    e1d4: da ff ff 17  	b	0xe13c <bpf_program__attach_uprobe_opts+0x22c>
    e1d8: 14 00 80 d2  	mov	x20, #0
    e1dc: f9 6b 44 a9  	ldp	x25, x26, [sp, #64]
    e1e0: 95 ff ff 17  	b	0xe034 <bpf_program__attach_uprobe_opts+0x124>
    e1e4: f9 6b 04 a9  	stp	x25, x26, [sp, #64]
    e1e8: 00 00 00 94  	bl	0xe1e8 <bpf_program__attach_uprobe_opts+0x2d8>
    e1ec: 1f 20 03 d5  	nop

000000000000e1f0 <bpf_program__attach_uprobe>:
    e1f0: fd 7b ba a9  	stp	x29, x30, [sp, #-96]!
    e1f4: 06 00 00 90  	adrp	x6, 0xe000 <bpf_program__attach_uprobe+0x4>
    e1f8: e7 03 02 2a  	mov	w7, w2
    e1fc: fd 03 00 91  	mov	x29, sp
    e200: c6 00 40 f9  	ldr	x6, [x6]
    e204: e2 03 03 aa  	mov	x2, x3
    e208: e5 63 00 91  	add	x5, sp, #24
    e20c: 08 04 80 d2  	mov	x8, #32
    e210: c3 00 40 f9  	ldr	x3, [x6]
    e214: e3 2f 00 f9  	str	x3, [sp, #88]
    e218: 03 00 80 d2  	mov	x3, #0
    e21c: ff 2b 00 f9  	str	xzr, [sp, #80]
    e220: e3 03 04 aa  	mov	x3, x4
    e224: e4 03 05 aa  	mov	x4, x5
    e228: e5 e3 00 91  	add	x5, sp, #56
    e22c: e8 1f 00 f9  	str	x8, [sp, #56]
    e230: ff 7f 04 a9  	stp	xzr, xzr, [sp, #64]
    e234: e1 43 01 39  	strb	w1, [sp, #80]
    e238: e1 03 07 2a  	mov	w1, w7
    e23c: a0 04 40 ad  	ldp	q0, q1, [x5]
    e240: 80 04 00 ad  	stp	q0, q1, [x4]
    e244: 00 00 00 94  	bl	0xe244 <bpf_program__attach_uprobe+0x54>
    e248: 01 00 00 90  	adrp	x1, 0xe000 <bpf_program__attach_uprobe+0x58>
    e24c: 21 00 40 f9  	ldr	x1, [x1]
    e250: e3 2f 40 f9  	ldr	x3, [sp, #88]
    e254: 22 00 40 f9  	ldr	x2, [x1]
    e258: 63 00 02 eb  	subs	x3, x3, x2
    e25c: 02 00 80 d2  	mov	x2, #0
    e260: 61 00 00 54  	b.ne	0xe26c <bpf_program__attach_uprobe+0x7c>
    e264: fd 7b c6 a8  	ldp	x29, x30, [sp], #96
    e268: c0 03 5f d6  	ret
    e26c: 00 00 00 94  	bl	0xe26c <bpf_program__attach_uprobe+0x7c>

000000000000e270 <bpf_program__attach_tracepoint_opts>:
    e270: fd 7b a9 a9  	stp	x29, x30, [sp, #-368]!
    e274: 04 00 00 90  	adrp	x4, 0xe000 <bpf_program__attach_tracepoint_opts+0x4>
    e278: 05 02 80 d2  	mov	x5, #16
    e27c: fd 03 00 91  	mov	x29, sp
    e280: 84 00 40 f9  	ldr	x4, [x4]
    e284: f3 53 01 a9  	stp	x19, x20, [sp, #16]
    e288: f5 5b 02 a9  	stp	x21, x22, [sp, #32]
    e28c: f5 03 01 aa  	mov	x21, x1
    e290: f6 03 02 aa  	mov	x22, x2
    e294: f7 63 03 a9  	stp	x23, x24, [sp, #48]
    e298: f7 03 00 aa  	mov	x23, x0
    e29c: 80 00 40 f9  	ldr	x0, [x4]
    e2a0: e0 b7 00 f9  	str	x0, [sp, #360]
    e2a4: 00 00 80 d2  	mov	x0, #0
    e2a8: e5 ff 05 a9  	stp	x5, xzr, [sp, #88]
    e2ac: c3 03 00 b4  	cbz	x3, 0xe324 <bpf_program__attach_tracepoint_opts+0xb4>
    e2b0: 61 00 40 f9  	ldr	x1, [x3]
    e2b4: 3f 1c 00 f1  	cmp	x1, #7
    e2b8: a9 0d 00 54  	b.ls	0xe46c <bpf_program__attach_tracepoint_opts+0x1fc>
    e2bc: 20 40 00 d1  	sub	x0, x1, #16
    e2c0: 65 40 00 91  	add	x5, x3, #16
    e2c4: 1f 00 00 f1  	cmp	x0, #0
    e2c8: ad 08 00 54  	b.le	0xe3dc <bpf_program__attach_tracepoint_opts+0x16c>
    e2cc: 60 00 01 8b  	add	x0, x3, x1
    e2d0: 04 00 00 14  	b	0xe2e0 <bpf_program__attach_tracepoint_opts+0x70>
    e2d4: a5 04 00 91  	add	x5, x5, #1
    e2d8: bf 00 00 eb  	cmp	x5, x0
    e2dc: 00 08 00 54  	b.eq	0xe3dc <bpf_program__attach_tracepoint_opts+0x16c>
    e2e0: a6 00 40 39  	ldrb	w6, [x5]
    e2e4: 86 ff ff 34  	cbz	w6, 0xe2d4 <bpf_program__attach_tracepoint_opts+0x64>
    e2e8: 02 00 00 90  	adrp	x2, 0xe000 <bpf_program__attach_tracepoint_opts+0x78>
    e2ec: 01 00 00 90  	adrp	x1, 0xe000 <bpf_program__attach_tracepoint_opts+0x7c>
    e2f0: 42 00 00 91  	add	x2, x2, #0
    e2f4: 21 00 00 91  	add	x1, x1, #0
    e2f8: 00 00 80 52  	mov	w0, #0
    e2fc: 00 00 00 94  	bl	0xe2fc <bpf_program__attach_tracepoint_opts+0x8c>
    e300: 00 00 00 94  	bl	0xe300 <bpf_program__attach_tracepoint_opts+0x90>
    e304: b3 02 80 92  	mov	x19, #-22
    e308: c2 02 80 52  	mov	w2, #22
    e30c: 01 00 00 90  	adrp	x1, 0xe000 <bpf_program__attach_tracepoint_opts+0x9c>
    e310: 02 00 00 b9  	str	w2, [x0]
    e314: 20 00 40 b9  	ldr	w0, [x1]
    e318: 80 04 00 36  	tbz	w0, #0, 0xe3a8 <bpf_program__attach_tracepoint_opts+0x138>
    e31c: 13 00 80 d2  	mov	x19, #0
    e320: 22 00 00 14  	b	0xe3a8 <bpf_program__attach_tracepoint_opts+0x138>
    e324: 02 00 80 d2  	mov	x2, #0
    e328: 00 04 00 4f  	movi	v0.4s, #0
    e32c: f3 a3 01 91  	add	x19, sp, #104
    e330: e1 03 16 aa  	mov	x1, x22
    e334: e0 03 15 aa  	mov	x0, x21
    e338: e2 33 00 f9  	str	x2, [sp, #96]
    e33c: 60 02 00 ad  	stp	q0, q0, [x19]
    e340: 60 02 01 ad  	stp	q0, q0, [x19, #32]
    e344: 60 02 02 ad  	stp	q0, q0, [x19, #64]
    e348: 60 02 03 ad  	stp	q0, q0, [x19, #96]
    e34c: 7d d6 ff 97  	bl	0x3d40 <determine_tracepoint_id>
    e350: 14 7c 40 93  	sxtw	x20, w0
    e354: d4 04 f8 37  	tbnz	w20, #31, 0xe3ec <bpf_program__attach_tracepoint_opts+0x17c>
    e358: 46 00 80 d2  	mov	x6, #2
    e35c: 04 00 80 12  	mov	w4, #-1
    e360: 06 10 c0 f2  	movk	x6, #128, lsl #32
    e364: e1 03 13 aa  	mov	x1, x19
    e368: e2 03 04 2a  	mov	w2, w4
    e36c: 05 01 80 d2  	mov	x5, #8
    e370: 03 00 80 52  	mov	w3, #0
    e374: 20 1e 80 d2  	mov	x0, #241
    e378: e6 d3 06 a9  	stp	x6, x20, [sp, #104]
    e37c: 00 00 00 94  	bl	0xe37c <bpf_program__attach_tracepoint_opts+0x10c>
    e380: f4 03 00 2a  	mov	w20, w0
    e384: 20 08 f8 37  	tbnz	w0, #31, 0xe488 <bpf_program__attach_tracepoint_opts+0x218>
    e388: e2 63 01 91  	add	x2, sp, #88
    e38c: e1 03 14 2a  	mov	w1, w20
    e390: e0 03 17 aa  	mov	x0, x23
    e394: 00 00 00 94  	bl	0xe394 <bpf_program__attach_tracepoint_opts+0x124>
    e398: f3 03 00 aa  	mov	x19, x0
    e39c: a0 09 00 b4  	cbz	x0, 0xe4d0 <bpf_program__attach_tracepoint_opts+0x260>
    e3a0: 1f 04 40 b1  	cmn	x0, #1, lsl #12         // =4096
    e3a4: 28 0d 00 54  	b.hi	0xe548 <bpf_program__attach_tracepoint_opts+0x2d8>
    e3a8: 00 00 00 90  	adrp	x0, 0xe000 <bpf_program__attach_tracepoint_opts+0x138>
    e3ac: 00 00 40 f9  	ldr	x0, [x0]
    e3b0: e2 b7 40 f9  	ldr	x2, [sp, #360]
    e3b4: 01 00 40 f9  	ldr	x1, [x0]
    e3b8: 42 00 01 eb  	subs	x2, x2, x1
    e3bc: 01 00 80 d2  	mov	x1, #0
    e3c0: 61 0d 00 54  	b.ne	0xe56c <bpf_program__attach_tracepoint_opts+0x2fc>
    e3c4: e0 03 13 aa  	mov	x0, x19
    e3c8: f3 53 41 a9  	ldp	x19, x20, [sp, #16]
    e3cc: f5 5b 42 a9  	ldp	x21, x22, [sp, #32]
    e3d0: f7 63 43 a9  	ldp	x23, x24, [sp, #48]
    e3d4: fd 7b d7 a8  	ldp	x29, x30, [sp], #368
    e3d8: c0 03 5f d6  	ret
    e3dc: 3f 3c 00 f1  	cmp	x1, #15
    e3e0: 29 fa ff 54  	b.ls	0xe324 <bpf_program__attach_tracepoint_opts+0xb4>
    e3e4: 62 04 40 f9  	ldr	x2, [x3, #8]
    e3e8: d0 ff ff 17  	b	0xe328 <bpf_program__attach_tracepoint_opts+0xb8>
    e3ec: f3 a3 03 91  	add	x19, sp, #232
    e3f0: 02 10 80 52  	mov	w2, #128
    e3f4: e1 03 13 aa  	mov	x1, x19
    e3f8: 00 00 00 94  	bl	0xe3f8 <bpf_program__attach_tracepoint_opts+0x188>
    e3fc: 01 00 00 90  	adrp	x1, 0xe000 <bpf_program__attach_tracepoint_opts+0x18c>
    e400: e4 03 00 aa  	mov	x4, x0
    e404: 21 00 00 91  	add	x1, x1, #0
    e408: e3 03 16 aa  	mov	x3, x22
    e40c: e2 03 15 aa  	mov	x2, x21
    e410: 00 00 80 52  	mov	w0, #0
    e414: 00 00 00 94  	bl	0xe414 <bpf_program__attach_tracepoint_opts+0x1a4>
    e418: f7 1a 40 f9  	ldr	x23, [x23, #48]
    e41c: e1 03 13 aa  	mov	x1, x19
    e420: 02 10 80 52  	mov	w2, #128
    e424: e0 03 14 2a  	mov	w0, w20
    e428: 00 00 00 94  	bl	0xe428 <bpf_program__attach_tracepoint_opts+0x1b8>
    e42c: e5 03 00 aa  	mov	x5, x0
    e430: e2 03 17 aa  	mov	x2, x23
    e434: e4 03 16 aa  	mov	x4, x22
    e438: e3 03 15 aa  	mov	x3, x21
    e43c: 01 00 00 90  	adrp	x1, 0xe000 <bpf_program__attach_tracepoint_opts+0x1cc>
    e440: 21 00 00 91  	add	x1, x1, #0
    e444: 00 00 80 52  	mov	w0, #0
    e448: 00 00 00 94  	bl	0xe448 <bpf_program__attach_tracepoint_opts+0x1d8>
    e44c: 00 00 00 94  	bl	0xe44c <bpf_program__attach_tracepoint_opts+0x1dc>
    e450: e2 03 14 4b  	neg	w2, w20
    e454: 01 00 00 90  	adrp	x1, 0xe000 <bpf_program__attach_tracepoint_opts+0x1e4>
    e458: 02 00 00 b9  	str	w2, [x0]
    e45c: 20 00 40 b9  	ldr	w0, [x1]
    e460: e0 f5 07 37  	tbnz	w0, #0, 0xe31c <bpf_program__attach_tracepoint_opts+0xac>
    e464: 93 7e 40 93  	sxtw	x19, w20
    e468: d0 ff ff 17  	b	0xe3a8 <bpf_program__attach_tracepoint_opts+0x138>
    e46c: e3 03 01 aa  	mov	x3, x1
    e470: 02 00 00 90  	adrp	x2, 0xe000 <bpf_program__attach_tracepoint_opts+0x200>
    e474: 01 00 00 90  	adrp	x1, 0xe000 <bpf_program__attach_tracepoint_opts+0x204>
    e478: 42 00 00 91  	add	x2, x2, #0
    e47c: 21 00 00 91  	add	x1, x1, #0
    e480: 00 00 00 94  	bl	0xe480 <bpf_program__attach_tracepoint_opts+0x210>
    e484: 9f ff ff 17  	b	0xe300 <bpf_program__attach_tracepoint_opts+0x90>
    e488: 00 00 00 94  	bl	0xe488 <bpf_program__attach_tracepoint_opts+0x218>
    e48c: 18 00 40 b9  	ldr	w24, [x0]
    e490: f3 a3 03 91  	add	x19, sp, #232
    e494: 02 10 80 52  	mov	w2, #128
    e498: f4 03 18 4b  	neg	w20, w24
    e49c: e1 03 13 aa  	mov	x1, x19
    e4a0: e0 03 14 2a  	mov	w0, w20
    e4a4: 00 00 00 94  	bl	0xe4a4 <bpf_program__attach_tracepoint_opts+0x234>
    e4a8: 01 00 00 90  	adrp	x1, 0xe000 <bpf_program__attach_tracepoint_opts+0x238>
    e4ac: e4 03 00 aa  	mov	x4, x0
    e4b0: 21 00 00 91  	add	x1, x1, #0
    e4b4: e3 03 16 aa  	mov	x3, x22
    e4b8: e2 03 15 aa  	mov	x2, x21
    e4bc: 00 00 80 52  	mov	w0, #0
    e4c0: 00 00 00 94  	bl	0xe4c0 <bpf_program__attach_tracepoint_opts+0x250>
    e4c4: 1f 03 00 71  	cmp	w24, #0
    e4c8: 0d f6 ff 54  	b.le	0xe388 <bpf_program__attach_tracepoint_opts+0x118>
    e4cc: d3 ff ff 17  	b	0xe418 <bpf_program__attach_tracepoint_opts+0x1a8>
    e4d0: f9 23 00 f9  	str	x25, [sp, #64]
    e4d4: 00 00 00 94  	bl	0xe4d4 <bpf_program__attach_tracepoint_opts+0x264>
    e4d8: 18 00 40 b9  	ldr	w24, [x0]
    e4dc: f9 03 00 aa  	mov	x25, x0
    e4e0: 78 00 00 35  	cbnz	w24, 0xe4ec <bpf_program__attach_tracepoint_opts+0x27c>
    e4e4: f9 23 40 f9  	ldr	x25, [sp, #64]
    e4e8: b0 ff ff 17  	b	0xe3a8 <bpf_program__attach_tracepoint_opts+0x138>
    e4ec: e0 03 14 2a  	mov	w0, w20
    e4f0: 00 00 00 94  	bl	0xe4f0 <bpf_program__attach_tracepoint_opts+0x280>
    e4f4: f4 1a 40 f9  	ldr	x20, [x23, #48]
    e4f8: f3 03 18 4b  	neg	w19, w24
    e4fc: e1 a3 03 91  	add	x1, sp, #232
    e500: 02 10 80 52  	mov	w2, #128
    e504: e0 03 13 2a  	mov	w0, w19
    e508: 00 00 00 94  	bl	0xe508 <bpf_program__attach_tracepoint_opts+0x298>
    e50c: e2 03 14 aa  	mov	x2, x20
    e510: e5 03 00 aa  	mov	x5, x0
    e514: e4 03 16 aa  	mov	x4, x22
    e518: 00 00 80 52  	mov	w0, #0
    e51c: e3 03 15 aa  	mov	x3, x21
    e520: 01 00 00 90  	adrp	x1, 0xe000 <bpf_program__attach_tracepoint_opts+0x2b0>
    e524: 21 00 00 91  	add	x1, x1, #0
    e528: 00 00 00 94  	bl	0xe528 <bpf_program__attach_tracepoint_opts+0x2b8>
    e52c: 00 00 00 90  	adrp	x0, 0xe000 <bpf_program__attach_tracepoint_opts+0x2bc>
    e530: 38 03 00 b9  	str	w24, [x25]
    e534: 00 00 40 b9  	ldr	w0, [x0]
    e538: 40 01 00 37  	tbnz	w0, #0, 0xe560 <bpf_program__attach_tracepoint_opts+0x2f0>
    e53c: 73 7e 40 93  	sxtw	x19, w19
    e540: f9 23 40 f9  	ldr	x25, [sp, #64]
    e544: 99 ff ff 17  	b	0xe3a8 <bpf_program__attach_tracepoint_opts+0x138>
    e548: f8 03 00 4b  	neg	w24, w0
    e54c: f9 23 00 f9  	str	x25, [sp, #64]
    e550: 00 00 00 94  	bl	0xe550 <bpf_program__attach_tracepoint_opts+0x2e0>
    e554: f9 03 00 aa  	mov	x25, x0
    e558: 18 00 00 b9  	str	w24, [x0]
    e55c: e1 ff ff 17  	b	0xe4e0 <bpf_program__attach_tracepoint_opts+0x270>
    e560: 13 00 80 d2  	mov	x19, #0
    e564: f9 23 40 f9  	ldr	x25, [sp, #64]
    e568: 90 ff ff 17  	b	0xe3a8 <bpf_program__attach_tracepoint_opts+0x138>
    e56c: f9 23 00 f9  	str	x25, [sp, #64]
    e570: 00 00 00 94  	bl	0xe570 <bpf_program__attach_tracepoint_opts+0x300>

000000000000e574 <attach_tp>:
    e574: fd 7b bd a9  	stp	x29, x30, [sp, #-48]!
    e578: fd 03 00 91  	mov	x29, sp
    e57c: f3 53 01 a9  	stp	x19, x20, [sp, #16]
    e580: f3 03 00 aa  	mov	x19, x0
    e584: 20 04 40 f9  	ldr	x0, [x1, #8]
    e588: f5 5b 02 a9  	stp	x21, x22, [sp, #32]
    e58c: f5 03 01 aa  	mov	x21, x1
    e590: 00 00 00 94  	bl	0xe590 <attach_tp+0x1c>
    e594: a0 04 00 b4  	cbz	x0, 0xe628 <attach_tp+0xb4>
    e598: 76 06 40 f9  	ldr	x22, [x19, #8]
    e59c: f4 03 00 aa  	mov	x20, x0
    e5a0: e1 05 80 52  	mov	w1, #47
    e5a4: 16 00 16 8b  	add	x22, x0, x22
    e5a8: e0 03 16 aa  	mov	x0, x22
    e5ac: 00 00 00 94  	bl	0xe5ac <attach_tp+0x38>
    e5b0: e0 01 00 b4  	cbz	x0, 0xe5ec <attach_tp+0x78>
    e5b4: e2 03 00 aa  	mov	x2, x0
    e5b8: e1 03 16 aa  	mov	x1, x22
    e5bc: 03 00 80 d2  	mov	x3, #0
    e5c0: e0 03 15 aa  	mov	x0, x21
    e5c4: 5f 14 00 38  	strb	wzr, [x2], #1
    e5c8: 00 00 00 94  	bl	0xe5c8 <attach_tp+0x54>
    e5cc: f3 03 00 aa  	mov	x19, x0
    e5d0: e0 03 14 aa  	mov	x0, x20
    e5d4: 00 00 00 94  	bl	0xe5d4 <attach_tp+0x60>
    e5d8: e0 03 13 aa  	mov	x0, x19
    e5dc: f3 53 41 a9  	ldp	x19, x20, [sp, #16]
    e5e0: f5 5b 42 a9  	ldp	x21, x22, [sp, #32]
    e5e4: fd 7b c3 a8  	ldp	x29, x30, [sp], #48
    e5e8: c0 03 5f d6  	ret
    e5ec: e0 03 14 aa  	mov	x0, x20
    e5f0: 00 00 00 94  	bl	0xe5f0 <attach_tp+0x7c>
    e5f4: b3 02 80 92  	mov	x19, #-22
    e5f8: 00 00 00 94  	bl	0xe5f8 <attach_tp+0x84>
    e5fc: c2 02 80 52  	mov	w2, #22
    e600: 01 00 00 90  	adrp	x1, 0xe000 <attach_tp+0x8c>
    e604: 02 00 00 b9  	str	w2, [x0]
    e608: f5 5b 42 a9  	ldp	x21, x22, [sp, #32]
    e60c: 20 00 40 b9  	ldr	w0, [x1]
    e610: 1f 00 40 f2  	tst	x0, #0x1
    e614: f3 13 93 9a  	csel	x19, xzr, x19, ne
    e618: e0 03 13 aa  	mov	x0, x19
    e61c: f3 53 41 a9  	ldp	x19, x20, [sp, #16]
    e620: fd 7b c3 a8  	ldp	x29, x30, [sp], #48
    e624: c0 03 5f d6  	ret
    e628: f3 53 41 a9  	ldp	x19, x20, [sp, #16]
    e62c: 60 01 80 12  	mov	w0, #-12
    e630: f5 5b 42 a9  	ldp	x21, x22, [sp, #32]
    e634: fd 7b c3 a8  	ldp	x29, x30, [sp], #48
    e638: fe c6 ff 17  	b	0x230 <libbpf_err_ptr>
    e63c: 1f 20 03 d5  	nop

000000000000e640 <bpf_program__attach_tracepoint>:
    e640: 03 00 80 d2  	mov	x3, #0
    e644: 00 00 00 14  	b	0xe644 <bpf_program__attach_tracepoint+0x4>
    e648: 1f 20 03 d5  	nop
    e64c: 1f 20 03 d5  	nop

000000000000e650 <bpf_program__attach_raw_tracepoint>:
    e650: fd 7b b3 a9  	stp	x29, x30, [sp, #-208]!
    e654: 02 00 00 90  	adrp	x2, 0xe000 <bpf_program__attach_raw_tracepoint+0x4>
    e658: fd 03 00 91  	mov	x29, sp
    e65c: 42 00 40 f9  	ldr	x2, [x2]
    e660: f3 53 01 a9  	stp	x19, x20, [sp, #16]
    e664: f5 5b 02 a9  	stp	x21, x22, [sp, #32]
    e668: f5 03 01 aa  	mov	x21, x1
    e66c: f6 03 00 aa  	mov	x22, x0
    e670: 43 00 40 f9  	ldr	x3, [x2]
    e674: e3 67 00 f9  	str	x3, [sp, #200]
    e678: 03 00 80 d2  	mov	x3, #0
    e67c: 01 00 80 52  	mov	w1, #0
    e680: 00 00 00 94  	bl	0xe680 <bpf_program__attach_raw_tracepoint+0x30>
    e684: 60 03 f8 37  	tbnz	w0, #31, 0xe6f0 <bpf_program__attach_raw_tracepoint+0xa0>
    e688: f4 03 00 2a  	mov	w20, w0
    e68c: 01 04 80 d2  	mov	x1, #32
    e690: 20 00 80 d2  	mov	x0, #1
    e694: 00 00 00 94  	bl	0xe694 <bpf_program__attach_raw_tracepoint+0x44>
    e698: f3 03 00 aa  	mov	x19, x0
    e69c: 40 08 00 b4  	cbz	x0, 0xe7a4 <bpf_program__attach_raw_tracepoint+0x154>
    e6a0: 00 00 00 90  	adrp	x0, 0xe000 <bpf_program__attach_raw_tracepoint+0x50>
    e6a4: 00 00 00 91  	add	x0, x0, #0
    e6a8: 60 02 00 f9  	str	x0, [x19]
    e6ac: e1 03 14 2a  	mov	w1, w20
    e6b0: e0 03 15 aa  	mov	x0, x21
    e6b4: 00 00 00 94  	bl	0xe6b4 <bpf_program__attach_raw_tracepoint+0x64>
    e6b8: 80 03 f8 37  	tbnz	w0, #31, 0xe728 <bpf_program__attach_raw_tracepoint+0xd8>
    e6bc: 60 1a 00 b9  	str	w0, [x19, #24]
    e6c0: 00 00 00 90  	adrp	x0, 0xe000 <bpf_program__attach_raw_tracepoint+0x70>
    e6c4: 00 00 40 f9  	ldr	x0, [x0]
    e6c8: e2 67 40 f9  	ldr	x2, [sp, #200]
    e6cc: 01 00 40 f9  	ldr	x1, [x0]
    e6d0: 42 00 01 eb  	subs	x2, x2, x1
    e6d4: 01 00 80 d2  	mov	x1, #0
    e6d8: 21 06 00 54  	b.ne	0xe79c <bpf_program__attach_raw_tracepoint+0x14c>
    e6dc: e0 03 13 aa  	mov	x0, x19
    e6e0: f3 53 41 a9  	ldp	x19, x20, [sp, #16]
    e6e4: f5 5b 42 a9  	ldp	x21, x22, [sp, #32]
    e6e8: fd 7b cd a8  	ldp	x29, x30, [sp], #208
    e6ec: c0 03 5f d6  	ret
    e6f0: c2 1a 40 f9  	ldr	x2, [x22, #48]
    e6f4: 01 00 00 90  	adrp	x1, 0xe000 <bpf_program__attach_raw_tracepoint+0xa4>
    e6f8: 21 00 00 91  	add	x1, x1, #0
    e6fc: 00 00 80 52  	mov	w0, #0
    e700: b3 02 80 92  	mov	x19, #-22
    e704: 00 00 00 94  	bl	0xe704 <bpf_program__attach_raw_tracepoint+0xb4>
    e708: 00 00 00 94  	bl	0xe708 <bpf_program__attach_raw_tracepoint+0xb8>
    e70c: c2 02 80 52  	mov	w2, #22
    e710: 01 00 00 90  	adrp	x1, 0xe000 <bpf_program__attach_raw_tracepoint+0xc0>
    e714: 02 00 00 b9  	str	w2, [x0]
    e718: 20 00 40 b9  	ldr	w0, [x1]
    e71c: 20 fd 07 36  	tbz	w0, #0, 0xe6c0 <bpf_program__attach_raw_tracepoint+0x70>
    e720: 13 00 80 d2  	mov	x19, #0
    e724: e7 ff ff 17  	b	0xe6c0 <bpf_program__attach_raw_tracepoint+0x70>
    e728: f7 1b 00 f9  	str	x23, [sp, #48]
    e72c: 00 00 00 94  	bl	0xe72c <bpf_program__attach_raw_tracepoint+0xdc>
    e730: f4 03 00 aa  	mov	x20, x0
    e734: e0 03 13 aa  	mov	x0, x19
    e738: 97 02 40 b9  	ldr	w23, [x20]
    e73c: 00 00 00 94  	bl	0xe73c <bpf_program__attach_raw_tracepoint+0xec>
    e740: d6 1a 40 f9  	ldr	x22, [x22, #48]
    e744: f3 03 17 4b  	neg	w19, w23
    e748: e1 23 01 91  	add	x1, sp, #72
    e74c: 02 10 80 52  	mov	w2, #128
    e750: e0 03 13 2a  	mov	w0, w19
    e754: 00 00 00 94  	bl	0xe754 <bpf_program__attach_raw_tracepoint+0x104>
    e758: e2 03 16 aa  	mov	x2, x22
    e75c: e4 03 00 aa  	mov	x4, x0
    e760: e3 03 15 aa  	mov	x3, x21
    e764: 00 00 80 52  	mov	w0, #0
    e768: 01 00 00 90  	adrp	x1, 0xe000 <bpf_program__attach_raw_tracepoint+0x118>
    e76c: 21 00 00 91  	add	x1, x1, #0
    e770: 00 00 00 94  	bl	0xe770 <bpf_program__attach_raw_tracepoint+0x120>
    e774: 97 02 00 b9  	str	w23, [x20]
    e778: 00 00 00 90  	adrp	x0, 0xe000 <bpf_program__attach_raw_tracepoint+0x128>
    e77c: 00 00 40 b9  	ldr	w0, [x0]
    e780: 80 00 00 37  	tbnz	w0, #0, 0xe790 <bpf_program__attach_raw_tracepoint+0x140>
    e784: 73 7e 40 93  	sxtw	x19, w19
    e788: f7 1b 40 f9  	ldr	x23, [sp, #48]
    e78c: cd ff ff 17  	b	0xe6c0 <bpf_program__attach_raw_tracepoint+0x70>
    e790: 13 00 80 d2  	mov	x19, #0
    e794: f7 1b 40 f9  	ldr	x23, [sp, #48]
    e798: ca ff ff 17  	b	0xe6c0 <bpf_program__attach_raw_tracepoint+0x70>
    e79c: f7 1b 00 f9  	str	x23, [sp, #48]
    e7a0: 00 00 00 94  	bl	0xe7a0 <bpf_program__attach_raw_tracepoint+0x150>
    e7a4: 00 00 00 90  	adrp	x0, 0xe000 <bpf_program__attach_raw_tracepoint+0x154>
    e7a8: 00 00 40 f9  	ldr	x0, [x0]
    e7ac: e2 67 40 f9  	ldr	x2, [sp, #200]
    e7b0: 01 00 40 f9  	ldr	x1, [x0]
    e7b4: 42 00 01 eb  	subs	x2, x2, x1
    e7b8: 01 00 80 d2  	mov	x1, #0
    e7bc: 01 ff ff 54  	b.ne	0xe79c <bpf_program__attach_raw_tracepoint+0x14c>
    e7c0: f3 53 41 a9  	ldp	x19, x20, [sp, #16]
    e7c4: 60 01 80 12  	mov	w0, #-12
    e7c8: f5 5b 42 a9  	ldp	x21, x22, [sp, #32]
    e7cc: fd 7b cd a8  	ldp	x29, x30, [sp], #208
    e7d0: 98 c6 ff 17  	b	0x230 <libbpf_err_ptr>

000000000000e7d4 <attach_raw_tp>:
    e7d4: e2 03 00 aa  	mov	x2, x0
    e7d8: e0 03 01 aa  	mov	x0, x1
    e7dc: 41 04 40 f9  	ldr	x1, [x2, #8]
    e7e0: 02 04 40 f9  	ldr	x2, [x0, #8]
    e7e4: 41 00 01 8b  	add	x1, x2, x1
    e7e8: 00 00 00 14  	b	0xe7e8 <attach_raw_tp+0x14>
    e7ec: 1f 20 03 d5  	nop

000000000000e7f0 <bpf_program__attach_trace>:
    e7f0: 0d e8 ff 17  	b	0x8824 <bpf_program__attach_btf_id>

000000000000e7f4 <bpf_program__attach_lsm>:
    e7f4: 0c e8 ff 17  	b	0x8824 <bpf_program__attach_btf_id>
    e7f8: 1f 20 03 d5  	nop
    e7fc: 1f 20 03 d5  	nop

000000000000e800 <bpf_program__attach_cgroup>:
    e800: 03 00 00 90  	adrp	x3, 0xe000 <bpf_program__attach_cgroup>
    e804: 02 00 80 52  	mov	w2, #0
    e808: 63 00 00 91  	add	x3, x3, #0
    e80c: 69 e8 ff 17  	b	0x89b0 <bpf_program__attach_fd>

000000000000e810 <bpf_program__attach_netns>:
    e810: 03 00 00 90  	adrp	x3, 0xe000 <bpf_program__attach_netns>
    e814: 02 00 80 52  	mov	w2, #0
    e818: 63 00 00 91  	add	x3, x3, #0
    e81c: 65 e8 ff 17  	b	0x89b0 <bpf_program__attach_fd>

000000000000e820 <bpf_program__attach_xdp>:
    e820: 03 00 00 90  	adrp	x3, 0xe000 <bpf_program__attach_xdp>
    e824: 02 00 80 52  	mov	w2, #0
    e828: 63 00 00 91  	add	x3, x3, #0
    e82c: 61 e8 ff 17  	b	0x89b0 <bpf_program__attach_fd>

000000000000e830 <bpf_program__attach_iter>:
    e830: fd 7b af a9  	stp	x29, x30, [sp, #-272]!
    e834: 03 00 00 90  	adrp	x3, 0xe000 <bpf_program__attach_iter+0x4>
    e838: 04 05 80 d2  	mov	x4, #40
    e83c: fd 03 00 91  	mov	x29, sp
    e840: 63 00 40 f9  	ldr	x3, [x3]
    e844: f3 53 01 a9  	stp	x19, x20, [sp, #16]
    e848: e2 83 01 91  	add	x2, sp, #96
    e84c: f5 5b 02 a9  	stp	x21, x22, [sp, #32]
    e850: f5 03 00 aa  	mov	x21, x0
    e854: f4 e3 00 91  	add	x20, sp, #56
    e858: 60 00 40 f9  	ldr	x0, [x3]
    e85c: e0 87 00 f9  	str	x0, [sp, #264]
    e860: 00 00 80 d2  	mov	x0, #0
    e864: e4 33 00 f9  	str	x4, [sp, #96]
    e868: ff ff 06 a9  	stp	xzr, xzr, [sp, #104]
    e86c: ff ff 07 a9  	stp	xzr, xzr, [sp, #120]
    e870: 40 04 40 ad  	ldp	q0, q1, [x2]
    e874: 40 10 40 f9  	ldr	x0, [x2, #32]
    e878: 80 12 00 f9  	str	x0, [x20, #32]
    e87c: 80 06 00 ad  	stp	q0, q1, [x20]
    e880: c1 02 00 b4  	cbz	x1, 0xe8d8 <bpf_program__attach_iter+0xa8>
    e884: 23 00 40 f9  	ldr	x3, [x1]
    e888: 7f 1c 00 f1  	cmp	x3, #7
    e88c: 09 0a 00 54  	b.ls	0xe9cc <bpf_program__attach_iter+0x19c>
    e890: 60 50 00 d1  	sub	x0, x3, #20
    e894: 22 50 00 91  	add	x2, x1, #20
    e898: 1f 00 00 f1  	cmp	x0, #0
    e89c: 2d 06 00 54  	b.le	0xe960 <bpf_program__attach_iter+0x130>
    e8a0: 20 00 03 8b  	add	x0, x1, x3
    e8a4: 04 00 00 14  	b	0xe8b4 <bpf_program__attach_iter+0x84>
    e8a8: 42 04 00 91  	add	x2, x2, #1
    e8ac: 5f 00 00 eb  	cmp	x2, x0
    e8b0: 80 05 00 54  	b.eq	0xe960 <bpf_program__attach_iter+0x130>
    e8b4: 44 00 40 39  	ldrb	w4, [x2]
    e8b8: 84 ff ff 34  	cbz	w4, 0xe8a8 <bpf_program__attach_iter+0x78>
    e8bc: 02 00 00 90  	adrp	x2, 0xe000 <bpf_program__attach_iter+0x8c>
    e8c0: 01 00 00 90  	adrp	x1, 0xe000 <bpf_program__attach_iter+0x90>
    e8c4: 42 00 00 91  	add	x2, x2, #0
    e8c8: 21 00 00 91  	add	x1, x1, #0
    e8cc: 00 00 80 52  	mov	w0, #0
    e8d0: 00 00 00 94  	bl	0xe8d0 <bpf_program__attach_iter+0xa0>
    e8d4: 36 00 00 14  	b	0xe9ac <bpf_program__attach_iter+0x17c>
    e8d8: 02 00 80 52  	mov	w2, #0
    e8dc: e0 03 15 aa  	mov	x0, x21
    e8e0: 01 00 80 52  	mov	w1, #0
    e8e4: e2 53 00 b9  	str	w2, [sp, #80]
    e8e8: 00 00 00 94  	bl	0xe8e8 <bpf_program__attach_iter+0xb8>
    e8ec: f6 03 00 2a  	mov	w22, w0
    e8f0: 40 05 f8 37  	tbnz	w0, #31, 0xe998 <bpf_program__attach_iter+0x168>
    e8f4: 01 04 80 d2  	mov	x1, #32
    e8f8: 20 00 80 d2  	mov	x0, #1
    e8fc: 00 00 00 94  	bl	0xe8fc <bpf_program__attach_iter+0xcc>
    e900: f3 03 00 aa  	mov	x19, x0
    e904: 40 0a 00 b4  	cbz	x0, 0xea4c <bpf_program__attach_iter+0x21c>
    e908: 00 00 00 90  	adrp	x0, 0xe000 <bpf_program__attach_iter+0xd8>
    e90c: 00 00 00 91  	add	x0, x0, #0
    e910: 60 02 00 f9  	str	x0, [x19]
    e914: e3 03 14 aa  	mov	x3, x20
    e918: e0 03 16 2a  	mov	w0, w22
    e91c: 82 03 80 52  	mov	w2, #28
    e920: 01 00 80 52  	mov	w1, #0
    e924: 00 00 00 94  	bl	0xe924 <bpf_program__attach_iter+0xf4>
    e928: 00 06 f8 37  	tbnz	w0, #31, 0xe9e8 <bpf_program__attach_iter+0x1b8>
    e92c: 60 1a 00 b9  	str	w0, [x19, #24]
    e930: 00 00 00 90  	adrp	x0, 0xe000 <bpf_program__attach_iter+0x100>
    e934: 00 00 40 f9  	ldr	x0, [x0]
    e938: e2 87 40 f9  	ldr	x2, [sp, #264]
    e93c: 01 00 40 f9  	ldr	x1, [x0]
    e940: 42 00 01 eb  	subs	x2, x2, x1
    e944: 01 00 80 d2  	mov	x1, #0
    e948: a1 08 00 54  	b.ne	0xea5c <bpf_program__attach_iter+0x22c>
    e94c: e0 03 13 aa  	mov	x0, x19
    e950: f3 53 41 a9  	ldp	x19, x20, [sp, #16]
    e954: f5 5b 42 a9  	ldp	x21, x22, [sp, #32]
    e958: fd 7b d1 a8  	ldp	x29, x30, [sp], #272
    e95c: c0 03 5f d6  	ret
    e960: 00 00 80 d2  	mov	x0, #0
    e964: 7f 3c 00 f1  	cmp	x3, #15
    e968: 49 00 00 54  	b.ls	0xe970 <bpf_program__attach_iter+0x140>
    e96c: 20 04 40 f9  	ldr	x0, [x1, #8]
    e970: e0 27 00 f9  	str	x0, [sp, #72]
    e974: 7f 4c 00 f1  	cmp	x3, #19
    e978: 09 fb ff 54  	b.ls	0xe8d8 <bpf_program__attach_iter+0xa8>
    e97c: 22 10 40 b9  	ldr	w2, [x1, #16]
    e980: e0 03 15 aa  	mov	x0, x21
    e984: 01 00 80 52  	mov	w1, #0
    e988: e2 53 00 b9  	str	w2, [sp, #80]
    e98c: 00 00 00 94  	bl	0xe98c <bpf_program__attach_iter+0x15c>
    e990: f6 03 00 2a  	mov	w22, w0
    e994: 00 fb ff 36  	tbz	w0, #31, 0xe8f4 <bpf_program__attach_iter+0xc4>
    e998: a2 1a 40 f9  	ldr	x2, [x21, #48]
    e99c: 01 00 00 90  	adrp	x1, 0xe000 <bpf_program__attach_iter+0x16c>
    e9a0: 00 00 80 52  	mov	w0, #0
    e9a4: 21 00 00 91  	add	x1, x1, #0
    e9a8: 00 00 00 94  	bl	0xe9a8 <bpf_program__attach_iter+0x178>
    e9ac: 00 00 00 94  	bl	0xe9ac <bpf_program__attach_iter+0x17c>
    e9b0: c2 02 80 52  	mov	w2, #22
    e9b4: 01 00 00 90  	adrp	x1, 0xe000 <bpf_program__attach_iter+0x184>
    e9b8: 02 00 00 b9  	str	w2, [x0]
    e9bc: 20 00 40 b9  	ldr	w0, [x1]
    e9c0: 20 04 00 37  	tbnz	w0, #0, 0xea44 <bpf_program__attach_iter+0x214>
    e9c4: b3 02 80 92  	mov	x19, #-22
    e9c8: da ff ff 17  	b	0xe930 <bpf_program__attach_iter+0x100>
    e9cc: 02 00 00 90  	adrp	x2, 0xe000 <bpf_program__attach_iter+0x19c>
    e9d0: 01 00 00 90  	adrp	x1, 0xe000 <bpf_program__attach_iter+0x1a0>
    e9d4: 42 00 00 91  	add	x2, x2, #0
    e9d8: 21 00 00 91  	add	x1, x1, #0
    e9dc: 00 00 80 52  	mov	w0, #0
    e9e0: 00 00 00 94  	bl	0xe9e0 <bpf_program__attach_iter+0x1b0>
    e9e4: f2 ff ff 17  	b	0xe9ac <bpf_program__attach_iter+0x17c>
    e9e8: 00 00 00 94  	bl	0xe9e8 <bpf_program__attach_iter+0x1b8>
    e9ec: f4 03 00 aa  	mov	x20, x0
    e9f0: e0 03 13 aa  	mov	x0, x19
    e9f4: 96 02 40 b9  	ldr	w22, [x20]
    e9f8: 00 00 00 94  	bl	0xe9f8 <bpf_program__attach_iter+0x1c8>
    e9fc: b5 1a 40 f9  	ldr	x21, [x21, #48]
    ea00: f3 03 16 4b  	neg	w19, w22
    ea04: e1 23 02 91  	add	x1, sp, #136
    ea08: 02 10 80 52  	mov	w2, #128
    ea0c: e0 03 13 2a  	mov	w0, w19
    ea10: 00 00 00 94  	bl	0xea10 <bpf_program__attach_iter+0x1e0>
    ea14: e2 03 15 aa  	mov	x2, x21
    ea18: e3 03 00 aa  	mov	x3, x0
    ea1c: 01 00 00 90  	adrp	x1, 0xe000 <bpf_program__attach_iter+0x1ec>
    ea20: 00 00 80 52  	mov	w0, #0
    ea24: 21 00 00 91  	add	x1, x1, #0
    ea28: 00 00 00 94  	bl	0xea28 <bpf_program__attach_iter+0x1f8>
    ea2c: 00 00 00 90  	adrp	x0, 0xe000 <bpf_program__attach_iter+0x1fc>
    ea30: 96 02 00 b9  	str	w22, [x20]
    ea34: 00 00 40 b9  	ldr	w0, [x0]
    ea38: 60 00 00 37  	tbnz	w0, #0, 0xea44 <bpf_program__attach_iter+0x214>
    ea3c: 73 7e 40 93  	sxtw	x19, w19
    ea40: bc ff ff 17  	b	0xe930 <bpf_program__attach_iter+0x100>
    ea44: 13 00 80 d2  	mov	x19, #0
    ea48: ba ff ff 17  	b	0xe930 <bpf_program__attach_iter+0x100>
    ea4c: 60 01 80 12  	mov	w0, #-12
    ea50: f8 c5 ff 97  	bl	0x230 <libbpf_err_ptr>
    ea54: f3 03 00 aa  	mov	x19, x0
    ea58: b6 ff ff 17  	b	0xe930 <bpf_program__attach_iter+0x100>
    ea5c: 00 00 00 94  	bl	0xea5c <bpf_program__attach_iter+0x22c>

000000000000ea60 <attach_iter>:
    ea60: e0 03 01 aa  	mov	x0, x1
    ea64: 01 00 80 d2  	mov	x1, #0
    ea68: 00 00 00 14  	b	0xea68 <attach_iter+0x8>
    ea6c: 1f 20 03 d5  	nop

000000000000ea70 <bpf_program__attach>:
    ea70: fd 7b bc a9  	stp	x29, x30, [sp, #-64]!
    ea74: 01 00 00 90  	adrp	x1, 0xe000 <bpf_program__attach+0x4>
    ea78: 21 00 00 91  	add	x1, x1, #0
    ea7c: fd 03 00 91  	mov	x29, sp
    ea80: f3 53 01 a9  	stp	x19, x20, [sp, #16]
    ea84: 14 00 00 90  	adrp	x20, 0xe000 <bpf_program__attach+0x14>
    ea88: c2 00 80 d2  	mov	x2, #6
    ea8c: f5 5b 02 a9  	stp	x21, x22, [sp, #32]
    ea90: 95 02 00 91  	add	x21, x20, #0
    ea94: f6 03 00 aa  	mov	x22, x0
    ea98: f7 1b 00 f9  	str	x23, [sp, #48]
    ea9c: b5 a2 00 91  	add	x21, x21, #40
    eaa0: 17 04 40 f9  	ldr	x23, [x0, #8]
    eaa4: 13 00 80 52  	mov	w19, #0
    eaa8: e0 03 17 aa  	mov	x0, x23
    eaac: 00 00 00 94  	bl	0xeaac <bpf_program__attach+0x3c>
    eab0: 00 02 00 35  	cbnz	w0, 0xeaf0 <bpf_program__attach+0x80>
    eab4: 62 7e 7e 93  	sbfiz	x2, x19, #2, #32
    eab8: 94 02 00 91  	add	x20, x20, #0
    eabc: 42 c0 33 8b  	add	x2, x2, w19, sxtw
    eac0: 00 05 80 52  	mov	w0, #40
    eac4: 82 0e 02 8b  	add	x2, x20, x2, lsl #3
    eac8: 60 52 20 9b  	smaddl	x0, w19, w0, x20
    eacc: 42 10 40 f9  	ldr	x2, [x2, #32]
    ead0: c2 01 00 b4  	cbz	x2, 0xeb08 <bpf_program__attach+0x98>
    ead4: e1 03 16 aa  	mov	x1, x22
    ead8: f0 03 02 aa  	mov	x16, x2
    eadc: f3 53 41 a9  	ldp	x19, x20, [sp, #16]
    eae0: f5 5b 42 a9  	ldp	x21, x22, [sp, #32]
    eae4: f7 1b 40 f9  	ldr	x23, [sp, #48]
    eae8: fd 7b c4 a8  	ldp	x29, x30, [sp], #64
    eaec: 00 02 1f d6  	br	x16
    eaf0: 73 06 00 11  	add	w19, w19, #1
    eaf4: 7f 0a 01 71  	cmp	w19, #66
    eaf8: 80 00 00 54  	b.eq	0xeb08 <bpf_program__attach+0x98>
    eafc: a1 0a 40 a9  	ldp	x1, x2, [x21]
    eb00: b5 a2 00 91  	add	x21, x21, #40
    eb04: e9 ff ff 17  	b	0xeaa8 <bpf_program__attach+0x38>
    eb08: 00 00 00 94  	bl	0xeb08 <bpf_program__attach+0x98>
    eb0c: 63 00 80 52  	mov	w3, #3
    eb10: 02 00 00 90  	adrp	x2, 0xe000 <bpf_program__attach+0xa0>
    eb14: f3 53 41 a9  	ldp	x19, x20, [sp, #16]
    eb18: 41 00 80 92  	mov	x1, #-3
    eb1c: f5 5b 42 a9  	ldp	x21, x22, [sp, #32]
    eb20: f7 1b 40 f9  	ldr	x23, [sp, #48]
    eb24: 03 00 00 b9  	str	w3, [x0]
    eb28: 40 00 40 b9  	ldr	w0, [x2]
    eb2c: fd 7b c4 a8  	ldp	x29, x30, [sp], #64
    eb30: 1f 00 40 f2  	tst	x0, #0x1
    eb34: e0 13 81 9a  	csel	x0, xzr, x1, ne
    eb38: c0 03 5f d6  	ret
    eb3c: 1f 20 03 d5  	nop

000000000000eb40 <bpf_map__attach_struct_ops>:
    eb40: fd 7b bc a9  	stp	x29, x30, [sp, #-64]!
    eb44: 01 00 00 90  	adrp	x1, 0xe000 <bpf_map__attach_struct_ops+0x4>
    eb48: fd 03 00 91  	mov	x29, sp
    eb4c: 21 00 40 f9  	ldr	x1, [x1]
    eb50: f5 5b 02 a9  	stp	x21, x22, [sp, #32]
    eb54: f5 03 00 aa  	mov	x21, x0
    eb58: 00 20 40 b9  	ldr	w0, [x0, #32]
    eb5c: 22 00 40 f9  	ldr	x2, [x1]
    eb60: e2 1f 00 f9  	str	x2, [sp, #56]
    eb64: 02 00 80 d2  	mov	x2, #0
    eb68: ff 37 00 b9  	str	wzr, [sp, #52]
    eb6c: 1f 68 00 71  	cmp	w0, #26
    eb70: 01 07 00 54  	b.ne	0xec50 <bpf_map__attach_struct_ops+0x110>
    eb74: f3 53 01 a9  	stp	x19, x20, [sp, #16]
    eb78: b3 0a 40 b9  	ldr	w19, [x21, #8]
    eb7c: 7f 06 00 31  	cmn	w19, #1
    eb80: 60 06 00 54  	b.eq	0xec4c <bpf_map__attach_struct_ops+0x10c>
    eb84: 01 04 80 d2  	mov	x1, #32
    eb88: 20 00 80 d2  	mov	x0, #1
    eb8c: 00 00 00 94  	bl	0xeb8c <bpf_map__attach_struct_ops+0x4c>
    eb90: f6 03 00 aa  	mov	x22, x0
    eb94: 20 09 00 b4  	cbz	x0, 0xecb8 <bpf_map__attach_struct_ops+0x178>
    eb98: b4 36 40 f9  	ldr	x20, [x21, #104]
    eb9c: 82 06 40 f9  	ldr	x2, [x20, #8]
    eba0: 40 08 40 79  	ldrh	w0, [x2, #4]
    eba4: 60 02 00 34  	cbz	w0, 0xebf0 <bpf_map__attach_struct_ops+0xb0>
    eba8: 13 00 80 d2  	mov	x19, #0
    ebac: 1f 20 03 d5  	nop
    ebb0: 81 0a 40 f9  	ldr	x1, [x20, #16]
    ebb4: 20 78 73 f8  	ldr	x0, [x1, x19, lsl #3]
    ebb8: 20 01 00 b4  	cbz	x0, 0xebdc <bpf_map__attach_struct_ops+0x9c>
    ebbc: 01 00 80 52  	mov	w1, #0
    ebc0: 00 00 00 94  	bl	0xebc0 <bpf_map__attach_struct_ops+0x80>
    ebc4: 82 0e 40 f9  	ldr	x2, [x20, #24]
    ebc8: 01 7c 40 93  	sxtw	x1, w0
    ebcc: 83 16 40 f9  	ldr	x3, [x20, #40]
    ebd0: 40 78 73 b8  	ldr	w0, [x2, x19, lsl #2]
    ebd4: 82 06 40 f9  	ldr	x2, [x20, #8]
    ebd8: 61 68 20 f8  	str	x1, [x3, x0]
    ebdc: 41 08 40 79  	ldrh	w1, [x2, #4]
    ebe0: 73 06 00 91  	add	x19, x19, #1
    ebe4: 3f 00 13 6b  	cmp	w1, w19
    ebe8: 48 fe ff 54  	b.hi	0xebb0 <bpf_map__attach_struct_ops+0x70>
    ebec: b3 0a 40 b9  	ldr	w19, [x21, #8]
    ebf0: 82 16 40 f9  	ldr	x2, [x20, #40]
    ebf4: e0 03 13 2a  	mov	w0, w19
    ebf8: e1 d3 00 91  	add	x1, sp, #52
    ebfc: 03 00 80 d2  	mov	x3, #0
    ec00: 00 00 00 94  	bl	0xec00 <bpf_map__attach_struct_ops+0xc0>
    ec04: 80 03 00 35  	cbnz	w0, 0xec74 <bpf_map__attach_struct_ops+0x134>
    ec08: a1 0a 40 b9  	ldr	w1, [x21, #8]
    ec0c: 00 00 00 90  	adrp	x0, 0xe000 <bpf_map__attach_struct_ops+0xcc>
    ec10: 00 00 00 91  	add	x0, x0, #0
    ec14: f3 53 41 a9  	ldp	x19, x20, [sp, #16]
    ec18: c0 02 00 f9  	str	x0, [x22]
    ec1c: c1 1a 00 b9  	str	w1, [x22, #24]
    ec20: 00 00 00 90  	adrp	x0, 0xe000 <bpf_map__attach_struct_ops+0xe0>
    ec24: 00 00 40 f9  	ldr	x0, [x0]
    ec28: e2 1f 40 f9  	ldr	x2, [sp, #56]
    ec2c: 01 00 40 f9  	ldr	x1, [x0]
    ec30: 42 00 01 eb  	subs	x2, x2, x1
    ec34: 01 00 80 d2  	mov	x1, #0
    ec38: c1 03 00 54  	b.ne	0xecb0 <bpf_map__attach_struct_ops+0x170>
    ec3c: e0 03 16 aa  	mov	x0, x22
    ec40: f5 5b 42 a9  	ldp	x21, x22, [sp, #32]
    ec44: fd 7b c4 a8  	ldp	x29, x30, [sp], #64
    ec48: c0 03 5f d6  	ret
    ec4c: f3 53 41 a9  	ldp	x19, x20, [sp, #16]
    ec50: 00 00 00 94  	bl	0xec50 <bpf_map__attach_struct_ops+0x110>
    ec54: c2 02 80 52  	mov	w2, #22
    ec58: 01 00 00 90  	adrp	x1, 0xe000 <bpf_map__attach_struct_ops+0x118>
    ec5c: 02 00 00 b9  	str	w2, [x0]
    ec60: b6 02 80 92  	mov	x22, #-22
    ec64: 20 00 40 b9  	ldr	w0, [x1]
    ec68: c0 fd 07 36  	tbz	w0, #0, 0xec20 <bpf_map__attach_struct_ops+0xe0>
    ec6c: 16 00 80 d2  	mov	x22, #0
    ec70: ec ff ff 17  	b	0xec20 <bpf_map__attach_struct_ops+0xe0>
    ec74: 00 00 00 94  	bl	0xec74 <bpf_map__attach_struct_ops+0x134>
    ec78: e1 03 00 aa  	mov	x1, x0
    ec7c: e0 03 16 aa  	mov	x0, x22
    ec80: 21 00 40 b9  	ldr	w1, [x1]
    ec84: f6 03 01 4b  	neg	w22, w1
    ec88: 00 00 00 94  	bl	0xec88 <bpf_map__attach_struct_ops+0x148>
    ec8c: 00 00 00 90  	adrp	x0, 0xe000 <bpf_map__attach_struct_ops+0x14c>
    ec90: 00 00 40 b9  	ldr	w0, [x0]
    ec94: 80 00 00 37  	tbnz	w0, #0, 0xeca4 <bpf_map__attach_struct_ops+0x164>
    ec98: d6 7e 40 93  	sxtw	x22, w22
    ec9c: f3 53 41 a9  	ldp	x19, x20, [sp, #16]
    eca0: e0 ff ff 17  	b	0xec20 <bpf_map__attach_struct_ops+0xe0>
    eca4: 16 00 80 d2  	mov	x22, #0
    eca8: f3 53 41 a9  	ldp	x19, x20, [sp, #16]
    ecac: dd ff ff 17  	b	0xec20 <bpf_map__attach_struct_ops+0xe0>
    ecb0: f3 53 01 a9  	stp	x19, x20, [sp, #16]
    ecb4: 00 00 00 94  	bl	0xecb4 <bpf_map__attach_struct_ops+0x174>
    ecb8: a0 02 80 12  	mov	w0, #-22
    ecbc: 5d c5 ff 97  	bl	0x230 <libbpf_err_ptr>
    ecc0: f6 03 00 aa  	mov	x22, x0
    ecc4: f3 53 41 a9  	ldp	x19, x20, [sp, #16]
    ecc8: d6 ff ff 17  	b	0xec20 <bpf_map__attach_struct_ops+0xe0>
    eccc: 1f 20 03 d5  	nop

000000000000ecd0 <bpf_perf_event_read_simple>:
    ecd0: fd 7b b7 a9  	stp	x29, x30, [sp, #-144]!
    ecd4: fd 03 00 91  	mov	x29, sp
    ecd8: f3 53 01 a9  	stp	x19, x20, [sp, #16]
    ecdc: f3 03 03 aa  	mov	x19, x3
    ece0: f5 5b 02 a9  	stp	x21, x22, [sp, #32]
    ece4: f5 03 01 aa  	mov	x21, x1
    ece8: f6 03 06 aa  	mov	x22, x6
    ecec: 01 00 10 91  	add	x1, x0, #1024
    ecf0: f7 63 03 a9  	stp	x23, x24, [sp, #48]
    ecf4: f9 6b 04 a9  	stp	x25, x26, [sp, #64]
    ecf8: fb 73 05 a9  	stp	x27, x28, [sp, #80]
    ecfc: fb 03 04 aa  	mov	x27, x4
    ed00: e5 37 00 f9  	str	x5, [sp, #104]
    ed04: e0 47 00 f9  	str	x0, [sp, #136]
    ed08: 38 fc df c8  	ldar	x24, [x1]
    ed0c: 14 00 02 8b  	add	x20, x0, x2
    ed10: f8 43 00 f9  	str	x24, [sp, #128]
    ed14: 81 02 15 8b  	add	x1, x20, x21
    ed18: e1 3b 00 f9  	str	x1, [sp, #112]
    ed1c: a1 06 00 d1  	sub	x1, x21, #1
    ed20: e1 33 00 f9  	str	x1, [sp, #96]
    ed24: 1c 04 42 f9  	ldr	x28, [x0, #1032]
    ed28: 26 00 00 14  	b	0xedc0 <bpf_perf_event_read_simple+0xf0>
    ed2c: 84 02 02 8b  	add	x4, x20, x2
    ed30: ba 02 02 cb  	sub	x26, x21, x2
    ed34: e1 3b 40 f9  	ldr	x1, [sp, #112]
    ed38: 97 0c 40 79  	ldrh	w23, [x4, #6]
    ed3c: 80 00 17 8b  	add	x0, x4, x23
    ed40: f9 02 1a cb  	sub	x25, x23, x26
    ed44: 1f 00 01 eb  	cmp	x0, x1
    ed48: c9 02 00 54  	b.ls	0xeda0 <bpf_perf_event_read_simple+0xd0>
    ed4c: 61 03 40 f9  	ldr	x1, [x27]
    ed50: 60 02 40 f9  	ldr	x0, [x19]
    ed54: 3f 00 17 eb  	cmp	x1, x23
    ed58: 22 01 00 54  	b.hs	0xed7c <bpf_perf_event_read_simple+0xac>
    ed5c: e4 3f 00 f9  	str	x4, [sp, #120]
    ed60: 00 00 00 94  	bl	0xed60 <bpf_perf_event_read_simple+0x90>
    ed64: e0 03 17 aa  	mov	x0, x23
    ed68: 00 00 00 94  	bl	0xed68 <bpf_perf_event_read_simple+0x98>
    ed6c: 60 02 00 f9  	str	x0, [x19]
    ed70: e4 3f 40 f9  	ldr	x4, [sp, #120]
    ed74: c0 06 00 b4  	cbz	x0, 0xee4c <bpf_perf_event_read_simple+0x17c>
    ed78: 77 03 00 f9  	str	x23, [x27]
    ed7c: e1 03 04 aa  	mov	x1, x4
    ed80: e2 03 1a aa  	mov	x2, x26
    ed84: 00 00 00 94  	bl	0xed84 <bpf_perf_event_read_simple+0xb4>
    ed88: 60 02 40 f9  	ldr	x0, [x19]
    ed8c: e2 03 19 aa  	mov	x2, x25
    ed90: e1 03 14 aa  	mov	x1, x20
    ed94: 00 00 1a 8b  	add	x0, x0, x26
    ed98: 00 00 00 94  	bl	0xed98 <bpf_perf_event_read_simple+0xc8>
    ed9c: 64 02 40 f9  	ldr	x4, [x19]
    eda0: e1 03 16 aa  	mov	x1, x22
    eda4: e2 37 40 f9  	ldr	x2, [sp, #104]
    eda8: e0 03 04 aa  	mov	x0, x4
    edac: 9c 03 17 8b  	add	x28, x28, x23
    edb0: 40 00 3f d6  	blr	x2
    edb4: e1 03 00 2a  	mov	w1, w0
    edb8: 1f 08 00 31  	cmn	w0, #2
    edbc: 41 02 00 54  	b.ne	0xee04 <bpf_perf_event_read_simple+0x134>
    edc0: e0 33 40 f9  	ldr	x0, [sp, #96]
    edc4: 02 00 1c 8a  	and	x2, x0, x28
    edc8: 9f 03 18 eb  	cmp	x28, x24
    edcc: 01 fb ff 54  	b.ne	0xed2c <bpf_perf_event_read_simple+0x5c>
    edd0: e2 03 48 a9  	ldp	x2, x0, [sp, #128]
    edd4: 21 00 80 12  	mov	w1, #-2
    edd8: 00 20 10 91  	add	x0, x0, #1032
    eddc: 02 fc 9f c8  	stlr	x2, [x0]
    ede0: c1 01 f8 37  	tbnz	w1, #31, 0xee18 <bpf_perf_event_read_simple+0x148>
    ede4: e0 03 01 2a  	mov	w0, w1
    ede8: f3 53 41 a9  	ldp	x19, x20, [sp, #16]
    edec: f5 5b 42 a9  	ldp	x21, x22, [sp, #32]
    edf0: f7 63 43 a9  	ldp	x23, x24, [sp, #48]
    edf4: f9 6b 44 a9  	ldp	x25, x26, [sp, #64]
    edf8: fb 73 45 a9  	ldp	x27, x28, [sp, #80]
    edfc: fd 7b c9 a8  	ldp	x29, x30, [sp], #144
    ee00: c0 03 5f d6  	ret
    ee04: fc 43 00 f9  	str	x28, [sp, #128]
    ee08: e2 03 48 a9  	ldp	x2, x0, [sp, #128]
    ee0c: 00 20 10 91  	add	x0, x0, #1032
    ee10: 02 fc 9f c8  	stlr	x2, [x0]
    ee14: 81 fe ff 36  	tbz	w1, #31, 0xede4 <bpf_perf_event_read_simple+0x114>
    ee18: f3 03 01 4b  	neg	w19, w1
    ee1c: e1 63 00 b9  	str	w1, [sp, #96]
    ee20: 00 00 00 94  	bl	0xee20 <bpf_perf_event_read_simple+0x150>
    ee24: e1 63 40 b9  	ldr	w1, [sp, #96]
    ee28: 13 00 00 b9  	str	w19, [x0]
    ee2c: e0 03 01 2a  	mov	w0, w1
    ee30: f3 53 41 a9  	ldp	x19, x20, [sp, #16]
    ee34: f5 5b 42 a9  	ldp	x21, x22, [sp, #32]
    ee38: f7 63 43 a9  	ldp	x23, x24, [sp, #48]
    ee3c: f9 6b 44 a9  	ldp	x25, x26, [sp, #64]
    ee40: fb 73 45 a9  	ldp	x27, x28, [sp, #80]
    ee44: fd 7b c9 a8  	ldp	x29, x30, [sp], #144
    ee48: c0 03 5f d6  	ret
    ee4c: e0 47 40 f9  	ldr	x0, [sp, #136]
    ee50: 7f 03 00 f9  	str	xzr, [x27]
    ee54: 00 20 10 91  	add	x0, x0, #1032
    ee58: 1c fc 9f c8  	stlr	x28, [x0]
    ee5c: 33 00 80 52  	mov	w19, #1
    ee60: 01 00 80 12  	mov	w1, #-1
    ee64: ee ff ff 17  	b	0xee1c <bpf_perf_event_read_simple+0x14c>
    ee68: 1f 20 03 d5  	nop
    ee6c: 1f 20 03 d5  	nop

000000000000ee70 <perf_buffer__free>:
    ee70: e0 05 00 b4  	cbz	x0, 0xef2c <perf_buffer__free+0xbc>
    ee74: fd 7b bd a9  	stp	x29, x30, [sp, #-48]!
    ee78: fd 03 00 91  	mov	x29, sp
    ee7c: f3 53 01 a9  	stp	x19, x20, [sp, #16]
    ee80: f3 03 00 aa  	mov	x19, x0
    ee84: 1f 04 40 b1  	cmn	x0, #1, lsl #12         // =4096
    ee88: c8 04 00 54  	b.hi	0xef20 <perf_buffer__free+0xb0>
    ee8c: 00 18 40 f9  	ldr	x0, [x0, #48]
    ee90: a0 02 00 b4  	cbz	x0, 0xeee4 <perf_buffer__free+0x74>
    ee94: 62 42 40 b9  	ldr	w2, [x19, #64]
    ee98: 14 00 80 d2  	mov	x20, #0
    ee9c: 5f 00 00 71  	cmp	w2, #0
    eea0: 0d 02 00 54  	b.le	0xeee0 <perf_buffer__free+0x70>
    eea4: f5 13 00 f9  	str	x21, [sp, #32]
    eea8: 15 78 74 f8  	ldr	x21, [x0, x20, lsl #3]
    eeac: 94 06 00 91  	add	x20, x20, #1
    eeb0: a1 a2 00 91  	add	x1, x21, #40
    eeb4: 15 01 00 b4  	cbz	x21, 0xeed4 <perf_buffer__free+0x64>
    eeb8: 60 4a 40 b9  	ldr	w0, [x19, #72]
    eebc: 00 00 00 94  	bl	0xeebc <perf_buffer__free+0x4c>
    eec0: e0 03 13 aa  	mov	x0, x19
    eec4: e1 03 15 aa  	mov	x1, x21
    eec8: d6 d3 ff 97  	bl	0x3e20 <perf_buffer__free_cpu_buf>
    eecc: 62 42 40 b9  	ldr	w2, [x19, #64]
    eed0: 60 1a 40 f9  	ldr	x0, [x19, #48]
    eed4: 5f 00 14 6b  	cmp	w2, w20
    eed8: 8c fe ff 54  	b.gt	0xeea8 <perf_buffer__free+0x38>
    eedc: f5 13 40 f9  	ldr	x21, [sp, #32]
    eee0: 00 00 00 94  	bl	0xeee0 <perf_buffer__free+0x70>
    eee4: 60 46 40 b9  	ldr	w0, [x19, #68]
    eee8: e0 00 f8 36  	tbz	w0, #31, 0xef04 <perf_buffer__free+0x94>
    eeec: 60 1e 40 f9  	ldr	x0, [x19, #56]
    eef0: 00 00 00 94  	bl	0xeef0 <perf_buffer__free+0x80>
    eef4: e0 03 13 aa  	mov	x0, x19
    eef8: f3 53 41 a9  	ldp	x19, x20, [sp, #16]
    eefc: fd 7b c3 a8  	ldp	x29, x30, [sp], #48
    ef00: 00 00 00 14  	b	0xef00 <perf_buffer__free+0x90>
    ef04: 00 00 00 94  	bl	0xef04 <perf_buffer__free+0x94>
    ef08: 60 1e 40 f9  	ldr	x0, [x19, #56]
    ef0c: 00 00 00 94  	bl	0xef0c <perf_buffer__free+0x9c>
    ef10: e0 03 13 aa  	mov	x0, x19
    ef14: f3 53 41 a9  	ldp	x19, x20, [sp, #16]
    ef18: fd 7b c3 a8  	ldp	x29, x30, [sp], #48
    ef1c: 00 00 00 14  	b	0xef1c <perf_buffer__free+0xac>
    ef20: f3 53 41 a9  	ldp	x19, x20, [sp, #16]
    ef24: fd 7b c3 a8  	ldp	x29, x30, [sp], #48
    ef28: c0 03 5f d6  	ret
    ef2c: c0 03 5f d6  	ret

000000000000ef30 <perf_buffer__epoll_fd>:
    ef30: 00 44 40 b9  	ldr	w0, [x0, #68]
    ef34: c0 03 5f d6  	ret
    ef38: 1f 20 03 d5  	nop
    ef3c: 1f 20 03 d5  	nop

000000000000ef40 <perf_buffer__poll>:
    ef40: fd 7b bc a9  	stp	x29, x30, [sp, #-64]!
    ef44: e3 03 01 2a  	mov	w3, w1
    ef48: fd 03 00 91  	mov	x29, sp
    ef4c: 02 40 40 b9  	ldr	w2, [x0, #64]
    ef50: f3 53 01 a9  	stp	x19, x20, [sp, #16]
    ef54: f4 03 00 aa  	mov	x20, x0
    ef58: 01 1c 40 f9  	ldr	x1, [x0, #56]
    ef5c: f5 5b 02 a9  	stp	x21, x22, [sp, #32]
    ef60: 00 44 40 b9  	ldr	w0, [x0, #68]
    ef64: 00 00 00 94  	bl	0xef64 <perf_buffer__poll+0x24>
    ef68: 1f 00 00 71  	cmp	w0, #0
    ef6c: ab 04 00 54  	b.lt	0xf000 <perf_buffer__poll+0xc0>
    ef70: f5 03 00 2a  	mov	w21, w0
    ef74: c0 03 00 54  	b.eq	0xefec <perf_buffer__poll+0xac>
    ef78: 16 7c 7c 93  	sbfiz	x22, x0, #4, #32
    ef7c: 13 00 80 d2  	mov	x19, #0
    ef80: f7 1b 00 f9  	str	x23, [sp, #48]
    ef84: 17 00 00 90  	adrp	x23, 0xe000 <perf_buffer__poll+0x44>
    ef88: f7 02 00 91  	add	x23, x23, #0
    ef8c: 03 00 00 14  	b	0xef98 <perf_buffer__poll+0x58>
    ef90: df 02 13 eb  	cmp	x22, x19
    ef94: a0 02 00 54  	b.eq	0xefe8 <perf_buffer__poll+0xa8>
    ef98: 83 1e 40 f9  	ldr	x3, [x20, #56]
    ef9c: e5 03 17 aa  	mov	x5, x23
    efa0: 82 06 42 a9  	ldp	x2, x1, [x20, #32]
    efa4: 63 00 13 8b  	add	x3, x3, x19
    efa8: 73 42 00 91  	add	x19, x19, #16
    efac: 66 04 40 f9  	ldr	x6, [x3, #8]
    efb0: c4 60 00 91  	add	x4, x6, #24
    efb4: c3 40 00 91  	add	x3, x6, #16
    efb8: c0 04 40 f9  	ldr	x0, [x6, #8]
    efbc: 00 00 00 94  	bl	0xefbc <perf_buffer__poll+0x7c>
    efc0: 01 08 00 11  	add	w1, w0, #2
    efc4: 3f 78 1e 72  	tst	w1, #0xfffffffd
    efc8: 40 fe ff 54  	b.eq	0xef90 <perf_buffer__poll+0x50>
    efcc: f5 03 00 2a  	mov	w21, w0
    efd0: e2 03 00 2a  	mov	w2, w0
    efd4: 01 00 00 90  	adrp	x1, 0xe000 <perf_buffer__poll+0x94>
    efd8: 00 00 80 52  	mov	w0, #0
    efdc: 21 00 00 91  	add	x1, x1, #0
    efe0: 00 00 00 94  	bl	0xefe0 <perf_buffer__poll+0xa0>
    efe4: f5 01 f8 37  	tbnz	w21, #31, 0xf020 <perf_buffer__poll+0xe0>
    efe8: f7 1b 40 f9  	ldr	x23, [sp, #48]
    efec: e0 03 15 2a  	mov	w0, w21
    eff0: f3 53 41 a9  	ldp	x19, x20, [sp, #16]
    eff4: f5 5b 42 a9  	ldp	x21, x22, [sp, #32]
    eff8: fd 7b c4 a8  	ldp	x29, x30, [sp], #64
    effc: c0 03 5f d6  	ret
    f000: 00 00 00 94  	bl	0xf000 <perf_buffer__poll+0xc0>
    f004: 15 00 40 b9  	ldr	w21, [x0]
    f008: f3 53 41 a9  	ldp	x19, x20, [sp, #16]
    f00c: f5 03 15 4b  	neg	w21, w21
    f010: e0 03 15 2a  	mov	w0, w21
    f014: f5 5b 42 a9  	ldp	x21, x22, [sp, #32]
    f018: fd 7b c4 a8  	ldp	x29, x30, [sp], #64
    f01c: c0 03 5f d6  	ret
    f020: 00 00 00 94  	bl	0xf020 <perf_buffer__poll+0xe0>
    f024: e1 03 15 4b  	neg	w1, w21
    f028: f7 1b 40 f9  	ldr	x23, [sp, #48]
    f02c: 01 00 00 b9  	str	w1, [x0]
    f030: e0 03 15 2a  	mov	w0, w21
    f034: f3 53 41 a9  	ldp	x19, x20, [sp, #16]
    f038: f5 5b 42 a9  	ldp	x21, x22, [sp, #32]
    f03c: fd 7b c4 a8  	ldp	x29, x30, [sp], #64
    f040: c0 03 5f d6  	ret

000000000000f044 <perf_buffer__buffer_cnt>:
    f044: 00 40 80 b9  	ldrsw	x0, [x0, #64]
    f048: c0 03 5f d6  	ret
    f04c: 1f 20 03 d5  	nop

000000000000f050 <perf_buffer__buffer_fd>:
    f050: fd 7b bf a9  	stp	x29, x30, [sp, #-16]!
    f054: fd 03 00 91  	mov	x29, sp
    f058: 02 40 80 b9  	ldrsw	x2, [x0, #64]
    f05c: 5f 00 01 eb  	cmp	x2, x1
    f060: e9 00 00 54  	b.ls	0xf07c <perf_buffer__buffer_fd+0x2c>
    f064: 00 18 40 f9  	ldr	x0, [x0, #48]
    f068: 00 78 61 f8  	ldr	x0, [x0, x1, lsl #3]
    f06c: 40 01 00 b4  	cbz	x0, 0xf094 <perf_buffer__buffer_fd+0x44>
    f070: 00 20 40 b9  	ldr	w0, [x0, #32]
    f074: fd 7b c1 a8  	ldp	x29, x30, [sp], #16
    f078: c0 03 5f d6  	ret
    f07c: 00 00 00 94  	bl	0xf07c <perf_buffer__buffer_fd+0x2c>
    f080: e1 03 00 aa  	mov	x1, x0
    f084: c2 02 80 52  	mov	w2, #22
    f088: a0 02 80 12  	mov	w0, #-22
    f08c: 22 00 00 b9  	str	w2, [x1]
    f090: f9 ff ff 17  	b	0xf074 <perf_buffer__buffer_fd+0x24>
    f094: 00 00 00 94  	bl	0xf094 <perf_buffer__buffer_fd+0x44>
    f098: e1 03 00 aa  	mov	x1, x0
    f09c: 42 00 80 52  	mov	w2, #2
    f0a0: 20 00 80 12  	mov	w0, #-2
    f0a4: 22 00 00 b9  	str	w2, [x1]
    f0a8: f3 ff ff 17  	b	0xf074 <perf_buffer__buffer_fd+0x24>
    f0ac: 1f 20 03 d5  	nop

000000000000f0b0 <perf_buffer__consume_buffer>:
    f0b0: fd 7b bf a9  	stp	x29, x30, [sp, #-16]!
    f0b4: e4 03 00 aa  	mov	x4, x0
    f0b8: fd 03 00 91  	mov	x29, sp
    f0bc: 00 40 80 b9  	ldrsw	x0, [x0, #64]
    f0c0: 1f 00 01 eb  	cmp	x0, x1
    f0c4: e9 01 00 54  	b.ls	0xf100 <perf_buffer__consume_buffer+0x50>
    f0c8: 80 18 40 f9  	ldr	x0, [x4, #48]
    f0cc: 06 78 61 f8  	ldr	x6, [x0, x1, lsl #3]
    f0d0: 46 02 00 b4  	cbz	x6, 0xf118 <perf_buffer__consume_buffer+0x68>
    f0d4: 82 04 42 a9  	ldp	x2, x1, [x4, #32]
    f0d8: c3 40 00 91  	add	x3, x6, #16
    f0dc: c0 04 40 f9  	ldr	x0, [x6, #8]
    f0e0: c4 60 00 91  	add	x4, x6, #24
    f0e4: 05 00 00 90  	adrp	x5, 0xf000 <perf_buffer__consume_buffer+0x34>
    f0e8: a5 00 00 91  	add	x5, x5, #0
    f0ec: 00 00 00 94  	bl	0xf0ec <perf_buffer__consume_buffer+0x3c>
    f0f0: 1f 08 00 31  	cmn	w0, #2
    f0f4: 00 10 9f 1a  	csel	w0, w0, wzr, ne
    f0f8: fd 7b c1 a8  	ldp	x29, x30, [sp], #16
    f0fc: c0 03 5f d6  	ret
    f100: 00 00 00 94  	bl	0xf100 <perf_buffer__consume_buffer+0x50>
    f104: e1 03 00 aa  	mov	x1, x0
    f108: c2 02 80 52  	mov	w2, #22
    f10c: a0 02 80 12  	mov	w0, #-22
    f110: 22 00 00 b9  	str	w2, [x1]
    f114: f9 ff ff 17  	b	0xf0f8 <perf_buffer__consume_buffer+0x48>
    f118: 00 00 00 94  	bl	0xf118 <perf_buffer__consume_buffer+0x68>
    f11c: e1 03 00 aa  	mov	x1, x0
    f120: 42 00 80 52  	mov	w2, #2
    f124: 20 00 80 12  	mov	w0, #-2
    f128: 22 00 00 b9  	str	w2, [x1]
    f12c: f3 ff ff 17  	b	0xf0f8 <perf_buffer__consume_buffer+0x48>

000000000000f130 <perf_buffer__consume>:
    f130: fd 7b bd a9  	stp	x29, x30, [sp, #-48]!
    f134: fd 03 00 91  	mov	x29, sp
    f138: 02 40 40 b9  	ldr	w2, [x0, #64]
    f13c: f5 5b 02 a9  	stp	x21, x22, [sp, #32]
    f140: 5f 00 00 71  	cmp	w2, #0
    f144: cd 04 00 54  	b.le	0xf1dc <perf_buffer__consume+0xac>
    f148: 16 00 00 90  	adrp	x22, 0xf000 <perf_buffer__consume+0x18>
    f14c: d6 02 00 91  	add	x22, x22, #0
    f150: f3 53 01 a9  	stp	x19, x20, [sp, #16]
    f154: f4 03 00 aa  	mov	x20, x0
    f158: 13 00 80 d2  	mov	x19, #0
    f15c: 05 00 00 14  	b	0xf170 <perf_buffer__consume+0x40>
    f160: 82 42 40 b9  	ldr	w2, [x20, #64]
    f164: 73 06 00 91  	add	x19, x19, #1
    f168: 5f 00 13 6b  	cmp	w2, w19
    f16c: 6d 03 00 54  	b.le	0xf1d8 <perf_buffer__consume+0xa8>
    f170: 80 1a 40 f9  	ldr	x0, [x20, #48]
    f174: e5 03 16 aa  	mov	x5, x22
    f178: 01 78 73 f8  	ldr	x1, [x0, x19, lsl #3]
    f17c: e6 03 01 aa  	mov	x6, x1
    f180: 24 60 00 91  	add	x4, x1, #24
    f184: 23 40 00 91  	add	x3, x1, #16
    f188: e1 fe ff b4  	cbz	x1, 0xf164 <perf_buffer__consume+0x34>
    f18c: 20 04 40 f9  	ldr	x0, [x1, #8]
    f190: 82 06 42 a9  	ldp	x2, x1, [x20, #32]
    f194: 00 00 00 94  	bl	0xf194 <perf_buffer__consume+0x64>
    f198: f5 03 00 2a  	mov	w21, w0
    f19c: 00 08 00 11  	add	w0, w0, #2
    f1a0: 1f 78 1e 72  	tst	w0, #0xfffffffd
    f1a4: e0 fd ff 54  	b.eq	0xf160 <perf_buffer__consume+0x30>
    f1a8: 01 00 00 90  	adrp	x1, 0xf000 <perf_buffer__consume+0x78>
    f1ac: e2 03 13 2a  	mov	w2, w19
    f1b0: e3 03 15 2a  	mov	w3, w21
    f1b4: 21 00 00 91  	add	x1, x1, #0
    f1b8: 00 00 80 52  	mov	w0, #0
    f1bc: 00 00 00 94  	bl	0xf1bc <perf_buffer__consume+0x8c>
    f1c0: 95 01 f8 37  	tbnz	w21, #31, 0xf1f0 <perf_buffer__consume+0xc0>
    f1c4: e0 03 15 2a  	mov	w0, w21
    f1c8: f3 53 41 a9  	ldp	x19, x20, [sp, #16]
    f1cc: f5 5b 42 a9  	ldp	x21, x22, [sp, #32]
    f1d0: fd 7b c3 a8  	ldp	x29, x30, [sp], #48
    f1d4: c0 03 5f d6  	ret
    f1d8: f3 53 41 a9  	ldp	x19, x20, [sp, #16]
    f1dc: 15 00 80 52  	mov	w21, #0
    f1e0: e0 03 15 2a  	mov	w0, w21
    f1e4: f5 5b 42 a9  	ldp	x21, x22, [sp, #32]
    f1e8: fd 7b c3 a8  	ldp	x29, x30, [sp], #48
    f1ec: c0 03 5f d6  	ret
    f1f0: 00 00 00 94  	bl	0xf1f0 <perf_buffer__consume+0xc0>
    f1f4: e1 03 15 4b  	neg	w1, w21
    f1f8: f3 53 41 a9  	ldp	x19, x20, [sp, #16]
    f1fc: 01 00 00 b9  	str	w1, [x0]
    f200: e0 03 15 2a  	mov	w0, w21
    f204: f5 5b 42 a9  	ldp	x21, x22, [sp, #32]
    f208: fd 7b c3 a8  	ldp	x29, x30, [sp], #48
    f20c: c0 03 5f d6  	ret

000000000000f210 <bpf_program__get_prog_info_linear>:
    f210: fd 7b ab a9  	stp	x29, x30, [sp, #-336]!
    f214: 02 00 00 90  	adrp	x2, 0xf000 <bpf_program__get_prog_info_linear+0x4>
    f218: 00 04 00 4f  	movi	v0.4s, #0
    f21c: fd 03 00 91  	mov	x29, sp
    f220: 42 00 40 f9  	ldr	x2, [x2]
    f224: f3 53 01 a9  	stp	x19, x20, [sp, #16]
    f228: f4 c3 01 91  	add	x20, sp, #112
    f22c: f7 63 03 a9  	stp	x23, x24, [sp, #48]
    f230: f3 03 01 aa  	mov	x19, x1
    f234: 01 1b 80 52  	mov	w1, #216
    f238: 43 00 40 f9  	ldr	x3, [x2]
    f23c: e3 a7 00 f9  	str	x3, [sp, #328]
    f240: 03 00 80 d2  	mov	x3, #0
    f244: 80 02 00 ad  	stp	q0, q0, [x20]
    f248: 80 02 01 ad  	stp	q0, q0, [x20, #32]
    f24c: 80 02 02 ad  	stp	q0, q0, [x20, #64]
    f250: 80 02 03 ad  	stp	q0, q0, [x20, #96]
    f254: e1 6f 00 b9  	str	w1, [sp, #108]
    f258: 80 02 04 ad  	stp	q0, q0, [x20, #128]
    f25c: 80 02 05 ad  	stp	q0, q0, [x20, #160]
    f260: 80 32 80 3d  	str	q0, [x20, #192]
    f264: 9f 6a 00 f9  	str	xzr, [x20, #208]
    f268: ff 27 53 eb  	cmp	xzr, x19, lsr #9
    f26c: a1 16 00 54  	b.ne	0xf540 <bpf_program__get_prog_info_linear+0x330>
    f270: fb 2b 00 f9  	str	x27, [sp, #80]
    f274: fb b3 01 91  	add	x27, sp, #108
    f278: f7 03 00 2a  	mov	w23, w0
    f27c: e1 03 14 aa  	mov	x1, x20
    f280: e2 03 1b aa  	mov	x2, x27
    f284: f5 5b 02 a9  	stp	x21, x22, [sp, #32]
    f288: 00 00 00 94  	bl	0xf288 <bpf_program__get_prog_info_linear+0x78>
    f28c: f5 03 00 2a  	mov	w21, w0
    f290: 40 19 00 35  	cbnz	w0, 0xf5b8 <bpf_program__get_prog_info_linear+0x3a8>
    f294: e9 6f 40 b9  	ldr	w9, [sp, #108]
    f298: 00 00 80 52  	mov	w0, #0
    f29c: f9 6b 04 a9  	stp	x25, x26, [sp, #64]
    f2a0: 1a 00 00 90  	adrp	x26, 0xf000 <bpf_program__get_prog_info_linear+0x90>
    f2a4: 5a 03 00 91  	add	x26, x26, #0
    f2a8: e1 03 1a aa  	mov	x1, x26
    f2ac: e5 03 09 2a  	mov	w5, w9
    f2b0: 07 00 80 52  	mov	w7, #0
    f2b4: 28 00 80 d2  	mov	x8, #1
    f2b8: 23 00 80 b9  	ldrsw	x3, [x1]
    f2bc: 04 21 c0 9a  	lsl	x4, x8, x0
    f2c0: 63 10 00 91  	add	x3, x3, #4
    f2c4: bf 00 03 eb  	cmp	x5, x3
    f2c8: 83 09 00 54  	b.lo	0xf3f8 <bpf_program__get_prog_info_linear+0x1e8>
    f2cc: 23 04 40 b9  	ldr	w3, [x1, #4]
    f2d0: 66 7c 40 93  	sxtw	x6, w3
    f2d4: c2 10 00 91  	add	x2, x6, #4
    f2d8: bf 00 02 eb  	cmp	x5, x2
    f2dc: e3 08 00 54  	b.lo	0xf3f8 <bpf_program__get_prog_info_linear+0x1e8>
    f2e0: 22 08 40 b9  	ldr	w2, [x1, #8]
    f2e4: 5f 00 00 71  	cmp	w2, #0
    f2e8: 6d 00 00 54  	b.le	0xf2f4 <bpf_program__get_prog_info_linear+0xe4>
    f2ec: 3f 01 02 6b  	cmp	w9, w2
    f2f0: 43 08 00 54  	b.lo	0xf3f8 <bpf_program__get_prog_info_linear+0x1e8>
    f2f4: 9f 00 13 ea  	tst	x4, x19
    f2f8: 00 08 00 54  	b.eq	0xf3f8 <bpf_program__get_prog_info_linear+0x1e8>
    f2fc: e4 03 03 4b  	neg	w4, w3
    f300: 63 00 f8 37  	tbnz	w3, #31, 0xf30c <bpf_program__get_prog_info_linear+0xfc>
    f304: c6 f4 7e 92  	and	x6, x6, #0xfffffffffffffffc
    f308: 84 6a 66 b8  	ldr	w4, [x20, x6]
    f30c: e3 03 02 4b  	neg	w3, w2
    f310: 02 11 f8 36  	tbz	w2, #31, 0xf530 <bpf_program__get_prog_info_linear+0x320>
    f314: 67 1c 04 1b  	madd	w7, w3, w4, w7
    f318: 00 04 00 11  	add	w0, w0, #1
    f31c: 21 30 00 91  	add	x1, x1, #12
    f320: 1f 24 00 71  	cmp	w0, #9
    f324: a1 fc ff 54  	b.ne	0xf2b8 <bpf_program__get_prog_info_linear+0xa8>
    f328: f6 03 07 2a  	mov	w22, w7
    f32c: d6 1e 00 91  	add	x22, x22, #7
    f330: c0 72 7d 92  	and	x0, x22, #0xfffffff8
    f334: d6 f2 7d 92  	and	x22, x22, #0xfffffffffffffff8
    f338: 00 a0 03 91  	add	x0, x0, #232
    f33c: 00 00 00 94  	bl	0xf33c <bpf_program__get_prog_info_linear+0x12c>
    f340: f8 03 00 aa  	mov	x24, x0
    f344: 00 17 00 b4  	cbz	x0, 0xf624 <bpf_program__get_prog_info_linear+0x414>
    f348: 00 04 00 4f  	movi	v0.4s, #0
    f34c: 19 40 00 91  	add	x25, x0, #16
    f350: 13 07 00 f9  	str	x19, [x24, #8]
    f354: 02 a0 03 91  	add	x2, x0, #232
    f358: 25 00 80 d2  	mov	x5, #1
    f35c: e0 03 1a aa  	mov	x0, x26
    f360: 3f 6b 00 f9  	str	xzr, [x25, #208]
    f364: 20 03 00 ad  	stp	q0, q0, [x25]
    f368: 20 03 01 ad  	stp	q0, q0, [x25, #32]
    f36c: 20 03 02 ad  	stp	q0, q0, [x25, #64]
    f370: 20 03 03 ad  	stp	q0, q0, [x25, #96]
    f374: 20 03 04 ad  	stp	q0, q0, [x25, #128]
    f378: 20 03 05 ad  	stp	q0, q0, [x25, #160]
    f37c: 20 33 80 3d  	str	q0, [x25, #192]
    f380: 0f 00 00 14  	b	0xf3bc <bpf_program__get_prog_info_linear+0x1ac>
    f384: e3 03 03 4b  	neg	w3, w3
    f388: 21 04 f8 36  	tbz	w1, #31, 0xf40c <bpf_program__get_prog_info_linear+0x1fc>
    f38c: e1 03 01 4b  	neg	w1, w1
    f390: 04 00 40 b9  	ldr	w4, [x0]
    f394: 84 00 f8 37  	tbnz	w4, #31, 0xf3a4 <bpf_program__get_prog_info_linear+0x194>
    f398: 84 7c 40 93  	sxtw	x4, w4
    f39c: 84 f0 7d 92  	and	x4, x4, #0xfffffffffffffff8
    f3a0: 22 6b 24 f8  	str	x2, [x25, x4]
    f3a4: 63 7c 01 1b  	mul	w3, w3, w1
    f3a8: 42 00 03 8b  	add	x2, x2, x3
    f3ac: b5 06 00 11  	add	w21, w21, #1
    f3b0: 00 30 00 91  	add	x0, x0, #12
    f3b4: bf 26 00 71  	cmp	w21, #9
    f3b8: 40 03 00 54  	b.eq	0xf420 <bpf_program__get_prog_info_linear+0x210>
    f3bc: a1 20 d5 9a  	lsl	x1, x5, x21
    f3c0: 3f 00 13 ea  	tst	x1, x19
    f3c4: 40 ff ff 54  	b.eq	0xf3ac <bpf_program__get_prog_info_linear+0x19c>
    f3c8: 03 84 40 29  	ldp	w3, w1, [x0, #4]
    f3cc: c3 fd ff 37  	tbnz	w3, #31, 0xf384 <bpf_program__get_prog_info_linear+0x174>
    f3d0: 63 7c 40 93  	sxtw	x3, w3
    f3d4: 64 f4 7e 92  	and	x4, x3, #0xfffffffffffffffc
    f3d8: 83 6a 64 b8  	ldr	w3, [x20, x4]
    f3dc: 21 01 f8 37  	tbnz	w1, #31, 0xf400 <bpf_program__get_prog_info_linear+0x1f0>
    f3e0: 21 7c 40 93  	sxtw	x1, w1
    f3e4: 23 6b 24 b8  	str	w3, [x25, x4]
    f3e8: 24 f4 7e 92  	and	x4, x1, #0xfffffffffffffffc
    f3ec: 81 6a 64 b8  	ldr	w1, [x20, x4]
    f3f0: 21 6b 24 b8  	str	w1, [x25, x4]
    f3f4: e7 ff ff 17  	b	0xf390 <bpf_program__get_prog_info_linear+0x180>
    f3f8: 73 02 24 8a  	bic	x19, x19, x4
    f3fc: c7 ff ff 17  	b	0xf318 <bpf_program__get_prog_info_linear+0x108>
    f400: e1 03 01 4b  	neg	w1, w1
    f404: 23 6b 24 b8  	str	w3, [x25, x4]
    f408: e2 ff ff 17  	b	0xf390 <bpf_program__get_prog_info_linear+0x180>
    f40c: 21 7c 40 93  	sxtw	x1, w1
    f410: 24 f4 7e 92  	and	x4, x1, #0xfffffffffffffffc
    f414: 81 6a 64 b8  	ldr	w1, [x20, x4]
    f418: 21 6b 24 b8  	str	w1, [x25, x4]
    f41c: dd ff ff 17  	b	0xf390 <bpf_program__get_prog_info_linear+0x180>
    f420: e2 03 1b aa  	mov	x2, x27
    f424: e0 03 17 2a  	mov	w0, w23
    f428: e1 03 19 aa  	mov	x1, x25
    f42c: 00 00 00 94  	bl	0xf42c <bpf_program__get_prog_info_linear+0x21c>
    f430: f5 03 00 2a  	mov	w21, w0
    f434: 80 09 00 35  	cbnz	w0, 0xf564 <bpf_program__get_prog_info_linear+0x354>
    f438: 1b 00 00 90  	adrp	x27, 0xf000 <bpf_program__get_prog_info_linear+0x228>
    f43c: 7b 03 00 91  	add	x27, x27, #0
    f440: 17 00 00 90  	adrp	x23, 0xf000 <bpf_program__get_prog_info_linear+0x230>
    f444: 7b c3 04 91  	add	x27, x27, #304
    f448: f7 02 00 91  	add	x23, x23, #0
    f44c: 07 00 00 14  	b	0xf468 <bpf_program__get_prog_info_linear+0x258>
    f450: 40 0b 40 b9  	ldr	w0, [x26, #8]
    f454: 00 03 f8 36  	tbz	w0, #31, 0xf4b4 <bpf_program__get_prog_info_linear+0x2a4>
    f458: b5 06 00 11  	add	w21, w21, #1
    f45c: 5a 33 00 91  	add	x26, x26, #12
    f460: bf 26 00 71  	cmp	w21, #9
    f464: 40 04 00 54  	b.eq	0xf4ec <bpf_program__get_prog_info_linear+0x2dc>
    f468: 20 00 80 d2  	mov	x0, #1
    f46c: 00 20 d5 9a  	lsl	x0, x0, x21
    f470: 1f 00 13 ea  	tst	x0, x19
    f474: 20 ff ff 54  	b.eq	0xf458 <bpf_program__get_prog_info_linear+0x248>
    f478: 40 07 40 b9  	ldr	w0, [x26, #4]
    f47c: a0 fe ff 37  	tbnz	w0, #31, 0xf450 <bpf_program__get_prog_info_linear+0x240>
    f480: 00 7c 40 93  	sxtw	x0, w0
    f484: 00 f4 7e 92  	and	x0, x0, #0xfffffffffffffffc
    f488: 21 6b 60 b8  	ldr	w1, [x25, x0]
    f48c: 80 6a 60 b8  	ldr	w0, [x20, x0]
    f490: 3f 00 00 6b  	cmp	w1, w0
    f494: e0 fd ff 54  	b.eq	0xf450 <bpf_program__get_prog_info_linear+0x240>
    f498: 00 00 80 52  	mov	w0, #0
    f49c: e2 03 1b aa  	mov	x2, x27
    f4a0: 01 00 00 90  	adrp	x1, 0xf000 <bpf_program__get_prog_info_linear+0x290>
    f4a4: 21 00 00 91  	add	x1, x1, #0
    f4a8: 00 00 00 94  	bl	0xf4a8 <bpf_program__get_prog_info_linear+0x298>
    f4ac: 40 0b 40 b9  	ldr	w0, [x26, #8]
    f4b0: 40 fd ff 37  	tbnz	w0, #31, 0xf458 <bpf_program__get_prog_info_linear+0x248>
    f4b4: 00 7c 40 93  	sxtw	x0, w0
    f4b8: 00 f4 7e 92  	and	x0, x0, #0xfffffffffffffffc
    f4bc: 21 6b 60 b8  	ldr	w1, [x25, x0]
    f4c0: 80 6a 60 b8  	ldr	w0, [x20, x0]
    f4c4: 3f 00 00 6b  	cmp	w1, w0
    f4c8: 80 fc ff 54  	b.eq	0xf458 <bpf_program__get_prog_info_linear+0x248>
    f4cc: e2 03 1b aa  	mov	x2, x27
    f4d0: e1 03 17 aa  	mov	x1, x23
    f4d4: 00 00 80 52  	mov	w0, #0
    f4d8: b5 06 00 11  	add	w21, w21, #1
    f4dc: 00 00 00 94  	bl	0xf4dc <bpf_program__get_prog_info_linear+0x2cc>
    f4e0: 5a 33 00 91  	add	x26, x26, #12
    f4e4: bf 26 00 71  	cmp	w21, #9
    f4e8: 01 fc ff 54  	b.ne	0xf468 <bpf_program__get_prog_info_linear+0x258>
    f4ec: 00 1b 80 52  	mov	w0, #216
    f4f0: f9 6b 44 a9  	ldp	x25, x26, [sp, #64]
    f4f4: fb 2b 40 f9  	ldr	x27, [sp, #80]
    f4f8: 00 5b 00 29  	stp	w0, w22, [x24]
    f4fc: f5 5b 42 a9  	ldp	x21, x22, [sp, #32]
    f500: 00 00 00 90  	adrp	x0, 0xf000 <bpf_program__get_prog_info_linear+0x2f0>
    f504: 00 00 40 f9  	ldr	x0, [x0]
    f508: e2 a7 40 f9  	ldr	x2, [sp, #328]
    f50c: 01 00 40 f9  	ldr	x1, [x0]
    f510: 42 00 01 eb  	subs	x2, x2, x1
    f514: 01 00 80 d2  	mov	x1, #0
    f518: e1 07 00 54  	b.ne	0xf614 <bpf_program__get_prog_info_linear+0x404>
    f51c: e0 03 18 aa  	mov	x0, x24
    f520: f3 53 41 a9  	ldp	x19, x20, [sp, #16]
    f524: f7 63 43 a9  	ldp	x23, x24, [sp, #48]
    f528: fd 7b d5 a8  	ldp	x29, x30, [sp], #336
    f52c: c0 03 5f d6  	ret
    f530: 42 7c 40 93  	sxtw	x2, w2
    f534: 42 f4 7e 92  	and	x2, x2, #0xfffffffffffffffc
    f538: 83 6a 62 b8  	ldr	w3, [x20, x2]
    f53c: 76 ff ff 17  	b	0xf314 <bpf_program__get_prog_info_linear+0x104>
    f540: 00 00 00 94  	bl	0xf540 <bpf_program__get_prog_info_linear+0x330>
    f544: b8 02 80 92  	mov	x24, #-22
    f548: c2 02 80 52  	mov	w2, #22
    f54c: 01 00 00 90  	adrp	x1, 0xf000 <bpf_program__get_prog_info_linear+0x33c>
    f550: 02 00 00 b9  	str	w2, [x0]
    f554: 20 00 40 b9  	ldr	w0, [x1]
    f558: 40 fd 07 36  	tbz	w0, #0, 0xf500 <bpf_program__get_prog_info_linear+0x2f0>
    f55c: 18 00 80 d2  	mov	x24, #0
    f560: e8 ff ff 17  	b	0xf500 <bpf_program__get_prog_info_linear+0x2f0>
    f564: 00 00 00 94  	bl	0xf564 <bpf_program__get_prog_info_linear+0x354>
    f568: f3 03 00 aa  	mov	x19, x0
    f56c: 00 00 40 b9  	ldr	w0, [x0]
    f570: 00 00 00 94  	bl	0xf570 <bpf_program__get_prog_info_linear+0x360>
    f574: e2 03 00 aa  	mov	x2, x0
    f578: 01 00 00 90  	adrp	x1, 0xf000 <bpf_program__get_prog_info_linear+0x368>
    f57c: 21 00 00 91  	add	x1, x1, #0
    f580: 40 00 80 52  	mov	w0, #2
    f584: 00 00 00 94  	bl	0xf584 <bpf_program__get_prog_info_linear+0x374>
    f588: e0 03 18 aa  	mov	x0, x24
    f58c: 00 00 00 94  	bl	0xf58c <bpf_program__get_prog_info_linear+0x37c>
    f590: c1 01 80 52  	mov	w1, #14
    f594: 00 00 00 90  	adrp	x0, 0xf000 <bpf_program__get_prog_info_linear+0x384>
    f598: 61 02 00 b9  	str	w1, [x19]
    f59c: 00 00 40 b9  	ldr	w0, [x0]
    f5a0: 00 03 00 37  	tbnz	w0, #0, 0xf600 <bpf_program__get_prog_info_linear+0x3f0>
    f5a4: f9 6b 44 a9  	ldp	x25, x26, [sp, #64]
    f5a8: b8 01 80 92  	mov	x24, #-14
    f5ac: f5 5b 42 a9  	ldp	x21, x22, [sp, #32]
    f5b0: fb 2b 40 f9  	ldr	x27, [sp, #80]
    f5b4: d3 ff ff 17  	b	0xf500 <bpf_program__get_prog_info_linear+0x2f0>
    f5b8: 00 00 00 94  	bl	0xf5b8 <bpf_program__get_prog_info_linear+0x3a8>
    f5bc: f3 03 00 aa  	mov	x19, x0
    f5c0: 00 00 40 b9  	ldr	w0, [x0]
    f5c4: 00 00 00 94  	bl	0xf5c4 <bpf_program__get_prog_info_linear+0x3b4>
    f5c8: e2 03 00 aa  	mov	x2, x0
    f5cc: 01 00 00 90  	adrp	x1, 0xf000 <bpf_program__get_prog_info_linear+0x3bc>
    f5d0: 40 00 80 52  	mov	w0, #2
    f5d4: 21 00 00 91  	add	x1, x1, #0
    f5d8: 00 00 00 94  	bl	0xf5d8 <bpf_program__get_prog_info_linear+0x3c8>
    f5dc: c1 01 80 52  	mov	w1, #14
    f5e0: 00 00 00 90  	adrp	x0, 0xf000 <bpf_program__get_prog_info_linear+0x3d0>
    f5e4: 61 02 00 b9  	str	w1, [x19]
    f5e8: 00 00 40 b9  	ldr	w0, [x0]
    f5ec: e0 fd 07 36  	tbz	w0, #0, 0xf5a8 <bpf_program__get_prog_info_linear+0x398>
    f5f0: 18 00 80 d2  	mov	x24, #0
    f5f4: f5 5b 42 a9  	ldp	x21, x22, [sp, #32]
    f5f8: fb 2b 40 f9  	ldr	x27, [sp, #80]
    f5fc: c1 ff ff 17  	b	0xf500 <bpf_program__get_prog_info_linear+0x2f0>
    f600: 18 00 80 d2  	mov	x24, #0
    f604: f5 5b 42 a9  	ldp	x21, x22, [sp, #32]
    f608: f9 6b 44 a9  	ldp	x25, x26, [sp, #64]
    f60c: fb 2b 40 f9  	ldr	x27, [sp, #80]
    f610: bc ff ff 17  	b	0xf500 <bpf_program__get_prog_info_linear+0x2f0>
    f614: f5 5b 02 a9  	stp	x21, x22, [sp, #32]
    f618: f9 6b 04 a9  	stp	x25, x26, [sp, #64]
    f61c: fb 2b 00 f9  	str	x27, [sp, #80]
    f620: 00 00 00 94  	bl	0xf620 <bpf_program__get_prog_info_linear+0x410>
    f624: 60 01 80 12  	mov	w0, #-12
    f628: 02 c3 ff 97  	bl	0x230 <libbpf_err_ptr>
    f62c: f8 03 00 aa  	mov	x24, x0
    f630: f5 5b 42 a9  	ldp	x21, x22, [sp, #32]
    f634: f9 6b 44 a9  	ldp	x25, x26, [sp, #64]
    f638: fb 2b 40 f9  	ldr	x27, [sp, #80]
    f63c: b1 ff ff 17  	b	0xf500 <bpf_program__get_prog_info_linear+0x2f0>

000000000000f640 <libbpf_find_prog_btf_id>:
    f640: fd 7b bd a9  	stp	x29, x30, [sp, #-48]!
    f644: fd 03 00 91  	mov	x29, sp
    f648: f3 53 01 a9  	stp	x19, x20, [sp, #16]
    f64c: f5 5b 02 a9  	stp	x21, x22, [sp, #32]
    f650: f5 03 01 2a  	mov	w21, w1
    f654: f6 03 00 aa  	mov	x22, x0
    f658: e0 03 01 2a  	mov	w0, w1
    f65c: 01 00 80 d2  	mov	x1, #0
    f660: 00 00 00 94  	bl	0xf660 <libbpf_find_prog_btf_id+0x20>
    f664: f3 03 00 aa  	mov	x19, x0
    f668: 00 05 00 b4  	cbz	x0, 0xf708 <libbpf_find_prog_btf_id+0xc8>
    f66c: 1f 04 40 b1  	cmn	x0, #1, lsl #12         // =4096
    f670: 88 06 00 54  	b.hi	0xf740 <libbpf_find_prog_btf_id+0x100>
    f674: 60 92 40 b9  	ldr	w0, [x19, #144]
    f678: c0 02 00 34  	cbz	w0, 0xf6d0 <libbpf_find_prog_btf_id+0x90>
    f67c: 00 00 00 94  	bl	0xf67c <libbpf_find_prog_btf_id+0x3c>
    f680: f5 03 00 aa  	mov	x21, x0
    f684: 00 03 00 b4  	cbz	x0, 0xf6e4 <libbpf_find_prog_btf_id+0xa4>
    f688: 1f 04 40 b1  	cmn	x0, #1, lsl #12         // =4096
    f68c: e8 06 00 54  	b.hi	0xf768 <libbpf_find_prog_btf_id+0x128>
    f690: e1 03 16 aa  	mov	x1, x22
    f694: 82 01 80 52  	mov	w2, #12
    f698: e0 03 15 aa  	mov	x0, x21
    f69c: 00 00 00 94  	bl	0xf69c <libbpf_find_prog_btf_id+0x5c>
    f6a0: f4 03 00 2a  	mov	w20, w0
    f6a4: e0 03 15 aa  	mov	x0, x21
    f6a8: 00 00 00 94  	bl	0xf6a8 <libbpf_find_prog_btf_id+0x68>
    f6ac: 9f 02 00 71  	cmp	w20, #0
    f6b0: 0d 05 00 54  	b.le	0xf750 <libbpf_find_prog_btf_id+0x110>
    f6b4: e0 03 13 aa  	mov	x0, x19
    f6b8: 00 00 00 94  	bl	0xf6b8 <libbpf_find_prog_btf_id+0x78>
    f6bc: e0 03 14 2a  	mov	w0, w20
    f6c0: f3 53 41 a9  	ldp	x19, x20, [sp, #16]
    f6c4: f5 5b 42 a9  	ldp	x21, x22, [sp, #32]
    f6c8: fd 7b c3 a8  	ldp	x29, x30, [sp], #48
    f6cc: c0 03 5f d6  	ret
    f6d0: 01 00 00 90  	adrp	x1, 0xf000 <libbpf_find_prog_btf_id+0x90>
    f6d4: b4 02 80 12  	mov	w20, #-22
    f6d8: 21 00 00 91  	add	x1, x1, #0
    f6dc: 00 00 00 94  	bl	0xf6dc <libbpf_find_prog_btf_id+0x9c>
    f6e0: f5 ff ff 17  	b	0xf6b4 <libbpf_find_prog_btf_id+0x74>
    f6e4: 00 00 00 94  	bl	0xf6e4 <libbpf_find_prog_btf_id+0xa4>
    f6e8: 01 00 40 b9  	ldr	w1, [x0]
    f6ec: 21 fd ff 34  	cbz	w1, 0xf690 <libbpf_find_prog_btf_id+0x50>
    f6f0: 01 00 00 90  	adrp	x1, 0xf000 <libbpf_find_prog_btf_id+0xb0>
    f6f4: 00 00 80 52  	mov	w0, #0
    f6f8: 21 00 00 91  	add	x1, x1, #0
    f6fc: b4 02 80 12  	mov	w20, #-22
    f700: 00 00 00 94  	bl	0xf700 <libbpf_find_prog_btf_id+0xc0>
    f704: ec ff ff 17  	b	0xf6b4 <libbpf_find_prog_btf_id+0x74>
    f708: 00 00 00 94  	bl	0xf708 <libbpf_find_prog_btf_id+0xc8>
    f70c: 14 00 40 b9  	ldr	w20, [x0]
    f710: 34 fb ff 34  	cbz	w20, 0xf674 <libbpf_find_prog_btf_id+0x34>
    f714: e2 03 15 2a  	mov	w2, w21
    f718: f4 03 14 4b  	neg	w20, w20
    f71c: 00 00 80 52  	mov	w0, #0
    f720: 01 00 00 90  	adrp	x1, 0xf000 <libbpf_find_prog_btf_id+0xe0>
    f724: 21 00 00 91  	add	x1, x1, #0
    f728: 00 00 00 94  	bl	0xf728 <libbpf_find_prog_btf_id+0xe8>
    f72c: e0 03 14 2a  	mov	w0, w20
    f730: f3 53 41 a9  	ldp	x19, x20, [sp, #16]
    f734: f5 5b 42 a9  	ldp	x21, x22, [sp, #32]
    f738: fd 7b c3 a8  	ldp	x29, x30, [sp], #48
    f73c: c0 03 5f d6  	ret
    f740: f4 03 13 4b  	neg	w20, w19
    f744: 00 00 00 94  	bl	0xf744 <libbpf_find_prog_btf_id+0x104>
    f748: 14 00 00 b9  	str	w20, [x0]
    f74c: f1 ff ff 17  	b	0xf710 <libbpf_find_prog_btf_id+0xd0>
    f750: e2 03 16 aa  	mov	x2, x22
    f754: 01 00 00 90  	adrp	x1, 0xf000 <libbpf_find_prog_btf_id+0x114>
    f758: 00 00 80 52  	mov	w0, #0
    f75c: 21 00 00 91  	add	x1, x1, #0
    f760: 00 00 00 94  	bl	0xf760 <libbpf_find_prog_btf_id+0x120>
    f764: d4 ff ff 17  	b	0xf6b4 <libbpf_find_prog_btf_id+0x74>
    f768: 00 00 00 94  	bl	0xf768 <libbpf_find_prog_btf_id+0x128>
    f76c: e1 03 15 4b  	neg	w1, w21
    f770: 01 00 00 b9  	str	w1, [x0]
    f774: de ff ff 17  	b	0xf6ec <libbpf_find_prog_btf_id+0xac>
    f778: 1f 20 03 d5  	nop
    f77c: 1f 20 03 d5  	nop

000000000000f780 <bpf_program__attach_freplace>:
    f780: fd 7b bd a9  	stp	x29, x30, [sp, #-48]!
    f784: 3f 00 00 71  	cmp	w1, #0
    f788: e4 07 9f 1a  	cset	w4, ne
    f78c: fd 03 00 91  	mov	x29, sp
    f790: 5f 00 00 f1  	cmp	x2, #0
    f794: e3 07 9f 1a  	cset	w3, ne
    f798: f3 53 01 a9  	stp	x19, x20, [sp, #16]
    f79c: f4 03 00 aa  	mov	x20, x0
    f7a0: 9f 00 03 6b  	cmp	w4, w3
    f7a4: 61 04 00 54  	b.ne	0xf830 <bpf_program__attach_freplace+0xb0>
    f7a8: 03 94 40 b9  	ldr	w3, [x0, #148]
    f7ac: 7f 70 00 71  	cmp	w3, #28
    f7b0: 21 02 00 54  	b.ne	0xf7f4 <bpf_program__attach_freplace+0x74>
    f7b4: f3 03 01 2a  	mov	w19, w1
    f7b8: a1 05 00 34  	cbz	w1, 0xf86c <bpf_program__attach_freplace+0xec>
    f7bc: e0 03 02 aa  	mov	x0, x2
    f7c0: f5 13 00 f9  	str	x21, [sp, #32]
    f7c4: 9f ff ff 97  	bl	0xf640 <libbpf_find_prog_btf_id>
    f7c8: f5 03 00 2a  	mov	w21, w0
    f7cc: a0 03 f8 37  	tbnz	w0, #31, 0xf840 <bpf_program__attach_freplace+0xc0>
    f7d0: e2 03 00 2a  	mov	w2, w0
    f7d4: e1 03 13 2a  	mov	w1, w19
    f7d8: e0 03 14 aa  	mov	x0, x20
    f7dc: 03 00 00 90  	adrp	x3, 0xf000 <bpf_program__attach_freplace+0x5c>
    f7e0: f3 53 41 a9  	ldp	x19, x20, [sp, #16]
    f7e4: 63 00 00 91  	add	x3, x3, #0
    f7e8: f5 13 40 f9  	ldr	x21, [sp, #32]
    f7ec: fd 7b c3 a8  	ldp	x29, x30, [sp], #48
    f7f0: 70 e4 ff 17  	b	0x89b0 <bpf_program__attach_fd>
    f7f4: 02 18 40 f9  	ldr	x2, [x0, #48]
    f7f8: 01 00 00 90  	adrp	x1, 0xf000 <bpf_program__attach_freplace+0x78>
    f7fc: 21 00 00 91  	add	x1, x1, #0
    f800: 00 00 80 52  	mov	w0, #0
    f804: 00 00 00 94  	bl	0xf804 <bpf_program__attach_freplace+0x84>
    f808: 00 00 00 94  	bl	0xf808 <bpf_program__attach_freplace+0x88>
    f80c: c2 02 80 52  	mov	w2, #22
    f810: 01 00 00 90  	adrp	x1, 0xf000 <bpf_program__attach_freplace+0x90>
    f814: 02 00 00 b9  	str	w2, [x0]
    f818: 20 00 40 b9  	ldr	w0, [x1]
    f81c: 00 03 00 37  	tbnz	w0, #0, 0xf87c <bpf_program__attach_freplace+0xfc>
    f820: a0 02 80 92  	mov	x0, #-22
    f824: f3 53 41 a9  	ldp	x19, x20, [sp, #16]
    f828: fd 7b c3 a8  	ldp	x29, x30, [sp], #48
    f82c: c0 03 5f d6  	ret
    f830: 01 00 00 90  	adrp	x1, 0xf000 <bpf_program__attach_freplace+0xb0>
    f834: 21 00 00 91  	add	x1, x1, #0
    f838: 02 18 40 f9  	ldr	x2, [x0, #48]
    f83c: f1 ff ff 17  	b	0xf800 <bpf_program__attach_freplace+0x80>
    f840: 00 00 00 94  	bl	0xf840 <bpf_program__attach_freplace+0xc0>
    f844: e2 03 15 4b  	neg	w2, w21
    f848: 01 00 00 90  	adrp	x1, 0xf000 <bpf_program__attach_freplace+0xc8>
    f84c: 02 00 00 b9  	str	w2, [x0]
    f850: 20 00 40 b9  	ldr	w0, [x1]
    f854: 20 01 00 37  	tbnz	w0, #0, 0xf878 <bpf_program__attach_freplace+0xf8>
    f858: a0 7e 40 93  	sxtw	x0, w21
    f85c: f3 53 41 a9  	ldp	x19, x20, [sp, #16]
    f860: f5 13 40 f9  	ldr	x21, [sp, #32]
    f864: fd 7b c3 a8  	ldp	x29, x30, [sp], #48
    f868: c0 03 5f d6  	ret
    f86c: f3 53 41 a9  	ldp	x19, x20, [sp, #16]
    f870: fd 7b c3 a8  	ldp	x29, x30, [sp], #48
    f874: ec e3 ff 17  	b	0x8824 <bpf_program__attach_btf_id>
    f878: f5 13 40 f9  	ldr	x21, [sp, #32]
    f87c: 00 00 80 d2  	mov	x0, #0
    f880: f3 53 41 a9  	ldp	x19, x20, [sp, #16]
    f884: fd 7b c3 a8  	ldp	x29, x30, [sp], #48
    f888: c0 03 5f d6  	ret
    f88c: 1f 20 03 d5  	nop

000000000000f890 <bpf_program__load>:
    f890: fd 7b b7 a9  	stp	x29, x30, [sp, #-144]!
    f894: 03 00 00 90  	adrp	x3, 0xf000 <bpf_program__load+0x4>
    f898: fd 03 00 91  	mov	x29, sp
    f89c: 63 00 40 f9  	ldr	x3, [x3]
    f8a0: f5 5b 02 a9  	stp	x21, x22, [sp, #32]
    f8a4: 15 3c 40 f9  	ldr	x21, [x0, #120]
    f8a8: f3 53 01 a9  	stp	x19, x20, [sp, #16]
    f8ac: f3 03 00 aa  	mov	x19, x0
    f8b0: 60 00 40 f9  	ldr	x0, [x3]
    f8b4: e0 47 00 f9  	str	x0, [sp, #136]
    f8b8: 00 00 80 d2  	mov	x0, #0
    f8bc: a0 72 42 39  	ldrb	w0, [x21, #156]
    f8c0: e0 22 00 35  	cbnz	w0, 0xfd1c <bpf_program__load+0x48c>
    f8c4: 60 96 40 b9  	ldr	w0, [x19, #148]
    f8c8: f7 63 03 a9  	stp	x23, x24, [sp, #48]
    f8cc: f8 03 01 aa  	mov	x24, x1
    f8d0: 01 70 00 51  	sub	w1, w0, #28
    f8d4: f9 6b 04 a9  	stp	x25, x26, [sp, #64]
    f8d8: 3f 04 00 71  	cmp	w1, #1
    f8dc: f9 03 02 2a  	mov	w25, w2
    f8e0: 04 88 5a 7a  	ccmp	w0, #26, #4, hi
    f8e4: 61 00 00 54  	b.ne	0xf8f0 <bpf_program__load+0x60>
    f8e8: 60 a6 40 b9  	ldr	w0, [x19, #164]
    f8ec: e0 10 00 34  	cbz	w0, 0xfb08 <bpf_program__load+0x278>
    f8f0: 63 62 40 b9  	ldr	w3, [x19, #96]
    f8f4: 65 3a 40 f9  	ldr	x5, [x19, #112]
    f8f8: 23 0a f8 37  	tbnz	w3, #31, 0xfa3c <bpf_program__load+0x1ac>
    f8fc: 60 36 40 f9  	ldr	x0, [x19, #104]
    f900: fb 73 05 a9  	stp	x27, x28, [sp, #80]
    f904: a0 09 00 b4  	cbz	x0, 0xfa38 <bpf_program__load+0x1a8>
    f908: 25 22 00 b4  	cbz	x5, 0xfd4c <bpf_program__load+0x4bc>
    f90c: f5 c3 01 91  	add	x21, sp, #112
    f910: 1c 00 80 d2  	mov	x28, #0
    f914: c3 06 00 34  	cbz	w3, 0xf9ec <bpf_program__load+0x15c>
    f918: 1a 00 00 90  	adrp	x26, 0xf000 <bpf_program__load+0x88>
    f91c: fb b3 01 91  	add	x27, sp, #108
    f920: 5a 03 00 91  	add	x26, x26, #0
    f924: 17 00 80 12  	mov	w23, #-1
    f928: 14 00 00 14  	b	0xf978 <bpf_program__load+0xe8>
    f92c: e5 03 1b aa  	mov	x5, x27
    f930: e4 03 19 2a  	mov	w4, w25
    f934: e3 03 18 aa  	mov	x3, x24
    f938: e0 03 13 aa  	mov	x0, x19
    f93c: ed d1 ff 97  	bl	0x40f0 <load_program>
    f940: f4 03 00 2a  	mov	w20, w0
    f944: a0 18 00 35  	cbnz	w0, 0xfc58 <bpf_program__load+0x3c8>
    f948: e0 43 40 f9  	ldr	x0, [sp, #128]
    f94c: 60 00 00 b4  	cbz	x0, 0xf958 <bpf_program__load+0xc8>
    f950: e1 6f 40 b9  	ldr	w1, [sp, #108]
    f954: 01 00 00 b9  	str	w1, [x0]
    f958: 60 36 40 f9  	ldr	x0, [x19, #104]
    f95c: e1 6f 40 b9  	ldr	w1, [sp, #108]
    f960: 01 78 3c b8  	str	w1, [x0, x28, lsl #2]
    f964: 60 62 40 b9  	ldr	w0, [x19, #96]
    f968: 9c 07 00 91  	add	x28, x28, #1
    f96c: 1f 00 1c 6b  	cmp	w0, w28
    f970: ed 03 00 54  	b.le	0xf9ec <bpf_program__load+0x15c>
    f974: 65 3a 40 f9  	ldr	x5, [x19, #112]
    f978: bf 7e 00 a9  	stp	xzr, xzr, [x21]
    f97c: 63 4a 40 b9  	ldr	w3, [x19, #72]
    f980: 62 22 40 f9  	ldr	x2, [x19, #64]
    f984: bf 0a 00 f9  	str	xzr, [x21, #16]
    f988: e4 03 15 aa  	mov	x4, x21
    f98c: e1 03 1c 2a  	mov	w1, w28
    f990: e0 03 13 aa  	mov	x0, x19
    f994: f6 03 1c 2a  	mov	w22, w28
    f998: a0 00 3f d6  	blr	x5
    f99c: f4 03 00 2a  	mov	w20, w0
    f9a0: a0 0e 00 35  	cbnz	w0, 0xfb74 <bpf_program__load+0x2e4>
    f9a4: e1 3b 40 f9  	ldr	x1, [sp, #112]
    f9a8: 61 00 00 b4  	cbz	x1, 0xf9b4 <bpf_program__load+0x124>
    f9ac: e2 7b 40 b9  	ldr	w2, [sp, #120]
    f9b0: e2 fb ff 35  	cbnz	w2, 0xf92c <bpf_program__load+0x9c>
    f9b4: 63 1a 40 f9  	ldr	x3, [x19, #48]
    f9b8: e1 03 1a aa  	mov	x1, x26
    f9bc: 40 00 80 52  	mov	w0, #2
    f9c0: e2 03 16 2a  	mov	w2, w22
    f9c4: 00 00 00 94  	bl	0xf9c4 <bpf_program__load+0x134>
    f9c8: 61 36 40 f9  	ldr	x1, [x19, #104]
    f9cc: e0 43 40 f9  	ldr	x0, [sp, #128]
    f9d0: 37 78 3c b8  	str	w23, [x1, x28, lsl #2]
    f9d4: 80 fc ff b4  	cbz	x0, 0xf964 <bpf_program__load+0xd4>
    f9d8: 17 00 00 b9  	str	w23, [x0]
    f9dc: 9c 07 00 91  	add	x28, x28, #1
    f9e0: 60 62 40 b9  	ldr	w0, [x19, #96]
    f9e4: 1f 00 1c 6b  	cmp	w0, w28
    f9e8: 6c fc ff 54  	b.gt	0xf974 <bpf_program__load+0xe4>
    f9ec: fb 73 45 a9  	ldp	x27, x28, [sp, #80]
    f9f0: 14 00 80 52  	mov	w20, #0
    f9f4: 60 22 40 f9  	ldr	x0, [x19, #64]
    f9f8: 00 00 00 94  	bl	0xf9f8 <bpf_program__load+0x168>
    f9fc: f7 63 43 a9  	ldp	x23, x24, [sp, #48]
    fa00: f9 6b 44 a9  	ldp	x25, x26, [sp, #64]
    fa04: 7f 7e 04 a9  	stp	xzr, xzr, [x19, #64]
    fa08: 00 00 00 90  	adrp	x0, 0xf000 <bpf_program__load+0x178>
    fa0c: 00 00 40 f9  	ldr	x0, [x0]
    fa10: e2 47 40 f9  	ldr	x2, [sp, #136]
    fa14: 01 00 40 f9  	ldr	x1, [x0]
    fa18: 42 00 01 eb  	subs	x2, x2, x1
    fa1c: 01 00 80 d2  	mov	x1, #0
    fa20: 41 1c 00 54  	b.ne	0xfda8 <bpf_program__load+0x518>
    fa24: e0 03 14 2a  	mov	w0, w20
    fa28: f3 53 41 a9  	ldp	x19, x20, [sp, #16]
    fa2c: f5 5b 42 a9  	ldp	x21, x22, [sp, #32]
    fa30: fd 7b c9 a8  	ldp	x29, x30, [sp], #144
    fa34: c0 03 5f d6  	ret
    fa38: fb 73 45 a9  	ldp	x27, x28, [sp, #80]
    fa3c: 25 14 00 b5  	cbnz	x5, 0xfcc0 <bpf_program__load+0x430>
    fa40: 80 00 80 d2  	mov	x0, #4
    fa44: 00 00 00 94  	bl	0xfa44 <bpf_program__load+0x1b4>
    fa48: 60 36 00 f9  	str	x0, [x19, #104]
    fa4c: c0 19 00 b4  	cbz	x0, 0xfd84 <bpf_program__load+0x4f4>
    fa50: 21 00 80 52  	mov	w1, #1
    fa54: 02 00 80 12  	mov	w2, #-1
    fa58: 02 00 00 b9  	str	w2, [x0]
    fa5c: 61 62 00 b9  	str	w1, [x19, #96]
    fa60: 75 3e 40 f9  	ldr	x21, [x19, #120]
    fa64: a0 52 40 f9  	ldr	x0, [x21, #160]
    fa68: 00 0d 00 b4  	cbz	x0, 0xfc08 <bpf_program__load+0x378>
    fa6c: 65 5a 40 b9  	ldr	w5, [x19, #88]
    fa70: bf 00 00 71  	cmp	w5, #0
    fa74: ad 0c 00 54  	b.le	0xfc08 <bpf_program__load+0x378>
    fa78: 14 00 80 d2  	mov	x20, #0
    fa7c: 16 07 80 52  	mov	w22, #56
    fa80: 0c 00 00 14  	b	0xfab0 <bpf_program__load+0x220>
    fa84: 3f 10 00 71  	cmp	w1, #4
    fa88: e1 00 00 54  	b.ne	0xfaa4 <bpf_program__load+0x214>
    fa8c: 63 04 40 b9  	ldr	w3, [x3, #4]
    fa90: 82 01 80 52  	mov	w2, #12
    fa94: 81 08 40 f9  	ldr	x1, [x4, #16]
    fa98: a0 52 40 f9  	ldr	x0, [x21, #160]
    fa9c: 00 00 00 94  	bl	0xfa9c <bpf_program__load+0x20c>
    faa0: 65 5a 40 b9  	ldr	w5, [x19, #88]
    faa4: 94 06 00 91  	add	x20, x20, #1
    faa8: bf 00 14 6b  	cmp	w5, w20
    faac: ed 0a 00 54  	b.le	0xfc08 <bpf_program__load+0x378>
    fab0: 61 2a 40 f9  	ldr	x1, [x19, #80]
    fab4: 80 ee 7c d3  	lsl	x0, x20, #4
    fab8: a2 46 40 f9  	ldr	x2, [x21, #136]
    fabc: 23 00 00 8b  	add	x3, x1, x0
    fac0: 21 68 60 b8  	ldr	w1, [x1, x0]
    fac4: 60 0c 40 b9  	ldr	w0, [x3, #12]
    fac8: 00 7c 36 9b  	smull	x0, w0, w22
    facc: 44 00 00 8b  	add	x4, x2, x0
    fad0: 3f 0c 00 71  	cmp	w1, #3
    fad4: 81 fd ff 54  	b.ne	0xfa84 <bpf_program__load+0x1f4>
    fad8: 40 68 60 b8  	ldr	w0, [x2, x0]
    fadc: 1f 08 00 71  	cmp	w0, #2
    fae0: 21 fe ff 54  	b.ne	0xfaa4 <bpf_program__load+0x214>
    fae4: 80 30 40 b9  	ldr	w0, [x4, #48]
    fae8: 81 08 40 f9  	ldr	x1, [x4, #16]
    faec: 60 08 00 34  	cbz	w0, 0xfbf8 <bpf_program__load+0x368>
    faf0: 63 04 40 b9  	ldr	w3, [x3, #4]
    faf4: c2 01 80 52  	mov	w2, #14
    faf8: a0 52 40 f9  	ldr	x0, [x21, #160]
    fafc: 00 00 00 94  	bl	0xfafc <bpf_program__load+0x26c>
    fb00: 65 5a 40 b9  	ldr	w5, [x19, #88]
    fb04: e8 ff ff 17  	b	0xfaa4 <bpf_program__load+0x214>
    fb08: 76 06 40 f9  	ldr	x22, [x19, #8]
    fb0c: ff ff 0d 29  	stp	wzr, wzr, [sp, #108]
    fb10: 7a 9a 40 b9  	ldr	w26, [x19, #152]
    fb14: 77 aa 40 b9  	ldr	w23, [x19, #168]
    fb18: 76 11 00 b4  	cbz	x22, 0xfd44 <bpf_program__load+0x4b4>
    fb1c: 14 00 00 90  	adrp	x20, 0xf000 <bpf_program__load+0x28c>
    fb20: 94 02 00 91  	add	x20, x20, #0
    fb24: fb 73 05 a9  	stp	x27, x28, [sp, #80]
    fb28: 9b 42 29 91  	add	x27, x20, #2640
    fb2c: 80 6a 40 39  	ldrb	w0, [x20, #26]
    fb30: e0 04 00 34  	cbz	w0, 0xfbcc <bpf_program__load+0x33c>
    fb34: 81 72 40 a9  	ldp	x1, x28, [x20]
    fb38: e0 03 16 aa  	mov	x0, x22
    fb3c: e2 03 1c aa  	mov	x2, x28
    fb40: 00 00 00 94  	bl	0xfb40 <bpf_program__load+0x2b0>
    fb44: 40 04 00 35  	cbnz	w0, 0xfbcc <bpf_program__load+0x33c>
    fb48: d6 02 1c 8b  	add	x22, x22, x28
    fb4c: 97 07 00 35  	cbnz	w23, 0xfc3c <bpf_program__load+0x3ac>
    fb50: a0 52 40 f9  	ldr	x0, [x21, #160]
    fb54: e2 03 1a 2a  	mov	w2, w26
    fb58: 00 09 00 b4  	cbz	x0, 0xfc78 <bpf_program__load+0x3e8>
    fb5c: 34 00 80 52  	mov	w20, #1
    fb60: e1 03 16 aa  	mov	x1, x22
    fb64: 00 00 00 94  	bl	0xfb64 <bpf_program__load+0x2d4>
    fb68: fb 73 45 a9  	ldp	x27, x28, [sp, #80]
    fb6c: 77 52 14 29  	stp	w23, w20, [x19, #160]
    fb70: 60 ff ff 17  	b	0xf8f0 <bpf_program__load+0x60>
    fb74: 63 1a 40 f9  	ldr	x3, [x19, #48]
    fb78: e2 03 1c 2a  	mov	w2, w28
    fb7c: 01 00 00 90  	adrp	x1, 0xf000 <bpf_program__load+0x2ec>
    fb80: 00 00 80 52  	mov	w0, #0
    fb84: 21 00 00 91  	add	x1, x1, #0
    fb88: 00 00 00 94  	bl	0xfb88 <bpf_program__load+0x2f8>
    fb8c: fb 73 45 a9  	ldp	x27, x28, [sp, #80]
    fb90: 00 00 80 52  	mov	w0, #0
    fb94: 62 1a 40 f9  	ldr	x2, [x19, #48]
    fb98: 01 00 00 90  	adrp	x1, 0xf000 <bpf_program__load+0x308>
    fb9c: 21 00 00 91  	add	x1, x1, #0
    fba0: 00 00 00 94  	bl	0xfba0 <bpf_program__load+0x310>
    fba4: 60 22 40 f9  	ldr	x0, [x19, #64]
    fba8: 00 00 00 94  	bl	0xfba8 <bpf_program__load+0x318>
    fbac: 7f 7e 04 a9  	stp	xzr, xzr, [x19, #64]
    fbb0: 54 0e f8 36  	tbz	w20, #31, 0xfd78 <bpf_program__load+0x4e8>
    fbb4: 00 00 00 94  	bl	0xfbb4 <bpf_program__load+0x324>
    fbb8: e1 03 14 4b  	neg	w1, w20
    fbbc: f7 63 43 a9  	ldp	x23, x24, [sp, #48]
    fbc0: f9 6b 44 a9  	ldp	x25, x26, [sp, #64]
    fbc4: 01 00 00 b9  	str	w1, [x0]
    fbc8: 90 ff ff 17  	b	0xfa08 <bpf_program__load+0x178>
    fbcc: 94 a2 00 91  	add	x20, x20, #40
    fbd0: 7f 03 14 eb  	cmp	x27, x20
    fbd4: c1 fa ff 54  	b.ne	0xfb2c <bpf_program__load+0x29c>
    fbd8: 01 00 00 90  	adrp	x1, 0xf000 <bpf_program__load+0x348>
    fbdc: e2 03 16 aa  	mov	x2, x22
    fbe0: 21 00 00 91  	add	x1, x1, #0
    fbe4: 00 00 80 52  	mov	w0, #0
    fbe8: 54 00 80 12  	mov	w20, #-3
    fbec: 00 00 00 94  	bl	0xfbec <bpf_program__load+0x35c>
    fbf0: fb 73 45 a9  	ldp	x27, x28, [sp, #80]
    fbf4: f0 ff ff 17  	b	0xfbb4 <bpf_program__load+0x324>
    fbf8: e2 03 01 aa  	mov	x2, x1
    fbfc: 01 00 00 90  	adrp	x1, 0xf000 <bpf_program__load+0x36c>
    fc00: 21 00 00 91  	add	x1, x1, #0
    fc04: 00 00 00 94  	bl	0xfc04 <bpf_program__load+0x374>
    fc08: 62 4a 40 b9  	ldr	w2, [x19, #72]
    fc0c: e4 03 19 2a  	mov	w4, w25
    fc10: 61 22 40 f9  	ldr	x1, [x19, #64]
    fc14: e3 03 18 aa  	mov	x3, x24
    fc18: e5 b3 01 91  	add	x5, sp, #108
    fc1c: e0 03 13 aa  	mov	x0, x19
    fc20: 34 d1 ff 97  	bl	0x40f0 <load_program>
    fc24: f4 03 00 2a  	mov	w20, w0
    fc28: 40 fb ff 35  	cbnz	w0, 0xfb90 <bpf_program__load+0x300>
    fc2c: 60 36 40 f9  	ldr	x0, [x19, #104]
    fc30: e1 6f 40 b9  	ldr	w1, [sp, #108]
    fc34: 01 00 00 b9  	str	w1, [x0]
    fc38: 6e ff ff 17  	b	0xf9f0 <bpf_program__load+0x160>
    fc3c: e1 03 17 2a  	mov	w1, w23
    fc40: e0 03 16 aa  	mov	x0, x22
    fc44: 7f fe ff 97  	bl	0xf640 <libbpf_find_prog_btf_id>
    fc48: f4 03 00 2a  	mov	w20, w0
    fc4c: 80 02 f8 37  	tbnz	w0, #31, 0xfc9c <bpf_program__load+0x40c>
    fc50: 17 00 80 52  	mov	w23, #0
    fc54: c5 ff ff 17  	b	0xfb68 <bpf_program__load+0x2d8>
    fc58: 63 1a 40 f9  	ldr	x3, [x19, #48]
    fc5c: e2 03 1c 2a  	mov	w2, w28
    fc60: 01 00 00 90  	adrp	x1, 0xf000 <bpf_program__load+0x3d0>
    fc64: 00 00 80 52  	mov	w0, #0
    fc68: 21 00 00 91  	add	x1, x1, #0
    fc6c: 00 00 00 94  	bl	0xfc6c <bpf_program__load+0x3dc>
    fc70: fb 73 45 a9  	ldp	x27, x28, [sp, #80]
    fc74: c7 ff ff 17  	b	0xfb90 <bpf_program__load+0x300>
    fc78: e0 03 15 aa  	mov	x0, x21
    fc7c: e4 c3 01 91  	add	x4, sp, #112
    fc80: e3 b3 01 91  	add	x3, sp, #108
    fc84: e1 03 16 aa  	mov	x1, x22
    fc88: ea d2 ff 97  	bl	0x4830 <find_kernel_btf_id>
    fc8c: f4 03 00 2a  	mov	w20, w0
    fc90: 00 03 00 35  	cbnz	w0, 0xfcf0 <bpf_program__load+0x460>
    fc94: f7 d3 4d 29  	ldp	w23, w20, [sp, #108]
    fc98: b4 ff ff 17  	b	0xfb68 <bpf_program__load+0x2d8>
    fc9c: e4 03 00 2a  	mov	w4, w0
    fca0: e3 03 16 aa  	mov	x3, x22
    fca4: e2 03 17 2a  	mov	w2, w23
    fca8: 01 00 00 90  	adrp	x1, 0xf000 <bpf_program__load+0x418>
    fcac: 00 00 80 52  	mov	w0, #0
    fcb0: 21 00 00 91  	add	x1, x1, #0
    fcb4: 00 00 00 94  	bl	0xfcb4 <bpf_program__load+0x424>
    fcb8: fb 73 45 a9  	ldp	x27, x28, [sp, #80]
    fcbc: be ff ff 17  	b	0xfbb4 <bpf_program__load+0x324>
    fcc0: 62 1a 40 f9  	ldr	x2, [x19, #48]
    fcc4: 01 00 00 90  	adrp	x1, 0xf000 <bpf_program__load+0x434>
    fcc8: 21 00 00 91  	add	x1, x1, #0
    fccc: 00 00 80 52  	mov	w0, #0
    fcd0: 74 f4 81 12  	mov	w20, #-4004
    fcd4: 00 00 00 94  	bl	0xfcd4 <bpf_program__load+0x444>
    fcd8: 00 00 00 94  	bl	0xfcd8 <bpf_program__load+0x448>
    fcdc: 81 f4 81 52  	mov	w1, #4004
    fce0: f7 63 43 a9  	ldp	x23, x24, [sp, #48]
    fce4: f9 6b 44 a9  	ldp	x25, x26, [sp, #64]
    fce8: 01 00 00 b9  	str	w1, [x0]
    fcec: 47 ff ff 17  	b	0xfa08 <bpf_program__load+0x178>
    fcf0: e3 03 00 2a  	mov	w3, w0
    fcf4: 01 00 00 90  	adrp	x1, 0xf000 <bpf_program__load+0x464>
    fcf8: e2 03 16 aa  	mov	x2, x22
    fcfc: 21 00 00 91  	add	x1, x1, #0
    fd00: 00 00 80 52  	mov	w0, #0
    fd04: 00 00 00 94  	bl	0xfd04 <bpf_program__load+0x474>
    fd08: 54 f7 ff 37  	tbnz	w20, #31, 0xfbf0 <bpf_program__load+0x360>
    fd0c: f7 63 43 a9  	ldp	x23, x24, [sp, #48]
    fd10: f9 6b 44 a9  	ldp	x25, x26, [sp, #64]
    fd14: fb 73 45 a9  	ldp	x27, x28, [sp, #80]
    fd18: 3c ff ff 17  	b	0xfa08 <bpf_program__load+0x178>
    fd1c: 62 1a 40 f9  	ldr	x2, [x19, #48]
    fd20: 01 00 00 90  	adrp	x1, 0xf000 <bpf_program__load+0x490>
    fd24: 21 00 00 91  	add	x1, x1, #0
    fd28: 00 00 80 52  	mov	w0, #0
    fd2c: b4 02 80 12  	mov	w20, #-22
    fd30: 00 00 00 94  	bl	0xfd30 <bpf_program__load+0x4a0>
    fd34: 00 00 00 94  	bl	0xfd34 <bpf_program__load+0x4a4>
    fd38: c1 02 80 52  	mov	w1, #22
    fd3c: 01 00 00 b9  	str	w1, [x0]
    fd40: 32 ff ff 17  	b	0xfa08 <bpf_program__load+0x178>
    fd44: b4 02 80 12  	mov	w20, #-22
    fd48: 9b ff ff 17  	b	0xfbb4 <bpf_program__load+0x324>
    fd4c: 7f 04 00 71  	cmp	w3, #1
    fd50: 61 00 00 54  	b.ne	0xfd5c <bpf_program__load+0x4cc>
    fd54: fb 73 45 a9  	ldp	x27, x28, [sp, #80]
    fd58: 42 ff ff 17  	b	0xfa60 <bpf_program__load+0x1d0>
    fd5c: 62 1a 40 f9  	ldr	x2, [x19, #48]
    fd60: 01 00 00 90  	adrp	x1, 0xf000 <bpf_program__load+0x4d0>
    fd64: 00 00 80 52  	mov	w0, #0
    fd68: 21 00 00 91  	add	x1, x1, #0
    fd6c: 00 00 00 94  	bl	0xfd6c <bpf_program__load+0x4dc>
    fd70: fb 73 45 a9  	ldp	x27, x28, [sp, #80]
    fd74: 3b ff ff 17  	b	0xfa60 <bpf_program__load+0x1d0>
    fd78: f7 63 43 a9  	ldp	x23, x24, [sp, #48]
    fd7c: f9 6b 44 a9  	ldp	x25, x26, [sp, #64]
    fd80: 22 ff ff 17  	b	0xfa08 <bpf_program__load+0x178>
    fd84: 01 00 00 90  	adrp	x1, 0xf000 <bpf_program__load+0x4f4>
    fd88: 21 00 00 91  	add	x1, x1, #0
    fd8c: 00 00 00 94  	bl	0xfd8c <bpf_program__load+0x4fc>
    fd90: 60 01 80 12  	mov	w0, #-12
    fd94: f4 03 00 2a  	mov	w20, w0
    fd98: a2 c3 ff 97  	bl	0xc20 <libbpf_err.part.0>
    fd9c: f7 63 43 a9  	ldp	x23, x24, [sp, #48]
    fda0: f9 6b 44 a9  	ldp	x25, x26, [sp, #64]
    fda4: 19 ff ff 17  	b	0xfa08 <bpf_program__load+0x178>
    fda8: f7 63 03 a9  	stp	x23, x24, [sp, #48]
    fdac: f9 6b 04 a9  	stp	x25, x26, [sp, #64]
    fdb0: fb 73 05 a9  	stp	x27, x28, [sp, #80]
    fdb4: 00 00 00 94  	bl	0xfdb4 <bpf_program__load+0x524>
    fdb8: 1f 20 03 d5  	nop
    fdbc: 1f 20 03 d5  	nop

000000000000fdc0 <bpf_program__bpil_addr_to_offs>:
    fdc0: 03 00 00 90  	adrp	x3, 0xf000 <bpf_program__bpil_addr_to_offs>
    fdc4: 06 40 00 91  	add	x6, x0, #16
    fdc8: 63 00 00 91  	add	x3, x3, #0
    fdcc: 07 a0 03 91  	add	x7, x0, #232
    fdd0: 01 00 80 52  	mov	w1, #0
    fdd4: 25 00 80 d2  	mov	x5, #1
    fdd8: 04 04 40 f9  	ldr	x4, [x0, #8]
    fddc: a2 20 c1 9a  	lsl	x2, x5, x1
    fde0: 21 04 00 11  	add	w1, w1, #1
    fde4: 5f 00 04 ea  	tst	x2, x4
    fde8: 00 01 00 54  	b.eq	0xfe08 <bpf_program__bpil_addr_to_offs+0x48>
    fdec: 64 00 40 b9  	ldr	w4, [x3]
    fdf0: 82 7c 40 93  	sxtw	x2, w4
    fdf4: 42 f0 7d 92  	and	x2, x2, #0xfffffffffffffff8
    fdf8: 84 00 f8 37  	tbnz	w4, #31, 0xfe08 <bpf_program__bpil_addr_to_offs+0x48>
    fdfc: c4 68 62 f8  	ldr	x4, [x6, x2]
    fe00: 84 00 07 cb  	sub	x4, x4, x7
    fe04: c4 68 22 f8  	str	x4, [x6, x2]
    fe08: 63 30 00 91  	add	x3, x3, #12
    fe0c: 3f 24 00 71  	cmp	w1, #9
    fe10: 41 fe ff 54  	b.ne	0xfdd8 <bpf_program__bpil_addr_to_offs+0x18>
    fe14: c0 03 5f d6  	ret
    fe18: 1f 20 03 d5  	nop
    fe1c: 1f 20 03 d5  	nop

000000000000fe20 <bpf_program__bpil_offs_to_addr>:
    fe20: 03 00 00 90  	adrp	x3, 0xf000 <bpf_program__bpil_offs_to_addr>
    fe24: 06 40 00 91  	add	x6, x0, #16
    fe28: 63 00 00 91  	add	x3, x3, #0
    fe2c: 07 a0 03 91  	add	x7, x0, #232
    fe30: 01 00 80 52  	mov	w1, #0
    fe34: 25 00 80 d2  	mov	x5, #1
    fe38: 04 04 40 f9  	ldr	x4, [x0, #8]
    fe3c: a2 20 c1 9a  	lsl	x2, x5, x1
    fe40: 21 04 00 11  	add	w1, w1, #1
    fe44: 5f 00 04 ea  	tst	x2, x4
    fe48: 00 01 00 54  	b.eq	0xfe68 <bpf_program__bpil_offs_to_addr+0x48>
    fe4c: 64 00 40 b9  	ldr	w4, [x3]
    fe50: 82 7c 40 93  	sxtw	x2, w4
    fe54: 42 f0 7d 92  	and	x2, x2, #0xfffffffffffffff8
    fe58: 84 00 f8 37  	tbnz	w4, #31, 0xfe68 <bpf_program__bpil_offs_to_addr+0x48>
    fe5c: c4 68 62 f8  	ldr	x4, [x6, x2]
    fe60: 84 00 07 8b  	add	x4, x4, x7
    fe64: c4 68 22 f8  	str	x4, [x6, x2]
    fe68: 63 30 00 91  	add	x3, x3, #12
    fe6c: 3f 24 00 71  	cmp	w1, #9
    fe70: 41 fe ff 54  	b.ne	0xfe38 <bpf_program__bpil_offs_to_addr+0x18>
    fe74: c0 03 5f d6  	ret
    fe78: 1f 20 03 d5  	nop
    fe7c: 1f 20 03 d5  	nop

000000000000fe80 <bpf_program__set_attach_target>:
    fe80: fd 7b bb a9  	stp	x29, x30, [sp, #-80]!
    fe84: 04 00 00 90  	adrp	x4, 0xf000 <bpf_program__set_attach_target+0x4>
    fe88: 3f 00 00 71  	cmp	w1, #0
    fe8c: fd 03 00 91  	mov	x29, sp
    fe90: 84 00 40 f9  	ldr	x4, [x4]
    fe94: f5 5b 02 a9  	stp	x21, x22, [sp, #32]
    fe98: f6 03 02 aa  	mov	x22, x2
    fe9c: 82 00 40 f9  	ldr	x2, [x4]
    fea0: e2 27 00 f9  	str	x2, [sp, #72]
    fea4: 02 00 80 d2  	mov	x2, #0
    fea8: ff 7f 08 29  	stp	wzr, wzr, [sp, #64]
    feac: c4 aa 40 fa  	ccmp	x22, #0, #4, ge
    feb0: 04 18 40 fa  	ccmp	x0, #0, #4, ne
    feb4: 00 0a 00 54  	b.eq	0xfff4 <bpf_program__set_attach_target+0x174>
    feb8: f3 53 01 a9  	stp	x19, x20, [sp, #16]
    febc: f3 03 00 aa  	mov	x19, x0
    fec0: 14 3c 40 f9  	ldr	x20, [x0, #120]
    fec4: 80 72 42 39  	ldrb	w0, [x20, #156]
    fec8: 00 0b 00 35  	cbnz	w0, 0x10028 <bpf_program__set_attach_target+0x1a8>
    fecc: e1 02 00 34  	cbz	w1, 0xff28 <bpf_program__set_attach_target+0xa8>
    fed0: f4 03 01 2a  	mov	w20, w1
    fed4: e0 03 16 aa  	mov	x0, x22
    fed8: da fd ff 97  	bl	0xf640 <libbpf_find_prog_btf_id>
    fedc: e0 47 00 b9  	str	w0, [sp, #68]
    fee0: f5 03 00 2a  	mov	w21, w0
    fee4: c0 05 f8 37  	tbnz	w0, #31, 0xff9c <bpf_program__set_attach_target+0x11c>
    fee8: e0 43 40 b9  	ldr	w0, [sp, #64]
    feec: 60 56 14 29  	stp	w0, w21, [x19, #160]
    fef0: 15 00 80 52  	mov	w21, #0
    fef4: 74 aa 00 b9  	str	w20, [x19, #168]
    fef8: f3 53 41 a9  	ldp	x19, x20, [sp, #16]
    fefc: 00 00 00 90  	adrp	x0, 0xf000 <bpf_program__set_attach_target+0x7c>
    ff00: 00 00 40 f9  	ldr	x0, [x0]
    ff04: e2 27 40 f9  	ldr	x2, [sp, #72]
    ff08: 01 00 40 f9  	ldr	x1, [x0]
    ff0c: 42 00 01 eb  	subs	x2, x2, x1
    ff10: 01 00 80 d2  	mov	x1, #0
    ff14: 61 09 00 54  	b.ne	0x10040 <bpf_program__set_attach_target+0x1c0>
    ff18: e0 03 15 2a  	mov	w0, w21
    ff1c: f5 5b 42 a9  	ldp	x21, x22, [sp, #32]
    ff20: fd 7b c5 a8  	ldp	x29, x30, [sp], #80
    ff24: c0 03 5f d6  	ret
    ff28: 80 ca 40 f9  	ldr	x0, [x20, #400]
    ff2c: a0 01 00 b4  	cbz	x0, 0xff60 <bpf_program__set_attach_target+0xe0>
    ff30: 62 9a 40 b9  	ldr	w2, [x19, #152]
    ff34: e1 03 16 aa  	mov	x1, x22
    ff38: e0 03 14 aa  	mov	x0, x20
    ff3c: e4 13 01 91  	add	x4, sp, #68
    ff40: e3 03 01 91  	add	x3, sp, #64
    ff44: 3b d2 ff 97  	bl	0x4830 <find_kernel_btf_id>
    ff48: f5 03 00 2a  	mov	w21, w0
    ff4c: 1f 00 00 71  	cmp	w0, #0
    ff50: 00 02 00 35  	cbnz	w0, 0xff90 <bpf_program__set_attach_target+0x110>
    ff54: f5 47 40 b9  	ldr	w21, [sp, #68]
    ff58: 14 00 80 52  	mov	w20, #0
    ff5c: e3 ff ff 17  	b	0xfee8 <bpf_program__set_attach_target+0x68>
    ff60: 80 52 40 f9  	ldr	x0, [x20, #160]
    ff64: 60 fe ff b5  	cbnz	x0, 0xff30 <bpf_program__set_attach_target+0xb0>
    ff68: f7 63 03 a9  	stp	x23, x24, [sp, #48]
    ff6c: 00 00 00 94  	bl	0xff6c <bpf_program__set_attach_target+0xec>
    ff70: f7 03 00 aa  	mov	x23, x0
    ff74: 80 ca 00 f9  	str	x0, [x20, #400]
    ff78: c0 01 00 b4  	cbz	x0, 0xffb0 <bpf_program__set_attach_target+0x130>
    ff7c: 1f 04 40 b1  	cmn	x0, #1, lsl #12         // =4096
    ff80: a8 04 00 54  	b.hi	0x10014 <bpf_program__set_attach_target+0x194>
    ff84: f7 63 43 a9  	ldp	x23, x24, [sp, #48]
    ff88: 74 3e 40 f9  	ldr	x20, [x19, #120]
    ff8c: e9 ff ff 17  	b	0xff30 <bpf_program__set_attach_target+0xb0>
    ff90: 6b 00 00 54  	b.lt	0xff9c <bpf_program__set_attach_target+0x11c>
    ff94: f3 53 41 a9  	ldp	x19, x20, [sp, #16]
    ff98: d9 ff ff 17  	b	0xfefc <bpf_program__set_attach_target+0x7c>
    ff9c: 00 00 00 94  	bl	0xff9c <bpf_program__set_attach_target+0x11c>
    ffa0: e1 03 15 4b  	neg	w1, w21
    ffa4: f3 53 41 a9  	ldp	x19, x20, [sp, #16]
    ffa8: 01 00 00 b9  	str	w1, [x0]
    ffac: d4 ff ff 17  	b	0xfefc <bpf_program__set_attach_target+0x7c>
    ffb0: 00 00 00 94  	bl	0xffb0 <bpf_program__set_attach_target+0x130>
    ffb4: 17 00 40 b9  	ldr	w23, [x0]
    ffb8: f8 03 00 aa  	mov	x24, x0
    ffbc: f5 03 17 4b  	neg	w21, w23
    ffc0: 37 fe ff 34  	cbz	w23, 0xff84 <bpf_program__set_attach_target+0x104>
    ffc4: e2 03 15 2a  	mov	w2, w21
    ffc8: 01 00 00 90  	adrp	x1, 0xf000 <bpf_program__set_attach_target+0x148>
    ffcc: 00 00 80 52  	mov	w0, #0
    ffd0: 21 00 00 91  	add	x1, x1, #0
    ffd4: 00 00 00 94  	bl	0xffd4 <bpf_program__set_attach_target+0x154>
    ffd8: 9f ca 00 f9  	str	xzr, [x20, #400]
    ffdc: ff 02 00 71  	cmp	w23, #0
    ffe0: 4d 01 00 54  	b.le	0x10008 <bpf_program__set_attach_target+0x188>
    ffe4: f3 53 41 a9  	ldp	x19, x20, [sp, #16]
    ffe8: 17 03 00 b9  	str	w23, [x24]
    ffec: f7 63 43 a9  	ldp	x23, x24, [sp, #48]
    fff0: c3 ff ff 17  	b	0xfefc <bpf_program__set_attach_target+0x7c>
    fff4: 00 00 00 94  	bl	0xfff4 <bpf_program__set_attach_target+0x174>
    fff8: b5 02 80 12  	mov	w21, #-22
    fffc: c1 02 80 52  	mov	w1, #22
   10000: 01 00 00 b9  	str	w1, [x0]
   10004: be ff ff 17  	b	0xfefc <bpf_program__set_attach_target+0x7c>
   10008: f3 53 41 a9  	ldp	x19, x20, [sp, #16]
   1000c: f7 63 43 a9  	ldp	x23, x24, [sp, #48]
   10010: bb ff ff 17  	b	0xfefc <bpf_program__set_attach_target+0x7c>
   10014: 00 00 00 94  	bl	0x10014 <bpf_program__set_attach_target+0x194>
   10018: f7 03 17 4b  	neg	w23, w23
   1001c: f8 03 00 aa  	mov	x24, x0
   10020: 17 00 00 b9  	str	w23, [x0]
   10024: e6 ff ff 17  	b	0xffbc <bpf_program__set_attach_target+0x13c>
   10028: 00 00 00 94  	bl	0x10028 <bpf_program__set_attach_target+0x1a8>
   1002c: b5 02 80 12  	mov	w21, #-22
   10030: c1 02 80 52  	mov	w1, #22
   10034: f3 53 41 a9  	ldp	x19, x20, [sp, #16]
   10038: 01 00 00 b9  	str	w1, [x0]
   1003c: b0 ff ff 17  	b	0xfefc <bpf_program__set_attach_target+0x7c>
   10040: f3 53 01 a9  	stp	x19, x20, [sp, #16]
   10044: f7 63 03 a9  	stp	x23, x24, [sp, #48]
   10048: 00 00 00 94  	bl	0x10048 <bpf_program__set_attach_target+0x1c8>
   1004c: 1f 20 03 d5  	nop

0000000000010050 <parse_cpu_mask_str>:
   10050: fd 7b b9 a9  	stp	x29, x30, [sp, #-112]!
   10054: 03 00 00 90  	adrp	x3, 0x10000 <parse_cpu_mask_str+0x4>
   10058: fd 03 00 91  	mov	x29, sp
   1005c: 63 00 40 f9  	ldr	x3, [x3]
   10060: f5 5b 02 a9  	stp	x21, x22, [sp, #32]
   10064: f5 03 01 aa  	mov	x21, x1
   10068: f3 53 01 a9  	stp	x19, x20, [sp, #16]
   1006c: f3 03 00 aa  	mov	x19, x0
   10070: 01 00 80 12  	mov	w1, #-1
   10074: 60 00 40 f9  	ldr	x0, [x3]
   10078: e0 37 00 f9  	str	x0, [sp, #104]
   1007c: 00 00 80 d2  	mov	x0, #0
   10080: bf 02 00 f9  	str	xzr, [x21]
   10084: 5f 00 00 b9  	str	wzr, [x2]
   10088: e1 67 00 b9  	str	w1, [sp, #100]
   1008c: 63 02 40 39  	ldrb	w3, [x19]
   10090: 03 0d 00 34  	cbz	w3, 0x10230 <parse_cpu_mask_str+0x1e0>
   10094: f6 03 02 aa  	mov	x22, x2
   10098: f7 63 03 a9  	stp	x23, x24, [sp, #48]
   1009c: 18 00 00 90  	adrp	x24, 0x10000 <parse_cpu_mask_str+0x4c>
   100a0: f7 73 01 91  	add	x23, sp, #92
   100a4: 18 03 00 91  	add	x24, x24, #0
   100a8: f9 6b 04 a9  	stp	x25, x26, [sp, #64]
   100ac: fa 93 01 91  	add	x26, sp, #100
   100b0: f9 83 01 91  	add	x25, sp, #96
   100b4: 04 00 00 14  	b	0x100c4 <parse_cpu_mask_str+0x74>
   100b8: 63 06 40 39  	ldrb	w3, [x19, #1]
   100bc: 73 06 00 91  	add	x19, x19, #1
   100c0: 23 06 00 34  	cbz	w3, 0x10184 <parse_cpu_mask_str+0x134>
   100c4: 7f b0 00 71  	cmp	w3, #44
   100c8: 64 18 4a 7a  	ccmp	w3, #10, #4, ne
   100cc: 60 ff ff 54  	b.eq	0x100b8 <parse_cpu_mask_str+0x68>
   100d0: e1 03 18 aa  	mov	x1, x24
   100d4: e5 03 17 aa  	mov	x5, x23
   100d8: e4 03 1a aa  	mov	x4, x26
   100dc: e3 03 17 aa  	mov	x3, x23
   100e0: e2 03 19 aa  	mov	x2, x25
   100e4: e0 03 13 aa  	mov	x0, x19
   100e8: 00 00 00 94  	bl	0x100e8 <parse_cpu_mask_str+0x98>
   100ec: 01 04 00 51  	sub	w1, w0, #1
   100f0: 3f 04 00 71  	cmp	w1, #1
   100f4: a8 08 00 54  	b.hi	0x10208 <parse_cpu_mask_str+0x1b8>
   100f8: e2 63 40 b9  	ldr	w2, [sp, #96]
   100fc: 1f 04 00 71  	cmp	w0, #1
   10100: e0 04 00 54  	b.eq	0x1019c <parse_cpu_mask_str+0x14c>
   10104: e1 67 40 b9  	ldr	w1, [sp, #100]
   10108: 02 05 f8 37  	tbnz	w2, #31, 0x101a8 <parse_cpu_mask_str+0x158>
   1010c: 5f 00 01 6b  	cmp	w2, w1
   10110: cc 04 00 54  	b.gt	0x101a8 <parse_cpu_mask_str+0x158>
   10114: a0 02 40 f9  	ldr	x0, [x21]
   10118: 21 04 00 11  	add	w1, w1, #1
   1011c: 21 7c 40 93  	sxtw	x1, w1
   10120: 00 00 00 94  	bl	0x10120 <parse_cpu_mask_str+0xd0>
   10124: f4 03 00 aa  	mov	x20, x0
   10128: 00 09 00 b4  	cbz	x0, 0x10248 <parse_cpu_mask_str+0x1f8>
   1012c: c0 02 40 b9  	ldr	w0, [x22]
   10130: 01 00 80 52  	mov	w1, #0
   10134: e2 63 40 b9  	ldr	w2, [sp, #96]
   10138: b4 02 00 f9  	str	x20, [x21]
   1013c: 42 00 00 4b  	sub	w2, w2, w0
   10140: 80 c2 20 8b  	add	x0, x20, w0, sxtw
   10144: 42 7c 40 93  	sxtw	x2, w2
   10148: 00 00 00 94  	bl	0x10148 <parse_cpu_mask_str+0xf8>
   1014c: e0 0b 4c 29  	ldp	w0, w2, [sp, #96]
   10150: 21 00 80 52  	mov	w1, #1
   10154: 42 00 00 4b  	sub	w2, w2, w0
   10158: 42 00 01 0b  	add	w2, w2, w1
   1015c: 80 c2 20 8b  	add	x0, x20, w0, sxtw
   10160: 42 7c 40 93  	sxtw	x2, w2
   10164: 00 00 00 94  	bl	0x10164 <parse_cpu_mask_str+0x114>
   10168: e1 5f 80 b9  	ldrsw	x1, [sp, #92]
   1016c: e0 67 40 b9  	ldr	w0, [sp, #100]
   10170: 73 02 01 8b  	add	x19, x19, x1
   10174: 00 04 00 11  	add	w0, w0, #1
   10178: c0 02 00 b9  	str	w0, [x22]
   1017c: 63 02 40 39  	ldrb	w3, [x19]
   10180: 23 fa ff 35  	cbnz	w3, 0x100c4 <parse_cpu_mask_str+0x74>
   10184: c0 02 40 b9  	ldr	w0, [x22]
   10188: 00 05 00 34  	cbz	w0, 0x10228 <parse_cpu_mask_str+0x1d8>
   1018c: 13 00 80 52  	mov	w19, #0
   10190: f7 63 43 a9  	ldp	x23, x24, [sp, #48]
   10194: f9 6b 44 a9  	ldp	x25, x26, [sp, #64]
   10198: 10 00 00 14  	b	0x101d8 <parse_cpu_mask_str+0x188>
   1019c: e2 67 00 b9  	str	w2, [sp, #100]
   101a0: e1 03 02 2a  	mov	w1, w2
   101a4: 82 fb ff 36  	tbz	w2, #31, 0x10114 <parse_cpu_mask_str+0xc4>
   101a8: e4 03 13 aa  	mov	x4, x19
   101ac: e3 03 01 2a  	mov	w3, w1
   101b0: 00 00 80 52  	mov	w0, #0
   101b4: 01 00 00 90  	adrp	x1, 0x10000 <parse_cpu_mask_str+0x164>
   101b8: b3 02 80 12  	mov	w19, #-22
   101bc: 21 00 00 91  	add	x1, x1, #0
   101c0: 00 00 00 94  	bl	0x101c0 <parse_cpu_mask_str+0x170>
   101c4: a0 02 40 f9  	ldr	x0, [x21]
   101c8: 00 00 00 94  	bl	0x101c8 <parse_cpu_mask_str+0x178>
   101cc: f7 63 43 a9  	ldp	x23, x24, [sp, #48]
   101d0: f9 6b 44 a9  	ldp	x25, x26, [sp, #64]
   101d4: bf 02 00 f9  	str	xzr, [x21]
   101d8: 00 00 00 90  	adrp	x0, 0x10000 <parse_cpu_mask_str+0x188>
   101dc: 00 00 40 f9  	ldr	x0, [x0]
   101e0: e2 37 40 f9  	ldr	x2, [sp, #104]
   101e4: 01 00 40 f9  	ldr	x1, [x0]
   101e8: 42 00 01 eb  	subs	x2, x2, x1
   101ec: 01 00 80 d2  	mov	x1, #0
   101f0: 01 03 00 54  	b.ne	0x10250 <parse_cpu_mask_str+0x200>
   101f4: e0 03 13 2a  	mov	w0, w19
   101f8: f3 53 41 a9  	ldp	x19, x20, [sp, #16]
   101fc: f5 5b 42 a9  	ldp	x21, x22, [sp, #32]
   10200: fd 7b c7 a8  	ldp	x29, x30, [sp], #112
   10204: c0 03 5f d6  	ret
   10208: e3 03 00 2a  	mov	w3, w0
   1020c: e2 03 13 aa  	mov	x2, x19
   10210: 01 00 00 90  	adrp	x1, 0x10000 <parse_cpu_mask_str+0x1c0>
   10214: 00 00 80 52  	mov	w0, #0
   10218: 21 00 00 91  	add	x1, x1, #0
   1021c: b3 02 80 12  	mov	w19, #-22
   10220: 00 00 00 94  	bl	0x10220 <parse_cpu_mask_str+0x1d0>
   10224: e8 ff ff 17  	b	0x101c4 <parse_cpu_mask_str+0x174>
   10228: f7 63 43 a9  	ldp	x23, x24, [sp, #48]
   1022c: f9 6b 44 a9  	ldp	x25, x26, [sp, #64]
   10230: 01 00 00 90  	adrp	x1, 0x10000 <parse_cpu_mask_str+0x1e0>
   10234: 00 00 80 52  	mov	w0, #0
   10238: 21 00 00 91  	add	x1, x1, #0
   1023c: b3 02 80 12  	mov	w19, #-22
   10240: 00 00 00 94  	bl	0x10240 <parse_cpu_mask_str+0x1f0>
   10244: e5 ff ff 17  	b	0x101d8 <parse_cpu_mask_str+0x188>
   10248: 73 01 80 12  	mov	w19, #-12
   1024c: de ff ff 17  	b	0x101c4 <parse_cpu_mask_str+0x174>
   10250: f7 63 03 a9  	stp	x23, x24, [sp, #48]
   10254: f9 6b 04 a9  	stp	x25, x26, [sp, #64]
   10258: 00 00 00 94  	bl	0x10258 <parse_cpu_mask_str+0x208>
   1025c: 1f 20 03 d5  	nop

0000000000010260 <parse_cpu_mask_file>:
   10260: fd 7b b3 a9  	stp	x29, x30, [sp, #-208]!
   10264: 03 00 00 90  	adrp	x3, 0x10000 <parse_cpu_mask_file+0x4>
   10268: fd 03 00 91  	mov	x29, sp
   1026c: 63 00 40 f9  	ldr	x3, [x3]
   10270: f3 53 01 a9  	stp	x19, x20, [sp, #16]
   10274: f4 03 01 aa  	mov	x20, x1
   10278: f5 5b 02 a9  	stp	x21, x22, [sp, #32]
   1027c: f6 03 00 aa  	mov	x22, x0
   10280: f7 1b 00 f9  	str	x23, [sp, #48]
   10284: f7 03 02 aa  	mov	x23, x2
   10288: 61 00 40 f9  	ldr	x1, [x3]
   1028c: e1 67 00 f9  	str	x1, [sp, #200]
   10290: 01 00 80 d2  	mov	x1, #0
   10294: 00 00 00 94  	bl	0x10294 <parse_cpu_mask_file+0x34>
   10298: 20 04 f8 37  	tbnz	w0, #31, 0x1031c <parse_cpu_mask_file+0xbc>
   1029c: f5 23 01 91  	add	x21, sp, #72
   102a0: f3 03 00 2a  	mov	w19, w0
   102a4: e1 03 15 aa  	mov	x1, x21
   102a8: 02 10 80 d2  	mov	x2, #128
   102ac: 00 00 00 94  	bl	0x102ac <parse_cpu_mask_file+0x4c>
   102b0: e3 03 00 aa  	mov	x3, x0
   102b4: e0 03 13 2a  	mov	w0, w19
   102b8: f3 03 03 aa  	mov	x19, x3
   102bc: 00 00 00 94  	bl	0x102bc <parse_cpu_mask_file+0x5c>
   102c0: 7f 02 00 71  	cmp	w19, #0
   102c4: 2d 04 00 54  	b.le	0x10348 <parse_cpu_mask_file+0xe8>
   102c8: 7f fe 01 71  	cmp	w19, #127
   102cc: 68 05 00 54  	b.hi	0x10378 <parse_cpu_mask_file+0x118>
   102d0: e2 03 17 aa  	mov	x2, x23
   102d4: e1 03 14 aa  	mov	x1, x20
   102d8: e0 03 15 aa  	mov	x0, x21
   102dc: bf ca 33 38  	strb	wzr, [x21, w19, sxtw]
   102e0: 00 00 00 94  	bl	0x102e0 <parse_cpu_mask_file+0x80>
   102e4: f3 03 00 2a  	mov	w19, w0
   102e8: 00 00 00 90  	adrp	x0, 0x10000 <parse_cpu_mask_file+0x88>
   102ec: 00 00 40 f9  	ldr	x0, [x0]
   102f0: e2 67 40 f9  	ldr	x2, [sp, #200]
   102f4: 01 00 40 f9  	ldr	x1, [x0]
   102f8: 42 00 01 eb  	subs	x2, x2, x1
   102fc: 01 00 80 d2  	mov	x1, #0
   10300: a1 04 00 54  	b.ne	0x10394 <parse_cpu_mask_file+0x134>
   10304: e0 03 13 2a  	mov	w0, w19
   10308: f3 53 41 a9  	ldp	x19, x20, [sp, #16]
   1030c: f5 5b 42 a9  	ldp	x21, x22, [sp, #32]
   10310: f7 1b 40 f9  	ldr	x23, [sp, #48]
   10314: fd 7b cd a8  	ldp	x29, x30, [sp], #208
   10318: c0 03 5f d6  	ret
   1031c: 00 00 00 94  	bl	0x1031c <parse_cpu_mask_file+0xbc>
   10320: e3 03 00 aa  	mov	x3, x0
   10324: e2 03 16 aa  	mov	x2, x22
   10328: 01 00 00 90  	adrp	x1, 0x10000 <parse_cpu_mask_file+0xc8>
   1032c: 00 00 80 52  	mov	w0, #0
   10330: 21 00 00 91  	add	x1, x1, #0
   10334: 73 00 40 b9  	ldr	w19, [x3]
   10338: f3 03 13 4b  	neg	w19, w19
   1033c: e3 03 13 2a  	mov	w3, w19
   10340: 00 00 00 94  	bl	0x10340 <parse_cpu_mask_file+0xe0>
   10344: e9 ff ff 17  	b	0x102e8 <parse_cpu_mask_file+0x88>
   10348: b3 02 80 12  	mov	w19, #-22
   1034c: 80 00 00 54  	b.eq	0x1035c <parse_cpu_mask_file+0xfc>
   10350: 00 00 00 94  	bl	0x10350 <parse_cpu_mask_file+0xf0>
   10354: 13 00 40 b9  	ldr	w19, [x0]
   10358: f3 03 13 4b  	neg	w19, w19
   1035c: e2 03 16 aa  	mov	x2, x22
   10360: e3 03 13 2a  	mov	w3, w19
   10364: 01 00 00 90  	adrp	x1, 0x10000 <parse_cpu_mask_file+0x104>
   10368: 00 00 80 52  	mov	w0, #0
   1036c: 21 00 00 91  	add	x1, x1, #0
   10370: 00 00 00 94  	bl	0x10370 <parse_cpu_mask_file+0x110>
   10374: dd ff ff 17  	b	0x102e8 <parse_cpu_mask_file+0x88>
   10378: e2 03 16 aa  	mov	x2, x22
   1037c: 01 00 00 90  	adrp	x1, 0x10000 <parse_cpu_mask_file+0x11c>
   10380: 00 00 80 52  	mov	w0, #0
   10384: 21 00 00 91  	add	x1, x1, #0
   10388: d3 00 80 12  	mov	w19, #-7
   1038c: 00 00 00 94  	bl	0x1038c <parse_cpu_mask_file+0x12c>
   10390: d6 ff ff 17  	b	0x102e8 <parse_cpu_mask_file+0x88>
   10394: 00 00 00 94  	bl	0x10394 <parse_cpu_mask_file+0x134>
   10398: 1f 20 03 d5  	nop
   1039c: 1f 20 03 d5  	nop

00000000000103a0 <libbpf_num_possible_cpus.part.0>:
   103a0: fd 7b bc a9  	stp	x29, x30, [sp, #-64]!
   103a4: 03 00 00 90  	adrp	x3, 0x10000 <libbpf_num_possible_cpus.part.0+0x4>
   103a8: 00 00 00 90  	adrp	x0, 0x10000 <libbpf_num_possible_cpus.part.0+0x8>
   103ac: fd 03 00 91  	mov	x29, sp
   103b0: 63 00 40 f9  	ldr	x3, [x3]
   103b4: f3 53 01 a9  	stp	x19, x20, [sp, #16]
   103b8: e2 b3 00 91  	add	x2, sp, #44
   103bc: 64 00 40 f9  	ldr	x4, [x3]
   103c0: e4 1f 00 f9  	str	x4, [sp, #56]
   103c4: 04 00 80 d2  	mov	x4, #0
   103c8: 00 00 00 91  	add	x0, x0, #0
   103cc: e1 c3 00 91  	add	x1, sp, #48
   103d0: 00 00 00 94  	bl	0x103d0 <libbpf_num_possible_cpus.part.0+0x30>
   103d4: f3 03 00 2a  	mov	w19, w0
   103d8: e0 03 00 35  	cbnz	w0, 0x10454 <libbpf_num_possible_cpus.part.0+0xb4>
   103dc: e1 2f 40 b9  	ldr	w1, [sp, #44]
   103e0: 14 00 80 52  	mov	w20, #0
   103e4: e0 1b 40 f9  	ldr	x0, [sp, #48]
   103e8: 3f 00 00 71  	cmp	w1, #0
   103ec: 6d 01 00 54  	b.le	0x10418 <libbpf_num_possible_cpus.part.0+0x78>
   103f0: 21 04 00 51  	sub	w1, w1, #1
   103f4: 03 04 00 91  	add	x3, x0, #1
   103f8: 63 00 01 8b  	add	x3, x3, x1
   103fc: e1 03 00 aa  	mov	x1, x0
   10400: 22 14 40 38  	ldrb	w2, [x1], #1
   10404: 5f 00 00 71  	cmp	w2, #0
   10408: 73 06 93 1a  	cinc	w19, w19, ne
   1040c: 3f 00 03 eb  	cmp	x1, x3
   10410: 81 ff ff 54  	b.ne	0x10400 <libbpf_num_possible_cpus.part.0+0x60>
   10414: f4 03 13 2a  	mov	w20, w19
   10418: 00 00 00 94  	bl	0x10418 <libbpf_num_possible_cpus.part.0+0x78>
   1041c: 00 00 00 90  	adrp	x0, 0x10000 <libbpf_num_possible_cpus.part.0+0x7c>
   10420: 00 00 00 91  	add	x0, x0, #0
   10424: 14 04 00 b9  	str	w20, [x0, #4]
   10428: 00 00 00 90  	adrp	x0, 0x10000 <libbpf_num_possible_cpus.part.0+0x88>
   1042c: 00 00 40 f9  	ldr	x0, [x0]
   10430: e2 1f 40 f9  	ldr	x2, [sp, #56]
   10434: 01 00 40 f9  	ldr	x1, [x0]
   10438: 42 00 01 eb  	subs	x2, x2, x1
   1043c: 01 00 80 d2  	mov	x1, #0
   10440: 61 01 00 54  	b.ne	0x1046c <libbpf_num_possible_cpus.part.0+0xcc>
   10444: e0 03 13 2a  	mov	w0, w19
   10448: f3 53 41 a9  	ldp	x19, x20, [sp, #16]
   1044c: fd 7b c4 a8  	ldp	x29, x30, [sp], #64
   10450: c0 03 5f d6  	ret
   10454: 1f 00 00 71  	cmp	w0, #0
   10458: 8a fe ff 54  	b.ge	0x10428 <libbpf_num_possible_cpus.part.0+0x88>
   1045c: 00 00 00 94  	bl	0x1045c <libbpf_num_possible_cpus.part.0+0xbc>
   10460: e1 03 13 4b  	neg	w1, w19
   10464: 01 00 00 b9  	str	w1, [x0]
   10468: f0 ff ff 17  	b	0x10428 <libbpf_num_possible_cpus.part.0+0x88>
   1046c: 00 00 00 94  	bl	0x1046c <libbpf_num_possible_cpus.part.0+0xcc>

0000000000010470 <bpf_object__create_map>:
   10470: fd 7b af a9  	stp	x29, x30, [sp, #-272]!
   10474: 03 00 00 90  	adrp	x3, 0x10000 <bpf_object__create_map+0x4>
   10478: 00 04 00 4f  	movi	v0.4s, #0
   1047c: fd 03 00 91  	mov	x29, sp
   10480: f3 53 01 a9  	stp	x19, x20, [sp, #16]
   10484: f4 03 00 aa  	mov	x20, x0
   10488: f3 03 01 aa  	mov	x19, x1
   1048c: 60 00 40 f9  	ldr	x0, [x3]
   10490: f5 5b 02 a9  	stp	x21, x22, [sp, #32]
   10494: f5 43 01 91  	add	x21, sp, #80
   10498: f7 63 03 a9  	stp	x23, x24, [sp, #48]
   1049c: 57 1c 00 12  	and	w23, w2, #0xff
   104a0: 81 52 40 f9  	ldr	x1, [x20, #160]
   104a4: 03 00 40 f9  	ldr	x3, [x0]
   104a8: e3 87 00 f9  	str	x3, [sp, #264]
   104ac: 03 00 80 d2  	mov	x3, #0
   104b0: bf 1a 00 f9  	str	xzr, [x21, #48]
   104b4: a0 02 00 ad  	stp	q0, q0, [x21]
   104b8: a0 0a 80 3d  	str	q0, [x21, #32]
   104bc: 01 0f 00 b4  	cbz	x1, 0x1069c <bpf_object__create_map+0x22c>
   104c0: 60 02 40 f9  	ldr	x0, [x19]
   104c4: e0 2b 00 f9  	str	x0, [sp, #80]
   104c8: 60 1a 40 b9  	ldr	w0, [x19, #24]
   104cc: 78 82 00 91  	add	x24, x19, #32
   104d0: 61 22 40 b9  	ldr	w1, [x19, #32]
   104d4: 62 36 40 b9  	ldr	w2, [x19, #52]
   104d8: 04 13 40 b9  	ldr	w4, [x24, #16]
   104dc: 63 42 42 f8  	ldur	x3, [x19, #36]
   104e0: e1 13 0b 29  	stp	w1, w4, [sp, #88]
   104e4: e3 33 00 f9  	str	x3, [sp, #96]
   104e8: e2 6f 00 b9  	str	w2, [sp, #108]
   104ec: e0 7f 00 b9  	str	w0, [sp, #124]
   104f0: 00 0f 40 b9  	ldr	w0, [x24, #12]
   104f4: 3f 10 00 71  	cmp	w1, #4
   104f8: 60 06 00 54  	b.eq	0x105c4 <bpf_object__create_map+0x154>
   104fc: e0 6b 00 b9  	str	w0, [sp, #104]
   10500: ff 3b 00 f9  	str	xzr, [sp, #112]
   10504: 80 c2 40 f9  	ldr	x0, [x20, #384]
   10508: 3f 68 00 71  	cmp	w1, #26
   1050c: 20 08 00 54  	b.eq	0x10610 <bpf_object__create_map+0x1a0>
   10510: ff 7b 00 b9  	str	wzr, [sp, #120]
   10514: 80 00 00 b4  	cbz	x0, 0x10524 <bpf_object__create_map+0xb4>
   10518: 00 00 00 94  	bl	0x10518 <bpf_object__create_map+0xa8>
   1051c: 60 08 f8 36  	tbz	w0, #31, 0x10628 <bpf_object__create_map+0x1b8>
   10520: 61 22 40 b9  	ldr	w1, [x19, #32]
   10524: 21 30 00 51  	sub	w1, w1, #12
   10528: 3f 04 00 71  	cmp	w1, #1
   1052c: e9 11 00 54  	b.ls	0x10768 <bpf_object__create_map+0x2f8>
   10530: 80 52 40 f9  	ldr	x0, [x20, #160]
   10534: e0 0b 00 b4  	cbz	x0, 0x106b0 <bpf_object__create_map+0x240>
   10538: 02 00 80 12  	mov	w2, #-1
   1053c: d7 02 00 34  	cbz	w23, 0x10594 <bpf_object__create_map+0x124>
   10540: e1 03 15 aa  	mov	x1, x21
   10544: 00 00 00 94  	bl	0x10544 <bpf_object__create_map+0xd4>
   10548: 7f 0a 00 b9  	str	wzr, [x19, #8]
   1054c: 60 22 40 b9  	ldr	w0, [x19, #32]
   10550: 16 00 80 52  	mov	w22, #0
   10554: 00 30 00 51  	sub	w0, w0, #12
   10558: 1f 04 00 71  	cmp	w0, #1
   1055c: 09 0f 00 54  	b.ls	0x1073c <bpf_object__create_map+0x2cc>
   10560: 00 00 00 90  	adrp	x0, 0x10000 <bpf_object__create_map+0xf0>
   10564: 00 00 40 f9  	ldr	x0, [x0]
   10568: e2 87 40 f9  	ldr	x2, [sp, #264]
   1056c: 01 00 40 f9  	ldr	x1, [x0]
   10570: 42 00 01 eb  	subs	x2, x2, x1
   10574: 01 00 80 d2  	mov	x1, #0
   10578: 01 15 00 54  	b.ne	0x10818 <bpf_object__create_map+0x3a8>
   1057c: e0 03 16 2a  	mov	w0, w22
   10580: f3 53 41 a9  	ldp	x19, x20, [sp, #16]
   10584: f5 5b 42 a9  	ldp	x21, x22, [sp, #32]
   10588: f7 63 43 a9  	ldp	x23, x24, [sp, #48]
   1058c: fd 7b d1 a8  	ldp	x29, x30, [sp], #272
   10590: c0 03 5f d6  	ret
   10594: 82 36 40 f9  	ldr	x2, [x20, #104]
   10598: 61 43 99 d2  	mov	x1, #51739
   1059c: 61 0d a5 f2  	movk	x1, #10347, lsl #16
   105a0: 62 02 02 cb  	sub	x2, x19, x2
   105a4: e1 35 d4 f2  	movk	x1, #41391, lsl #32
   105a8: 81 d7 f0 f2  	movk	x1, #34492, lsl #48
   105ac: 42 fc 43 93  	asr	x2, x2, #3
   105b0: 42 7c 01 1b  	mul	w2, w2, w1
   105b4: e1 03 15 aa  	mov	x1, x21
   105b8: 00 00 00 94  	bl	0x105b8 <bpf_object__create_map+0x148>
   105bc: 7f 0a 00 b9  	str	wzr, [x19, #8]
   105c0: e3 ff ff 17  	b	0x1054c <bpf_object__create_map+0xdc>
   105c4: c0 f9 ff 35  	cbnz	w0, 0x104fc <bpf_object__create_map+0x8c>
   105c8: 00 00 00 90  	adrp	x0, 0x10000 <bpf_object__create_map+0x158>
   105cc: 00 00 00 91  	add	x0, x0, #0
   105d0: 16 04 40 b9  	ldr	w22, [x0, #4]
   105d4: df 02 00 71  	cmp	w22, #0
   105d8: 8d 0e 00 54  	b.le	0x107a8 <bpf_object__create_map+0x338>
   105dc: 62 02 40 f9  	ldr	x2, [x19]
   105e0: 40 00 80 52  	mov	w0, #2
   105e4: e3 03 16 2a  	mov	w3, w22
   105e8: 01 00 00 90  	adrp	x1, 0x10000 <bpf_object__create_map+0x178>
   105ec: 21 00 00 91  	add	x1, x1, #0
   105f0: 00 00 00 94  	bl	0x105f0 <bpf_object__create_map+0x180>
   105f4: f6 6b 00 b9  	str	w22, [sp, #104]
   105f8: 61 22 40 b9  	ldr	w1, [x19, #32]
   105fc: ff 3b 00 f9  	str	xzr, [sp, #112]
   10600: 80 c2 40 f9  	ldr	x0, [x20, #384]
   10604: 3f 68 00 71  	cmp	w1, #26
   10608: 41 f8 ff 54  	b.ne	0x10510 <bpf_object__create_map+0xa0>
   1060c: 1f 20 03 d5  	nop
   10610: 61 46 40 b9  	ldr	w1, [x19, #68]
   10614: ff 7b 00 b9  	str	wzr, [sp, #120]
   10618: e1 83 00 b9  	str	w1, [sp, #128]
   1061c: a0 f8 ff b4  	cbz	x0, 0x10530 <bpf_object__create_map+0xc0>
   10620: 00 00 00 94  	bl	0x10620 <bpf_object__create_map+0x1b0>
   10624: e0 f7 ff 37  	tbnz	w0, #31, 0x10520 <bpf_object__create_map+0xb0>
   10628: 62 0e 40 b9  	ldr	w2, [x19, #12]
   1062c: 81 52 41 b9  	ldr	w1, [x20, #336]
   10630: ff 7f 09 29  	stp	wzr, wzr, [sp, #72]
   10634: 80 c2 40 f9  	ldr	x0, [x20, #384]
   10638: 5f 00 01 6b  	cmp	w2, w1
   1063c: 40 02 00 54  	b.eq	0x10684 <bpf_object__create_map+0x214>
   10640: 61 22 40 b9  	ldr	w1, [x19, #32]
   10644: 3f 68 00 71  	cmp	w1, #26
   10648: e0 01 00 54  	b.eq	0x10684 <bpf_object__create_map+0x214>
   1064c: 62 5a 40 b9  	ldr	w2, [x19, #88]
   10650: 02 0c 00 35  	cbnz	w2, 0x107d0 <bpf_object__create_map+0x360>
   10654: 02 8f 40 29  	ldp	w2, w3, [x24, #4]
   10658: e5 33 01 91  	add	x5, sp, #76
   1065c: 61 02 40 f9  	ldr	x1, [x19]
   10660: e4 23 01 91  	add	x4, sp, #72
   10664: 00 00 00 94  	bl	0x10664 <bpf_object__create_map+0x1f4>
   10668: c0 f5 ff 37  	tbnz	w0, #31, 0x10520 <bpf_object__create_map+0xb0>
   1066c: 61 5a 40 b9  	ldr	w1, [x19, #88]
   10670: 3f 00 00 71  	cmp	w1, #0
   10674: e1 0b 49 29  	ldp	w1, w2, [sp, #72]
   10678: 00 10 82 1a  	csel	w0, w0, w2, ne
   1067c: 61 82 07 29  	stp	w1, w0, [x19, #60]
   10680: 80 c2 40 f9  	ldr	x0, [x20, #384]
   10684: 00 00 00 94  	bl	0x10684 <bpf_object__create_map+0x214>
   10688: 62 c2 43 f8  	ldur	x2, [x19, #60]
   1068c: e0 73 00 b9  	str	w0, [sp, #112]
   10690: 61 22 40 b9  	ldr	w1, [x19, #32]
   10694: e2 43 07 f8  	stur	x2, [sp, #116]
   10698: a3 ff ff 17  	b	0x10524 <bpf_object__create_map+0xb4>
   1069c: 00 00 80 52  	mov	w0, #0
   106a0: 58 c4 ff 97  	bl	0x1800 <kernel_supports.part.0>
   106a4: 1f 1c 00 72  	tst	w0, #0xff
   106a8: c1 f0 ff 54  	b.ne	0x104c0 <bpf_object__create_map+0x50>
   106ac: 87 ff ff 17  	b	0x104c8 <bpf_object__create_map+0x58>
   106b0: e0 03 15 aa  	mov	x0, x21
   106b4: 00 00 00 94  	bl	0x106b4 <bpf_object__create_map+0x244>
   106b8: 60 0a 00 b9  	str	w0, [x19, #8]
   106bc: 80 f4 ff 36  	tbz	w0, #31, 0x1054c <bpf_object__create_map+0xdc>
   106c0: f8 83 4e 29  	ldp	w24, w0, [sp, #116]
   106c4: 18 03 00 2a  	orr	w24, w24, w0
   106c8: 00 00 00 94  	bl	0x106c8 <bpf_object__create_map+0x258>
   106cc: 16 00 40 b9  	ldr	w22, [x0]
   106d0: f7 03 00 aa  	mov	x23, x0
   106d4: b8 02 00 34  	cbz	w24, 0x10728 <bpf_object__create_map+0x2b8>
   106d8: f6 03 16 4b  	neg	w22, w22
   106dc: e1 23 02 91  	add	x1, sp, #136
   106e0: 02 10 80 52  	mov	w2, #128
   106e4: e0 03 16 2a  	mov	w0, w22
   106e8: 00 00 00 94  	bl	0x106e8 <bpf_object__create_map+0x278>
   106ec: e3 03 00 aa  	mov	x3, x0
   106f0: 62 02 40 f9  	ldr	x2, [x19]
   106f4: e4 03 16 2a  	mov	w4, w22
   106f8: 01 00 00 90  	adrp	x1, 0x10000 <bpf_object__create_map+0x288>
   106fc: 21 00 00 91  	add	x1, x1, #0
   10700: 00 00 80 52  	mov	w0, #0
   10704: 00 00 00 94  	bl	0x10704 <bpf_object__create_map+0x294>
   10708: 7f c2 03 f8  	stur	xzr, [x19, #60]
   1070c: e0 03 15 aa  	mov	x0, x21
   10710: ff 3b 00 f9  	str	xzr, [sp, #112]
   10714: ff 7b 00 b9  	str	wzr, [sp, #120]
   10718: 00 00 00 94  	bl	0x10718 <bpf_object__create_map+0x2a8>
   1071c: 60 0a 00 b9  	str	w0, [x19, #8]
   10720: 60 f1 ff 36  	tbz	w0, #31, 0x1054c <bpf_object__create_map+0xdc>
   10724: f6 02 40 b9  	ldr	w22, [x23]
   10728: 60 22 40 b9  	ldr	w0, [x19, #32]
   1072c: f6 03 16 4b  	neg	w22, w22
   10730: 00 30 00 51  	sub	w0, w0, #12
   10734: 1f 04 00 71  	cmp	w0, #1
   10738: 48 f1 ff 54  	b.hi	0x10560 <bpf_object__create_map+0xf0>
   1073c: 60 3a 40 f9  	ldr	x0, [x19, #112]
   10740: 00 f1 ff b4  	cbz	x0, 0x10560 <bpf_object__create_map+0xf0>
   10744: 81 52 40 f9  	ldr	x1, [x20, #160]
   10748: 61 00 00 b4  	cbz	x1, 0x10754 <bpf_object__create_map+0x2e4>
   1074c: 01 00 80 12  	mov	w1, #-1
   10750: 01 08 00 b9  	str	w1, [x0, #8]
   10754: a0 c0 ff 97  	bl	0x9d4 <bpf_map__destroy>
   10758: 60 3a 40 f9  	ldr	x0, [x19, #112]
   1075c: 00 00 00 94  	bl	0x1075c <bpf_object__create_map+0x2ec>
   10760: 7f 3a 00 f9  	str	xzr, [x19, #112]
   10764: 7f ff ff 17  	b	0x10560 <bpf_object__create_map+0xf0>
   10768: 61 3a 40 f9  	ldr	x1, [x19, #112]
   1076c: a1 01 00 b4  	cbz	x1, 0x107a0 <bpf_object__create_map+0x330>
   10770: e0 03 14 aa  	mov	x0, x20
   10774: 22 00 80 52  	mov	w2, #1
   10778: 3e ff ff 97  	bl	0x10470 <bpf_object__create_map>
   1077c: f6 03 00 2a  	mov	w22, w0
   10780: 40 03 00 35  	cbnz	w0, 0x107e8 <bpf_object__create_map+0x378>
   10784: 60 3a 40 f9  	ldr	x0, [x19, #112]
   10788: e0 03 00 b4  	cbz	x0, 0x10804 <bpf_object__create_map+0x394>
   1078c: 00 08 40 b9  	ldr	w0, [x0, #8]
   10790: 60 1e 00 b9  	str	w0, [x19, #28]
   10794: e0 ec ff 37  	tbnz	w0, #31, 0x10530 <bpf_object__create_map+0xc0>
   10798: e0 83 00 b9  	str	w0, [sp, #128]
   1079c: 65 ff ff 17  	b	0x10530 <bpf_object__create_map+0xc0>
   107a0: 60 1e 40 b9  	ldr	w0, [x19, #28]
   107a4: fc ff ff 17  	b	0x10794 <bpf_object__create_map+0x324>
   107a8: fe fe ff 97  	bl	0x103a0 <libbpf_num_possible_cpus.part.0>
   107ac: f6 03 00 2a  	mov	w22, w0
   107b0: 60 f1 ff 36  	tbz	w0, #31, 0x105dc <bpf_object__create_map+0x16c>
   107b4: 62 02 40 f9  	ldr	x2, [x19]
   107b8: e3 03 00 2a  	mov	w3, w0
   107bc: 01 00 00 90  	adrp	x1, 0x10000 <bpf_object__create_map+0x34c>
   107c0: 00 00 80 52  	mov	w0, #0
   107c4: 21 00 00 91  	add	x1, x1, #0
   107c8: 00 00 00 94  	bl	0x107c8 <bpf_object__create_map+0x358>
   107cc: 65 ff ff 17  	b	0x10560 <bpf_object__create_map+0xf0>
   107d0: 01 00 00 90  	adrp	x1, 0x10000 <bpf_object__create_map+0x360>
   107d4: 21 00 00 91  	add	x1, x1, #0
   107d8: 21 40 29 91  	add	x1, x1, #2640
   107dc: 21 58 62 f8  	ldr	x1, [x1, w2, uxtw #3]
   107e0: 00 00 00 94  	bl	0x107e0 <bpf_object__create_map+0x370>
   107e4: a1 ff ff 17  	b	0x10668 <bpf_object__create_map+0x1f8>
   107e8: 62 02 40 f9  	ldr	x2, [x19]
   107ec: e3 03 00 2a  	mov	w3, w0
   107f0: 01 00 00 90  	adrp	x1, 0x10000 <bpf_object__create_map+0x380>
   107f4: 00 00 80 52  	mov	w0, #0
   107f8: 21 00 00 91  	add	x1, x1, #0
   107fc: 00 00 00 94  	bl	0x107fc <bpf_object__create_map+0x38c>
   10800: 58 ff ff 17  	b	0x10560 <bpf_object__create_map+0xf0>
   10804: a0 02 80 12  	mov	w0, #-22
   10808: 06 c1 ff 97  	bl	0xc20 <libbpf_err.part.0>
   1080c: a0 02 80 12  	mov	w0, #-22
   10810: 60 1e 00 b9  	str	w0, [x19, #28]
   10814: 47 ff ff 17  	b	0x10530 <bpf_object__create_map+0xc0>
   10818: 00 00 00 94  	bl	0x10818 <bpf_object__create_map+0x3a8>
   1081c: 1f 20 03 d5  	nop

0000000000010820 <bpf_object__create_maps>:
   10820: fd 7b ac a9  	stp	x29, x30, [sp, #-320]!
   10824: 01 00 00 90  	adrp	x1, 0x10000 <bpf_object__create_maps+0x4>
   10828: fd 03 00 91  	mov	x29, sp
   1082c: 21 00 40 f9  	ldr	x1, [x1]
   10830: f3 53 01 a9  	stp	x19, x20, [sp, #16]
   10834: f5 5b 02 a9  	stp	x21, x22, [sp, #32]
   10838: f6 03 00 aa  	mov	x22, x0
   1083c: 00 38 40 f9  	ldr	x0, [x0, #112]
   10840: 22 00 40 f9  	ldr	x2, [x1]
   10844: e2 9f 00 f9  	str	x2, [sp, #312]
   10848: 02 00 80 d2  	mov	x2, #0
   1084c: 20 10 00 b4  	cbz	x0, 0x10a50 <bpf_object__create_maps+0x230>
   10850: f9 6b 04 a9  	stp	x25, x26, [sp, #64]
   10854: 7a 43 99 d2  	mov	x26, #51739
   10858: 7a 0d a5 f2  	movk	x26, #10347, lsl #16
   1085c: fa 35 d4 f2  	movk	x26, #41391, lsl #32
   10860: f7 63 03 a9  	stp	x23, x24, [sp, #48]
   10864: 17 00 00 90  	adrp	x23, 0x10000 <bpf_object__create_maps+0x44>
   10868: f7 02 00 91  	add	x23, x23, #0
   1086c: 19 00 80 52  	mov	w25, #0
   10870: 00 00 80 d2  	mov	x0, #0
   10874: 9a d7 f0 f2  	movk	x26, #34492, lsl #48
   10878: fb 73 05 a9  	stp	x27, x28, [sp, #80]
   1087c: 13 08 00 8b  	add	x19, x0, x0, lsl #2
   10880: c1 36 40 f9  	ldr	x1, [x22, #104]
   10884: 73 f6 7e d3  	lsl	x19, x19, #2
   10888: 73 02 00 cb  	sub	x19, x19, x0
   1088c: 15 00 80 52  	mov	w21, #0
   10890: 18 00 00 90  	adrp	x24, 0x10000 <bpf_object__create_maps+0x70>
   10894: 33 0c 13 8b  	add	x19, x1, x19, lsl #3
   10898: 2e 00 00 14  	b	0x10950 <bpf_object__create_maps+0x130>
   1089c: 00 00 00 94  	bl	0x1089c <bpf_object__create_maps+0x7c>
   108a0: fb 03 00 2a  	mov	w27, w0
   108a4: a0 0d f8 36  	tbz	w0, #31, 0x10a58 <bpf_object__create_maps+0x238>
   108a8: 00 00 00 94  	bl	0x108a8 <bpf_object__create_maps+0x88>
   108ac: 14 00 40 b9  	ldr	w20, [x0]
   108b0: 9f 0a 00 71  	cmp	w20, #2
   108b4: e0 1e 00 54  	b.eq	0x10c90 <bpf_object__create_maps+0x470>
   108b8: fc e3 02 91  	add	x28, sp, #184
   108bc: 02 10 80 52  	mov	w2, #128
   108c0: e1 03 1c aa  	mov	x1, x28
   108c4: e0 03 14 2a  	mov	w0, w20
   108c8: 00 00 00 94  	bl	0x108c8 <bpf_object__create_maps+0xa8>
   108cc: e3 03 00 aa  	mov	x3, x0
   108d0: 62 46 40 f9  	ldr	x2, [x19, #136]
   108d4: 01 00 00 90  	adrp	x1, 0x10000 <bpf_object__create_maps+0xb4>
   108d8: 00 00 80 52  	mov	w0, #0
   108dc: 21 00 00 91  	add	x1, x1, #0
   108e0: 00 00 00 94  	bl	0x108e0 <bpf_object__create_maps+0xc0>
   108e4: d4 2c 00 35  	cbnz	w20, 0x10e7c <bpf_object__create_maps+0x65c>
   108e8: 63 0a 40 b9  	ldr	w3, [x19, #8]
   108ec: 95 03 00 34  	cbz	w21, 0x1095c <bpf_object__create_maps+0x13c>
   108f0: a3 29 f8 37  	tbnz	w3, #31, 0x10e24 <bpf_object__create_maps+0x604>
   108f4: 62 02 40 f9  	ldr	x2, [x19]
   108f8: 01 03 00 91  	add	x1, x24, #0
   108fc: 40 00 80 52  	mov	w0, #2
   10900: 00 00 00 94  	bl	0x10900 <bpf_object__create_maps+0xe0>
   10904: 60 46 40 f9  	ldr	x0, [x19, #136]
   10908: 40 09 00 b4  	cbz	x0, 0x10a30 <bpf_object__create_maps+0x210>
   1090c: 60 42 42 39  	ldrb	w0, [x19, #144]
   10910: 00 09 00 35  	cbnz	w0, 0x10a30 <bpf_object__create_maps+0x210>
   10914: e0 03 13 aa  	mov	x0, x19
   10918: 01 00 80 d2  	mov	x1, #0
   1091c: 00 00 00 94  	bl	0x1091c <bpf_object__create_maps+0xfc>
   10920: f4 03 00 2a  	mov	w20, w0
   10924: 60 08 00 34  	cbz	w0, 0x10a30 <bpf_object__create_maps+0x210>
   10928: 60 0a 40 b9  	ldr	w0, [x19, #8]
   1092c: 40 00 f8 37  	tbnz	w0, #31, 0x10934 <bpf_object__create_maps+0x114>
   10930: 00 00 00 94  	bl	0x10930 <bpf_object__create_maps+0x110>
   10934: 9f 46 00 31  	cmn	w20, #17
   10938: 00 00 80 12  	mov	w0, #-1
   1093c: 60 0a 00 b9  	str	w0, [x19, #8]
   10940: b5 02 00 52  	eor	w21, w21, #0x1
   10944: e0 17 9f 1a  	cset	w0, eq
   10948: 15 00 15 6a  	ands	w21, w0, w21
   1094c: 60 23 00 54  	b.eq	0x10db8 <bpf_object__create_maps+0x598>
   10950: 60 46 40 f9  	ldr	x0, [x19, #136]
   10954: 40 fa ff b5  	cbnz	x0, 0x1089c <bpf_object__create_maps+0x7c>
   10958: 63 0a 40 b9  	ldr	w3, [x19, #8]
   1095c: c3 fc ff 36  	tbz	w3, #31, 0x108f4 <bpf_object__create_maps+0xd4>
   10960: e1 03 13 aa  	mov	x1, x19
   10964: e0 03 16 aa  	mov	x0, x22
   10968: 02 00 80 52  	mov	w2, #0
   1096c: c1 fe ff 97  	bl	0x10470 <bpf_object__create_map>
   10970: f4 03 00 2a  	mov	w20, w0
   10974: 40 25 00 35  	cbnz	w0, 0x10e1c <bpf_object__create_maps+0x5fc>
   10978: 63 0a 40 b9  	ldr	w3, [x19, #8]
   1097c: 01 00 00 90  	adrp	x1, 0x10000 <bpf_object__create_maps+0x15c>
   10980: 62 02 40 f9  	ldr	x2, [x19]
   10984: 21 00 00 91  	add	x1, x1, #0
   10988: 40 00 80 52  	mov	w0, #2
   1098c: 00 00 00 94  	bl	0x1098c <bpf_object__create_maps+0x16c>
   10990: 74 5a 40 b9  	ldr	w20, [x19, #88]
   10994: 74 15 00 35  	cbnz	w20, 0x10c40 <bpf_object__create_maps+0x420>
   10998: 61 82 40 b9  	ldr	w1, [x19, #128]
   1099c: 41 fb ff 34  	cbz	w1, 0x10904 <bpf_object__create_maps+0xe4>
   109a0: 60 3e 40 f9  	ldr	x0, [x19, #120]
   109a4: fb 93 01 91  	add	x27, sp, #100
   109a8: f4 83 01 91  	add	x20, sp, #96
   109ac: 03 00 80 52  	mov	w3, #0
   109b0: ff 63 00 b9  	str	wzr, [sp, #96]
   109b4: 1f 20 03 d5  	nop
   109b8: 1c 58 63 f8  	ldr	x28, [x0, w3, uxtw #3]
   109bc: 7c 02 00 b4  	cbz	x28, 0x10a08 <bpf_object__create_maps+0x1e8>
   109c0: c0 52 40 f9  	ldr	x0, [x22, #160]
   109c4: 81 0b 40 b9  	ldr	w1, [x28, #8]
   109c8: e1 67 00 b9  	str	w1, [sp, #100]
   109cc: c0 1a 00 b5  	cbnz	x0, 0x10d24 <bpf_object__create_maps+0x504>
   109d0: 60 0a 40 b9  	ldr	w0, [x19, #8]
   109d4: e2 03 1b aa  	mov	x2, x27
   109d8: e1 03 14 aa  	mov	x1, x20
   109dc: 03 00 80 d2  	mov	x3, #0
   109e0: 00 00 00 94  	bl	0x109e0 <bpf_object__create_maps+0x1c0>
   109e4: c0 1c 00 35  	cbnz	w0, 0x10d7c <bpf_object__create_maps+0x55c>
   109e8: e3 17 4c 29  	ldp	w3, w5, [sp, #96]
   109ec: e1 03 17 aa  	mov	x1, x23
   109f0: 62 02 40 f9  	ldr	x2, [x19]
   109f4: 40 00 80 52  	mov	w0, #2
   109f8: 84 03 40 f9  	ldr	x4, [x28]
   109fc: 00 00 00 94  	bl	0x109fc <bpf_object__create_maps+0x1dc>
   10a00: 61 82 40 b9  	ldr	w1, [x19, #128]
   10a04: 60 3e 40 f9  	ldr	x0, [x19, #120]
   10a08: e3 63 40 b9  	ldr	w3, [sp, #96]
   10a0c: 63 04 00 11  	add	w3, w3, #1
   10a10: e3 63 00 b9  	str	w3, [sp, #96]
   10a14: 7f 00 01 6b  	cmp	w3, w1
   10a18: 03 fd ff 54  	b.lo	0x109b8 <bpf_object__create_maps+0x198>
   10a1c: 00 00 00 94  	bl	0x10a1c <bpf_object__create_maps+0x1fc>
   10a20: 7f 3e 00 f9  	str	xzr, [x19, #120]
   10a24: 60 46 40 f9  	ldr	x0, [x19, #136]
   10a28: 7f 82 00 b9  	str	wzr, [x19, #128]
   10a2c: 00 f7 ff b5  	cbnz	x0, 0x1090c <bpf_object__create_maps+0xec>
   10a30: c1 3a 40 f9  	ldr	x1, [x22, #112]
   10a34: 20 07 00 11  	add	w0, w25, #1
   10a38: f9 03 00 aa  	mov	x25, x0
   10a3c: 1f 00 01 eb  	cmp	x0, x1
   10a40: e3 f1 ff 54  	b.lo	0x1087c <bpf_object__create_maps+0x5c>
   10a44: f7 63 43 a9  	ldp	x23, x24, [sp, #48]
   10a48: f9 6b 44 a9  	ldp	x25, x26, [sp, #64]
   10a4c: fb 73 45 a9  	ldp	x27, x28, [sp, #80]
   10a50: 14 00 80 52  	mov	w20, #0
   10a54: 48 00 00 14  	b	0x10b74 <bpf_object__create_maps+0x354>
   10a58: 00 04 00 4f  	movi	v0.4s, #0
   10a5c: f4 a3 01 91  	add	x20, sp, #104
   10a60: 03 0a 80 52  	mov	w3, #80
   10a64: e1 03 14 aa  	mov	x1, x20
   10a68: e2 93 01 91  	add	x2, sp, #100
   10a6c: e3 67 00 b9  	str	w3, [sp, #100]
   10a70: 80 02 00 ad  	stp	q0, q0, [x20]
   10a74: 80 02 01 ad  	stp	q0, q0, [x20, #32]
   10a78: 80 12 80 3d  	str	q0, [x20, #64]
   10a7c: 00 00 00 94  	bl	0x10a7c <bpf_object__create_maps+0x25c>
   10a80: a0 09 00 34  	cbz	w0, 0x10bb4 <bpf_object__create_maps+0x394>
   10a84: 00 00 00 94  	bl	0x10a84 <bpf_object__create_maps+0x264>
   10a88: fc 03 00 aa  	mov	x28, x0
   10a8c: 00 00 40 b9  	ldr	w0, [x0]
   10a90: 1f 58 00 71  	cmp	w0, #22
   10a94: 80 08 00 54  	b.eq	0x10ba4 <bpf_object__create_maps+0x384>
   10a98: fc e3 02 91  	add	x28, sp, #184
   10a9c: 02 10 80 52  	mov	w2, #128
   10aa0: e1 03 1c aa  	mov	x1, x28
   10aa4: 00 00 00 94  	bl	0x10aa4 <bpf_object__create_maps+0x284>
   10aa8: 01 00 00 90  	adrp	x1, 0x10000 <bpf_object__create_maps+0x288>
   10aac: e3 03 00 aa  	mov	x3, x0
   10ab0: e2 03 1b 2a  	mov	w2, w27
   10ab4: 21 00 00 91  	add	x1, x1, #0
   10ab8: 00 00 80 52  	mov	w0, #0
   10abc: 00 00 00 94  	bl	0x10abc <bpf_object__create_maps+0x29c>
   10ac0: 62 46 40 f9  	ldr	x2, [x19, #136]
   10ac4: 01 00 00 90  	adrp	x1, 0x10000 <bpf_object__create_maps+0x2a4>
   10ac8: 21 00 00 91  	add	x1, x1, #0
   10acc: 00 00 80 52  	mov	w0, #0
   10ad0: b4 02 80 12  	mov	w20, #-22
   10ad4: 00 00 00 94  	bl	0x10ad4 <bpf_object__create_maps+0x2b4>
   10ad8: e0 03 1b 2a  	mov	w0, w27
   10adc: 00 00 00 94  	bl	0x10adc <bpf_object__create_maps+0x2bc>
   10ae0: 62 02 40 f9  	ldr	x2, [x19]
   10ae4: 01 00 00 90  	adrp	x1, 0x10000 <bpf_object__create_maps+0x2c4>
   10ae8: 00 00 80 52  	mov	w0, #0
   10aec: 21 00 00 91  	add	x1, x1, #0
   10af0: 00 00 00 94  	bl	0x10af0 <bpf_object__create_maps+0x2d0>
   10af4: e1 03 1c aa  	mov	x1, x28
   10af8: 02 10 80 52  	mov	w2, #128
   10afc: e0 03 14 2a  	mov	w0, w20
   10b00: 00 00 00 94  	bl	0x10b00 <bpf_object__create_maps+0x2e0>
   10b04: 62 02 40 f9  	ldr	x2, [x19]
   10b08: e3 03 00 aa  	mov	x3, x0
   10b0c: e4 03 14 2a  	mov	w4, w20
   10b10: 01 00 00 90  	adrp	x1, 0x10000 <bpf_object__create_maps+0x2f0>
   10b14: 21 00 00 91  	add	x1, x1, #0
   10b18: 00 00 80 52  	mov	w0, #0
   10b1c: 00 00 00 94  	bl	0x10b1c <bpf_object__create_maps+0x2fc>
   10b20: e0 03 14 2a  	mov	w0, w20
   10b24: 17 c4 ff 97  	bl	0x1b80 <pr_perm_msg>
   10b28: 19 02 00 34  	cbz	w25, 0x10b68 <bpf_object__create_maps+0x348>
   10b2c: 15 13 80 52  	mov	w21, #152
   10b30: 13 00 80 d2  	mov	x19, #0
   10b34: c2 36 40 f9  	ldr	x2, [x22, #104]
   10b38: 35 7f b5 9b  	umull	x21, w25, w21
   10b3c: 17 00 80 12  	mov	w23, #-1
   10b40: 41 00 13 8b  	add	x1, x2, x19
   10b44: 20 08 40 b9  	ldr	w0, [x1, #8]
   10b48: 80 00 f8 37  	tbnz	w0, #31, 0x10b58 <bpf_object__create_maps+0x338>
   10b4c: 00 00 00 94  	bl	0x10b4c <bpf_object__create_maps+0x32c>
   10b50: c2 36 40 f9  	ldr	x2, [x22, #104]
   10b54: 41 00 13 8b  	add	x1, x2, x19
   10b58: 73 62 02 91  	add	x19, x19, #152
   10b5c: 37 08 00 b9  	str	w23, [x1, #8]
   10b60: bf 02 13 eb  	cmp	x21, x19
   10b64: e1 fe ff 54  	b.ne	0x10b40 <bpf_object__create_maps+0x320>
   10b68: f7 63 43 a9  	ldp	x23, x24, [sp, #48]
   10b6c: f9 6b 44 a9  	ldp	x25, x26, [sp, #64]
   10b70: fb 73 45 a9  	ldp	x27, x28, [sp, #80]
   10b74: 00 00 00 90  	adrp	x0, 0x10000 <bpf_object__create_maps+0x354>
   10b78: 00 00 40 f9  	ldr	x0, [x0]
   10b7c: e2 9f 40 f9  	ldr	x2, [sp, #312]
   10b80: 01 00 40 f9  	ldr	x1, [x0]
   10b84: 42 00 01 eb  	subs	x2, x2, x1
   10b88: 01 00 80 d2  	mov	x1, #0
   10b8c: 01 17 00 54  	b.ne	0x10e6c <bpf_object__create_maps+0x64c>
   10b90: e0 03 14 2a  	mov	w0, w20
   10b94: f3 53 41 a9  	ldp	x19, x20, [sp, #16]
   10b98: f5 5b 42 a9  	ldp	x21, x22, [sp, #32]
   10b9c: fd 7b d4 a8  	ldp	x29, x30, [sp], #320
   10ba0: c0 03 5f d6  	ret
   10ba4: e1 03 14 aa  	mov	x1, x20
   10ba8: e0 03 1b 2a  	mov	w0, w27
   10bac: 91 c2 ff 97  	bl	0x15f0 <bpf_get_map_info_from_fdinfo>
   10bb0: a0 15 00 35  	cbnz	w0, 0x10e64 <bpf_object__create_maps+0x644>
   10bb4: 60 22 40 b9  	ldr	w0, [x19, #32]
   10bb8: e1 6b 40 b9  	ldr	w1, [sp, #104]
   10bbc: 3f 00 00 6b  	cmp	w1, w0
   10bc0: 60 00 00 54  	b.eq	0x10bcc <bpf_object__create_maps+0x3ac>
   10bc4: fc e3 02 91  	add	x28, sp, #184
   10bc8: be ff ff 17  	b	0x10ac0 <bpf_object__create_maps+0x2a0>
   10bcc: 60 26 40 b9  	ldr	w0, [x19, #36]
   10bd0: e1 73 40 b9  	ldr	w1, [sp, #112]
   10bd4: 3f 00 00 6b  	cmp	w1, w0
   10bd8: 61 ff ff 54  	b.ne	0x10bc4 <bpf_object__create_maps+0x3a4>
   10bdc: 60 2a 40 b9  	ldr	w0, [x19, #40]
   10be0: e1 77 40 b9  	ldr	w1, [sp, #116]
   10be4: 3f 00 00 6b  	cmp	w1, w0
   10be8: e1 fe ff 54  	b.ne	0x10bc4 <bpf_object__create_maps+0x3a4>
   10bec: 60 2e 40 b9  	ldr	w0, [x19, #44]
   10bf0: e1 7b 40 b9  	ldr	w1, [sp, #120]
   10bf4: 3f 00 00 6b  	cmp	w1, w0
   10bf8: 61 fe ff 54  	b.ne	0x10bc4 <bpf_object__create_maps+0x3a4>
   10bfc: 60 32 40 b9  	ldr	w0, [x19, #48]
   10c00: e1 7f 40 b9  	ldr	w1, [sp, #124]
   10c04: 3f 00 00 6b  	cmp	w1, w0
   10c08: e1 fd ff 54  	b.ne	0x10bc4 <bpf_object__create_maps+0x3a4>
   10c0c: e1 03 1b 2a  	mov	w1, w27
   10c10: e0 03 13 aa  	mov	x0, x19
   10c14: 00 00 00 94  	bl	0x10c14 <bpf_object__create_maps+0x3f4>
   10c18: f4 03 00 2a  	mov	w20, w0
   10c1c: c0 11 00 35  	cbnz	w0, 0x10e54 <bpf_object__create_maps+0x634>
   10c20: 62 46 40 f9  	ldr	x2, [x19, #136]
   10c24: 20 00 80 52  	mov	w0, #1
   10c28: 60 42 02 39  	strb	w0, [x19, #144]
   10c2c: 01 00 00 90  	adrp	x1, 0x10000 <bpf_object__create_maps+0x40c>
   10c30: 40 00 80 52  	mov	w0, #2
   10c34: 21 00 00 91  	add	x1, x1, #0
   10c38: 00 00 00 94  	bl	0x10c38 <bpf_object__create_maps+0x418>
   10c3c: 2b ff ff 17  	b	0x108e8 <bpf_object__create_maps+0xc8>
   10c40: c0 52 40 f9  	ldr	x0, [x22, #160]
   10c44: 62 32 40 f9  	ldr	x2, [x19, #96]
   10c48: ff 67 00 b9  	str	wzr, [sp, #100]
   10c4c: e0 02 00 b4  	cbz	x0, 0x10ca8 <bpf_object__create_maps+0x488>
   10c50: c1 36 40 f9  	ldr	x1, [x22, #104]
   10c54: 94 0e 00 51  	sub	w20, w20, #3
   10c58: 63 2a 40 b9  	ldr	w3, [x19, #40]
   10c5c: 61 02 01 cb  	sub	x1, x19, x1
   10c60: 21 fc 43 93  	asr	x1, x1, #3
   10c64: 21 7c 1a 1b  	mul	w1, w1, w26
   10c68: 00 00 00 94  	bl	0x10c68 <bpf_object__create_maps+0x448>
   10c6c: 9f 06 00 71  	cmp	w20, #1
   10c70: 48 e9 ff 54  	b.hi	0x10998 <bpf_object__create_maps+0x178>
   10c74: c1 36 40 f9  	ldr	x1, [x22, #104]
   10c78: c0 52 40 f9  	ldr	x0, [x22, #160]
   10c7c: 61 02 01 cb  	sub	x1, x19, x1
   10c80: 21 fc 43 93  	asr	x1, x1, #3
   10c84: 21 7c 1a 1b  	mul	w1, w1, w26
   10c88: 00 00 00 94  	bl	0x10c88 <bpf_object__create_maps+0x468>
   10c8c: 43 ff ff 17  	b	0x10998 <bpf_object__create_maps+0x178>
   10c90: 62 46 40 f9  	ldr	x2, [x19, #136]
   10c94: e0 03 14 2a  	mov	w0, w20
   10c98: 01 00 00 90  	adrp	x1, 0x10000 <bpf_object__create_maps+0x478>
   10c9c: 21 00 00 91  	add	x1, x1, #0
   10ca0: 00 00 00 94  	bl	0x10ca0 <bpf_object__create_maps+0x480>
   10ca4: 11 ff ff 17  	b	0x108e8 <bpf_object__create_maps+0xc8>
   10ca8: 60 0a 40 b9  	ldr	w0, [x19, #8]
   10cac: e1 93 01 91  	add	x1, sp, #100
   10cb0: 03 00 80 d2  	mov	x3, #0
   10cb4: 00 00 00 94  	bl	0x10cb4 <bpf_object__create_maps+0x494>
   10cb8: 20 09 00 35  	cbnz	w0, 0x10ddc <bpf_object__create_maps+0x5bc>
   10cbc: 94 0e 00 51  	sub	w20, w20, #3
   10cc0: 9f 06 00 71  	cmp	w20, #1
   10cc4: a8 e6 ff 54  	b.hi	0x10998 <bpf_object__create_maps+0x178>
   10cc8: 60 0a 40 b9  	ldr	w0, [x19, #8]
   10ccc: 00 00 00 94  	bl	0x10ccc <bpf_object__create_maps+0x4ac>
   10cd0: 40 e6 ff 34  	cbz	w0, 0x10998 <bpf_object__create_maps+0x178>
   10cd4: 00 00 00 94  	bl	0x10cd4 <bpf_object__create_maps+0x4b4>
   10cd8: 14 00 40 b9  	ldr	w20, [x0]
   10cdc: fc e3 02 91  	add	x28, sp, #184
   10ce0: 02 10 80 52  	mov	w2, #128
   10ce4: f4 03 14 4b  	neg	w20, w20
   10ce8: e1 03 1c aa  	mov	x1, x28
   10cec: e0 03 14 2a  	mov	w0, w20
   10cf0: 00 00 00 94  	bl	0x10cf0 <bpf_object__create_maps+0x4d0>
   10cf4: 62 02 40 f9  	ldr	x2, [x19]
   10cf8: e3 03 00 aa  	mov	x3, x0
   10cfc: 01 00 00 90  	adrp	x1, 0x10000 <bpf_object__create_maps+0x4dc>
   10d00: 00 00 80 52  	mov	w0, #0
   10d04: 21 00 00 91  	add	x1, x1, #0
   10d08: 00 00 00 94  	bl	0x10d08 <bpf_object__create_maps+0x4e8>
   10d0c: 74 e4 ff 36  	tbz	w20, #31, 0x10998 <bpf_object__create_maps+0x178>
   10d10: 60 0a 40 b9  	ldr	w0, [x19, #8]
   10d14: 80 09 f8 36  	tbz	w0, #31, 0x10e44 <bpf_object__create_maps+0x624>
   10d18: 00 00 80 12  	mov	w0, #-1
   10d1c: 60 0a 00 b9  	str	w0, [x19, #8]
   10d20: 75 ff ff 17  	b	0x10af4 <bpf_object__create_maps+0x2d4>
   10d24: c0 36 40 f9  	ldr	x0, [x22, #104]
   10d28: 65 43 99 d2  	mov	x5, #51739
   10d2c: 65 0d a5 f2  	movk	x5, #10347, lsl #16
   10d30: 01 00 00 90  	adrp	x1, 0x10000 <bpf_object__create_maps+0x510>
   10d34: 84 03 00 cb  	sub	x4, x28, x0
   10d38: 62 02 00 cb  	sub	x2, x19, x0
   10d3c: e5 35 d4 f2  	movk	x5, #41391, lsl #32
   10d40: 21 00 00 91  	add	x1, x1, #0
   10d44: 84 fc 43 93  	asr	x4, x4, #3
   10d48: 42 fc 43 93  	asr	x2, x2, #3
   10d4c: 85 d7 f0 f2  	movk	x5, #34492, lsl #48
   10d50: d4 0b 80 12  	mov	w20, #-95
   10d54: 00 00 80 52  	mov	w0, #0
   10d58: 84 7c 05 9b  	mul	x4, x4, x5
   10d5c: 42 7c 05 9b  	mul	x2, x2, x5
   10d60: 00 00 00 94  	bl	0x10d60 <bpf_object__create_maps+0x540>
   10d64: 60 0a 40 b9  	ldr	w0, [x19, #8]
   10d68: 20 07 f8 36  	tbz	w0, #31, 0x10e4c <bpf_object__create_maps+0x62c>
   10d6c: 00 00 80 12  	mov	w0, #-1
   10d70: fc e3 02 91  	add	x28, sp, #184
   10d74: 60 0a 00 b9  	str	w0, [x19, #8]
   10d78: 5f ff ff 17  	b	0x10af4 <bpf_object__create_maps+0x2d4>
   10d7c: 00 00 00 94  	bl	0x10d7c <bpf_object__create_maps+0x55c>
   10d80: e6 03 00 aa  	mov	x6, x0
   10d84: e3 17 4c 29  	ldp	w3, w5, [sp, #96]
   10d88: 01 00 00 90  	adrp	x1, 0x10000 <bpf_object__create_maps+0x568>
   10d8c: 62 02 40 f9  	ldr	x2, [x19]
   10d90: 21 00 00 91  	add	x1, x1, #0
   10d94: 84 03 40 f9  	ldr	x4, [x28]
   10d98: 00 00 80 52  	mov	w0, #0
   10d9c: db 00 40 b9  	ldr	w27, [x6]
   10da0: f4 03 1b 4b  	neg	w20, w27
   10da4: e6 03 14 2a  	mov	w6, w20
   10da8: 00 00 00 94  	bl	0x10da8 <bpf_object__create_maps+0x588>
   10dac: 7f 03 00 71  	cmp	w27, #0
   10db0: ad da ff 54  	b.le	0x10904 <bpf_object__create_maps+0xe4>
   10db4: ec ff ff 17  	b	0x10d64 <bpf_object__create_maps+0x544>
   10db8: 62 02 40 f9  	ldr	x2, [x19]
   10dbc: e4 03 14 2a  	mov	w4, w20
   10dc0: 63 46 40 f9  	ldr	x3, [x19, #136]
   10dc4: fc e3 02 91  	add	x28, sp, #184
   10dc8: 01 00 00 90  	adrp	x1, 0x10000 <bpf_object__create_maps+0x5a8>
   10dcc: 00 00 80 52  	mov	w0, #0
   10dd0: 21 00 00 91  	add	x1, x1, #0
   10dd4: 00 00 00 94  	bl	0x10dd4 <bpf_object__create_maps+0x5b4>
   10dd8: 47 ff ff 17  	b	0x10af4 <bpf_object__create_maps+0x2d4>
   10ddc: 00 00 00 94  	bl	0x10ddc <bpf_object__create_maps+0x5bc>
   10de0: 14 00 40 b9  	ldr	w20, [x0]
   10de4: fc e3 02 91  	add	x28, sp, #184
   10de8: 02 10 80 52  	mov	w2, #128
   10dec: f4 03 14 4b  	neg	w20, w20
   10df0: e1 03 1c aa  	mov	x1, x28
   10df4: e0 03 14 2a  	mov	w0, w20
   10df8: 00 00 00 94  	bl	0x10df8 <bpf_object__create_maps+0x5d8>
   10dfc: 62 02 40 f9  	ldr	x2, [x19]
   10e00: e3 03 00 aa  	mov	x3, x0
   10e04: 01 00 00 90  	adrp	x1, 0x10000 <bpf_object__create_maps+0x5e4>
   10e08: 00 00 80 52  	mov	w0, #0
   10e0c: 21 00 00 91  	add	x1, x1, #0
   10e10: 00 00 00 94  	bl	0x10e10 <bpf_object__create_maps+0x5f0>
   10e14: f4 f7 ff 37  	tbnz	w20, #31, 0x10d10 <bpf_object__create_maps+0x4f0>
   10e18: e0 fe ff 17  	b	0x10998 <bpf_object__create_maps+0x178>
   10e1c: fc e3 02 91  	add	x28, sp, #184
   10e20: 35 ff ff 17  	b	0x10af4 <bpf_object__create_maps+0x2d4>
   10e24: 62 02 40 f9  	ldr	x2, [x19]
   10e28: fc e3 02 91  	add	x28, sp, #184
   10e2c: 01 00 00 90  	adrp	x1, 0x10000 <bpf_object__create_maps+0x60c>
   10e30: 00 00 80 52  	mov	w0, #0
   10e34: 21 00 00 91  	add	x1, x1, #0
   10e38: 34 00 80 12  	mov	w20, #-2
   10e3c: 00 00 00 94  	bl	0x10e3c <bpf_object__create_maps+0x61c>
   10e40: 2d ff ff 17  	b	0x10af4 <bpf_object__create_maps+0x2d4>
   10e44: 00 00 00 94  	bl	0x10e44 <bpf_object__create_maps+0x624>
   10e48: b4 ff ff 17  	b	0x10d18 <bpf_object__create_maps+0x4f8>
   10e4c: 00 00 00 94  	bl	0x10e4c <bpf_object__create_maps+0x62c>
   10e50: c7 ff ff 17  	b	0x10d6c <bpf_object__create_maps+0x54c>
   10e54: e0 03 1b 2a  	mov	w0, w27
   10e58: fc e3 02 91  	add	x28, sp, #184
   10e5c: 00 00 00 94  	bl	0x10e5c <bpf_object__create_maps+0x63c>
   10e60: 20 ff ff 17  	b	0x10ae0 <bpf_object__create_maps+0x2c0>
   10e64: 80 03 40 b9  	ldr	w0, [x28]
   10e68: 0c ff ff 17  	b	0x10a98 <bpf_object__create_maps+0x278>
   10e6c: f7 63 03 a9  	stp	x23, x24, [sp, #48]
   10e70: f9 6b 04 a9  	stp	x25, x26, [sp, #64]
   10e74: fb 73 05 a9  	stp	x27, x28, [sp, #80]
   10e78: 00 00 00 94  	bl	0x10e78 <bpf_object__create_maps+0x658>
   10e7c: f4 03 14 4b  	neg	w20, w20
   10e80: 18 ff ff 17  	b	0x10ae0 <bpf_object__create_maps+0x2c0>

0000000000010e84 <bpf_object__load_xattr>:
   10e84: ff 43 08 d1  	sub	sp, sp, #528
   10e88: 01 00 00 90  	adrp	x1, 0x10000 <bpf_object__load_xattr+0x4>
   10e8c: e2 03 00 aa  	mov	x2, x0
   10e90: fd 7b 01 a9  	stp	x29, x30, [sp, #16]
   10e94: fd 43 00 91  	add	x29, sp, #16
   10e98: 21 00 40 f9  	ldr	x1, [x1]
   10e9c: f3 53 02 a9  	stp	x19, x20, [sp, #32]
   10ea0: e0 77 00 f9  	str	x0, [sp, #232]
   10ea4: 20 00 40 f9  	ldr	x0, [x1]
   10ea8: e0 07 01 f9  	str	x0, [sp, #520]
   10eac: 00 00 80 d2  	mov	x0, #0
   10eb0: 42 11 01 b4  	cbz	x2, 0x130d8 <bpf_object__load_xattr+0x2254>
   10eb4: e0 77 40 f9  	ldr	x0, [sp, #232]
   10eb8: fb 73 06 a9  	stp	x27, x28, [sp, #96]
   10ebc: 1b 00 40 f9  	ldr	x27, [x0]
   10ec0: 3b 09 01 b4  	cbz	x27, 0x12fe4 <bpf_object__load_xattr+0x2160>
   10ec4: f7 63 04 a9  	stp	x23, x24, [sp, #64]
   10ec8: 77 73 42 39  	ldrb	w23, [x27, #156]
   10ecc: 57 07 01 35  	cbnz	w23, 0x12fb4 <bpf_object__load_xattr+0x2130>
   10ed0: 60 53 40 f9  	ldr	x0, [x27, #160]
   10ed4: f5 5b 03 a9  	stp	x21, x22, [sp, #48]
   10ed8: 20 63 00 b4  	cbz	x0, 0x11b3c <bpf_object__load_xattr+0xcb8>
   10edc: e1 77 40 f9  	ldr	x1, [sp, #232]
   10ee0: 21 08 40 b9  	ldr	w1, [x1, #8]
   10ee4: 00 00 00 94  	bl	0x10ee4 <bpf_object__load_xattr+0x60>
   10ee8: 60 53 40 f9  	ldr	x0, [x27, #160]
   10eec: e2 16 80 d2  	mov	x2, #183
   10ef0: a1 12 80 d2  	mov	x1, #149
   10ef4: e2 87 17 a9  	stp	x2, x1, [sp, #376]
   10ef8: 80 62 00 b4  	cbz	x0, 0x11b48 <bpf_object__load_xattr+0xcc4>
   10efc: f9 6b 05 a9  	stp	x25, x26, [sp, #80]
   10f00: 7a 93 40 b9  	ldr	w26, [x27, #144]
   10f04: 60 43 40 f9  	ldr	x0, [x27, #128]
   10f08: e0 4b 00 f9  	str	x0, [sp, #144]
   10f0c: 1a 14 00 34  	cbz	w26, 0x1118c <bpf_object__load_xattr+0x308>
   10f10: 60 97 40 b9  	ldr	w0, [x27, #148]
   10f14: ff 43 00 f9  	str	xzr, [sp, #128]
   10f18: c0 00 f8 37  	tbnz	w0, #31, 0x10f30 <bpf_object__load_xattr+0xac>
   10f1c: 61 37 40 f9  	ldr	x1, [x27, #104]
   10f20: 02 13 80 52  	mov	w2, #152
   10f24: 00 04 22 9b  	smaddl	x0, w0, w2, x1
   10f28: 00 30 40 f9  	ldr	x0, [x0, #96]
   10f2c: e0 43 00 f9  	str	x0, [sp, #128]
   10f30: 14 00 80 52  	mov	w20, #0
   10f34: 15 00 80 52  	mov	w21, #0
   10f38: 1c 00 80 d2  	mov	x28, #0
   10f3c: 5f 03 00 71  	cmp	w26, #0
   10f40: ad 0f 00 54  	b.le	0x11134 <bpf_object__load_xattr+0x2b0>
   10f44: 19 00 00 90  	adrp	x25, 0x10000 <bpf_object__load_xattr+0xc0>
   10f48: 18 00 00 90  	adrp	x24, 0x10000 <bpf_object__load_xattr+0xc4>
   10f4c: 20 03 00 91  	add	x0, x25, #0
   10f50: 13 03 00 91  	add	x19, x24, #0
   10f54: f9 03 1c aa  	mov	x25, x28
   10f58: 36 00 80 52  	mov	w22, #1
   10f5c: fc 03 1b aa  	mov	x28, x27
   10f60: e0 3f 00 f9  	str	x0, [sp, #120]
   10f64: f7 8b 00 b9  	str	w23, [sp, #136]
   10f68: 0a 00 00 14  	b	0x10f90 <bpf_object__load_xattr+0x10c>
   10f6c: 7f 0b 00 71  	cmp	w27, #2
   10f70: 61 04 01 54  	b.ne	0x12ffc <bpf_object__load_xattr+0x2178>
   10f74: 00 33 40 b9  	ldr	w0, [x24, #48]
   10f78: 1f 00 00 71  	cmp	w0, #0
   10f7c: b5 12 96 1a  	csel	w21, w21, w22, ne
   10f80: 94 02 96 1a  	csel	w20, w20, w22, eq
   10f84: 39 07 00 91  	add	x25, x25, #1
   10f88: 5f 03 19 6b  	cmp	w26, w25
   10f8c: 0d 0c 00 54  	b.le	0x1110c <bpf_object__load_xattr+0x288>
   10f90: 20 f3 7d d3  	lsl	x0, x25, #3
   10f94: 00 00 19 cb  	sub	x0, x0, x25
   10f98: 81 47 40 f9  	ldr	x1, [x28, #136]
   10f9c: 00 f0 7d d3  	lsl	x0, x0, #3
   10fa0: 38 00 00 8b  	add	x24, x1, x0
   10fa4: 3b 68 60 b8  	ldr	w27, [x1, x0]
   10fa8: 7f 07 00 71  	cmp	w27, #1
   10fac: 01 fe ff 54  	b.ne	0x10f6c <bpf_object__load_xattr+0xe8>
   10fb0: 17 0b 40 f9  	ldr	x23, [x24, #16]
   10fb4: e1 03 13 aa  	mov	x1, x19
   10fb8: e0 03 17 aa  	mov	x0, x23
   10fbc: 00 00 00 94  	bl	0x10fbc <bpf_object__load_xattr+0x138>
   10fc0: e0 54 00 34  	cbz	w0, 0x11a5c <bpf_object__load_xattr+0xbd8>
   10fc4: e1 3f 40 f9  	ldr	x1, [sp, #120]
   10fc8: e0 03 17 aa  	mov	x0, x23
   10fcc: e2 00 80 d2  	mov	x2, #7
   10fd0: 00 00 00 94  	bl	0x10fd0 <bpf_object__load_xattr+0x14c>
   10fd4: 40 09 00 34  	cbz	w0, 0x110fc <bpf_object__load_xattr+0x278>
   10fd8: fb 03 1c aa  	mov	x27, x28
   10fdc: f9 03 17 aa  	mov	x25, x23
   10fe0: e2 03 19 aa  	mov	x2, x25
   10fe4: 01 00 00 90  	adrp	x1, 0x10000 <bpf_object__load_xattr+0x160>
   10fe8: 00 00 80 52  	mov	w0, #0
   10fec: 21 00 00 91  	add	x1, x1, #0
   10ff0: 00 00 00 94  	bl	0x10ff0 <bpf_object__load_xattr+0x16c>
   10ff4: b3 02 80 12  	mov	w19, #-22
   10ff8: f9 6b 45 a9  	ldp	x25, x26, [sp, #80]
   10ffc: 1f 20 03 d5  	nop
   11000: 60 53 40 f9  	ldr	x0, [x27, #160]
   11004: 60 02 00 b4  	cbz	x0, 0x11050 <bpf_object__load_xattr+0x1cc>
   11008: 60 c3 40 f9  	ldr	x0, [x27, #384]
   1100c: 60 00 00 b4  	cbz	x0, 0x11018 <bpf_object__load_xattr+0x194>
   11010: 01 00 80 12  	mov	w1, #-1
   11014: 00 00 00 94  	bl	0x11014 <bpf_object__load_xattr+0x190>
   11018: 60 3b 40 f9  	ldr	x0, [x27, #112]
   1101c: 80 01 00 b4  	cbz	x0, 0x1104c <bpf_object__load_xattr+0x1c8>
   11020: 01 08 00 8b  	add	x1, x0, x0, lsl #2
   11024: 02 00 80 12  	mov	w2, #-1
   11028: 63 37 40 f9  	ldr	x3, [x27, #104]
   1102c: 21 f4 7e d3  	lsl	x1, x1, #2
   11030: 21 00 00 cb  	sub	x1, x1, x0
   11034: 60 20 00 91  	add	x0, x3, #8
   11038: 61 0c 01 8b  	add	x1, x3, x1, lsl #3
   1103c: 21 20 00 91  	add	x1, x1, #8
   11040: 02 84 09 b8  	str	w2, [x0], #152
   11044: 3f 00 00 eb  	cmp	x1, x0
   11048: c1 ff ff 54  	b.ne	0x11040 <bpf_object__load_xattr+0x1bc>
   1104c: b3 90 00 34  	cbz	w19, 0x12260 <bpf_object__load_xattr+0x13dc>
   11050: 60 df 40 f9  	ldr	x0, [x27, #440]
   11054: 14 00 80 d2  	mov	x20, #0
   11058: 15 00 80 d2  	mov	x21, #0
   1105c: 20 02 00 b4  	cbz	x0, 0x110a0 <bpf_object__load_xattr+0x21c>
   11060: 60 d7 40 f9  	ldr	x0, [x27, #424]
   11064: b5 06 00 91  	add	x21, x21, #1
   11068: 00 00 14 8b  	add	x0, x0, x20
   1106c: 00 14 40 b9  	ldr	w0, [x0, #20]
   11070: 00 00 00 94  	bl	0x11070 <bpf_object__load_xattr+0x1ec>
   11074: 60 d7 40 f9  	ldr	x0, [x27, #424]
   11078: 00 68 74 f8  	ldr	x0, [x0, x20]
   1107c: 00 00 00 94  	bl	0x1107c <bpf_object__load_xattr+0x1f8>
   11080: 60 d7 40 f9  	ldr	x0, [x27, #424]
   11084: 00 00 14 8b  	add	x0, x0, x20
   11088: 94 62 00 91  	add	x20, x20, #24
   1108c: 00 04 40 f9  	ldr	x0, [x0, #8]
   11090: 00 00 00 94  	bl	0x11090 <bpf_object__load_xattr+0x20c>
   11094: 60 df 40 f9  	ldr	x0, [x27, #440]
   11098: 1f 00 15 eb  	cmp	x0, x21
   1109c: 28 fe ff 54  	b.hi	0x11060 <bpf_object__load_xattr+0x1dc>
   110a0: 60 d7 40 f9  	ldr	x0, [x27, #424]
   110a4: 00 00 00 94  	bl	0x110a4 <bpf_object__load_xattr+0x220>
   110a8: 60 cb 40 f9  	ldr	x0, [x27, #400]
   110ac: 00 00 00 94  	bl	0x110ac <bpf_object__load_xattr+0x228>
   110b0: 7f cb 00 f9  	str	xzr, [x27, #400]
   110b4: 20 00 80 52  	mov	w0, #1
   110b8: 60 73 02 39  	strb	w0, [x27, #156]
   110bc: 73 4f 00 35  	cbnz	w19, 0x11aa8 <bpf_object__load_xattr+0xc24>
   110c0: f5 5b 43 a9  	ldp	x21, x22, [sp, #48]
   110c4: f7 63 44 a9  	ldp	x23, x24, [sp, #64]
   110c8: fb 73 46 a9  	ldp	x27, x28, [sp, #96]
   110cc: 00 00 00 90  	adrp	x0, 0x11000 <bpf_object__load_xattr+0x248>
   110d0: 00 00 40 f9  	ldr	x0, [x0]
   110d4: e2 07 41 f9  	ldr	x2, [sp, #520]
   110d8: 01 00 40 f9  	ldr	x1, [x0]
   110dc: 42 00 01 eb  	subs	x2, x2, x1
   110e0: 01 00 80 d2  	mov	x1, #0
   110e4: 21 f9 00 54  	b.ne	0x13008 <bpf_object__load_xattr+0x2184>
   110e8: e0 03 13 2a  	mov	w0, w19
   110ec: fd 7b 41 a9  	ldp	x29, x30, [sp, #16]
   110f0: f3 53 42 a9  	ldp	x19, x20, [sp, #32]
   110f4: ff 43 08 91  	add	sp, sp, #528
   110f8: c0 03 5f d6  	ret
   110fc: 39 07 00 91  	add	x25, x25, #1
   11100: fb 8b 00 b9  	str	w27, [sp, #136]
   11104: 5f 03 19 6b  	cmp	w26, w25
   11108: 4c f4 ff 54  	b.gt	0x10f90 <bpf_object__load_xattr+0x10c>
   1110c: e0 4b 40 f9  	ldr	x0, [sp, #144]
   11110: fb 03 1c aa  	mov	x27, x28
   11114: f7 8b 40 b9  	ldr	w23, [sp, #136]
   11118: 1f 00 00 f1  	cmp	x0, #0
   1111c: e4 1a 40 7a  	ccmp	w23, #0, #4, ne
   11120: e1 bd 00 54  	b.ne	0x128dc <bpf_object__load_xattr+0x1a58>
   11124: 97 c0 00 35  	cbnz	w23, 0x12934 <bpf_object__load_xattr+0x1ab0>
   11128: 95 da 00 35  	cbnz	w21, 0x12c78 <bpf_object__load_xattr+0x1df4>
   1112c: 7a 93 40 b9  	ldr	w26, [x27, #144]
   11130: 94 b4 00 35  	cbnz	w20, 0x127c0 <bpf_object__load_xattr+0x193c>
   11134: 15 00 00 90  	adrp	x21, 0x11000 <bpf_object__load_xattr+0x2b0>
   11138: 14 00 80 d2  	mov	x20, #0
   1113c: b5 02 00 91  	add	x21, x21, #0
   11140: 13 00 80 52  	mov	w19, #0
   11144: 5f 03 00 71  	cmp	w26, #0
   11148: 2d 02 00 54  	b.le	0x1118c <bpf_object__load_xattr+0x308>
   1114c: 1f 20 03 d5  	nop
   11150: 60 47 40 f9  	ldr	x0, [x27, #136]
   11154: 00 00 14 8b  	add	x0, x0, x20
   11158: 02 60 40 39  	ldrb	w2, [x0, #24]
   1115c: 02 01 00 35  	cbnz	w2, 0x1117c <bpf_object__load_xattr+0x2f8>
   11160: 03 64 40 39  	ldrb	w3, [x0, #25]
   11164: 02 08 40 f9  	ldr	x2, [x0, #16]
   11168: a3 d7 00 34  	cbz	w3, 0x12c5c <bpf_object__load_xattr+0x1dd8>
   1116c: e1 03 15 aa  	mov	x1, x21
   11170: 40 00 80 52  	mov	w0, #2
   11174: 00 00 00 94  	bl	0x11174 <bpf_object__load_xattr+0x2f0>
   11178: 7a 93 40 b9  	ldr	w26, [x27, #144]
   1117c: 73 06 00 11  	add	w19, w19, #1
   11180: 94 e2 00 91  	add	x20, x20, #56
   11184: 7f 02 1a 6b  	cmp	w19, w26
   11188: 4b fe ff 54  	b.lt	0x11150 <bpf_object__load_xattr+0x2cc>
   1118c: 76 c3 40 f9  	ldr	x22, [x27, #384]
   11190: d6 02 00 b4  	cbz	x22, 0x111e8 <bpf_object__load_xattr+0x364>
   11194: 60 53 40 f9  	ldr	x0, [x27, #160]
   11198: c0 86 00 b4  	cbz	x0, 0x12270 <bpf_object__load_xattr+0x13ec>
   1119c: 65 33 40 f9  	ldr	x5, [x27, #96]
   111a0: 1a 00 80 d2  	mov	x26, #0
   111a4: 19 00 80 d2  	mov	x25, #0
   111a8: 17 80 a1 52  	mov	w23, #201326592
   111ac: 25 59 00 b5  	cbnz	x5, 0x11cd0 <bpf_object__load_xattr+0xe4c>
   111b0: 61 53 40 f9  	ldr	x1, [x27, #160]
   111b4: e1 87 00 b4  	cbz	x1, 0x122b0 <bpf_object__load_xattr+0x142c>
   111b8: e1 63 04 91  	add	x1, sp, #280
   111bc: e0 03 16 aa  	mov	x0, x22
   111c0: ff 1b 01 b9  	str	wzr, [sp, #280]
   111c4: 00 00 00 94  	bl	0x111c4 <bpf_object__load_xattr+0x340>
   111c8: e1 03 00 aa  	mov	x1, x0
   111cc: 00 d9 00 b4  	cbz	x0, 0x12cec <bpf_object__load_xattr+0x1e68>
   111d0: e2 1b 41 b9  	ldr	w2, [sp, #280]
   111d4: 60 53 40 f9  	ldr	x0, [x27, #160]
   111d8: 00 00 00 94  	bl	0x111d8 <bpf_object__load_xattr+0x354>
   111dc: e0 03 16 aa  	mov	x0, x22
   111e0: 01 00 80 52  	mov	w1, #0
   111e4: 00 00 00 94  	bl	0x111e4 <bpf_object__load_xattr+0x360>
   111e8: 73 37 40 f9  	ldr	x19, [x27, #104]
   111ec: 13 01 00 b5  	cbnz	x19, 0x1120c <bpf_object__load_xattr+0x388>
   111f0: 1e 00 00 14  	b	0x11268 <bpf_object__load_xattr+0x3e4>
   111f4: e0 03 13 aa  	mov	x0, x19
   111f8: e1 03 1b aa  	mov	x1, x27
   111fc: 22 00 80 52  	mov	w2, #1
   11200: c4 c9 ff 97  	bl	0x3910 <__bpf_map__iter>
   11204: f3 03 00 aa  	mov	x19, x0
   11208: 00 03 00 b4  	cbz	x0, 0x11268 <bpf_object__load_xattr+0x3e4>
   1120c: 60 5a 40 b9  	ldr	w0, [x19, #88]
   11210: 20 ff ff 34  	cbz	w0, 0x111f4 <bpf_object__load_xattr+0x370>
   11214: 60 53 40 f9  	ldr	x0, [x27, #160]
   11218: e0 fe ff b5  	cbnz	x0, 0x111f4 <bpf_object__load_xattr+0x370>
   1121c: 20 00 80 52  	mov	w0, #1
   11220: 78 c1 ff 97  	bl	0x1800 <kernel_supports.part.0>
   11224: 1f 1c 00 72  	tst	w0, #0xff
   11228: 60 a9 00 54  	b.eq	0x12754 <bpf_object__load_xattr+0x18d0>
   1122c: 60 53 40 f9  	ldr	x0, [x27, #160]
   11230: 20 fe ff b5  	cbnz	x0, 0x111f4 <bpf_object__load_xattr+0x370>
   11234: c0 00 80 52  	mov	w0, #6
   11238: 72 c1 ff 97  	bl	0x1800 <kernel_supports.part.0>
   1123c: 1f 1c 00 72  	tst	w0, #0xff
   11240: a1 fd ff 54  	b.ne	0x111f4 <bpf_object__load_xattr+0x370>
   11244: 60 32 40 b9  	ldr	w0, [x19, #48]
   11248: e1 03 1b aa  	mov	x1, x27
   1124c: 22 00 80 52  	mov	w2, #1
   11250: 00 00 16 52  	eor	w0, w0, #0x400
   11254: 60 32 00 b9  	str	w0, [x19, #48]
   11258: e0 03 13 aa  	mov	x0, x19
   1125c: ad c9 ff 97  	bl	0x3910 <__bpf_map__iter>
   11260: f3 03 00 aa  	mov	x19, x0
   11264: 40 fd ff b5  	cbnz	x0, 0x1120c <bpf_object__load_xattr+0x388>
   11268: 61 3b 40 f9  	ldr	x1, [x27, #112]
   1126c: ff 43 00 f9  	str	xzr, [sp, #128]
   11270: ff 5f 00 f9  	str	xzr, [sp, #184]
   11274: 81 21 00 b4  	cbz	x1, 0x116a4 <bpf_object__load_xattr+0x820>
   11278: 00 00 00 90  	adrp	x0, 0x11000 <bpf_object__load_xattr+0x3f4>
   1127c: 00 00 00 91  	add	x0, x0, #0
   11280: fb 53 00 f9  	str	x27, [sp, #160]
   11284: e0 7b 00 f9  	str	x0, [sp, #240]
   11288: 09 00 00 14  	b	0x112ac <bpf_object__load_xattr+0x428>
   1128c: e2 43 40 f9  	ldr	x2, [sp, #128]
   11290: e0 5f 40 f9  	ldr	x0, [sp, #184]
   11294: 42 60 02 91  	add	x2, x2, #152
   11298: e2 43 00 f9  	str	x2, [sp, #128]
   1129c: 00 04 00 91  	add	x0, x0, #1
   112a0: e0 5f 00 f9  	str	x0, [sp, #184]
   112a4: 1f 00 01 eb  	cmp	x0, x1
   112a8: c2 1f 00 54  	b.hs	0x116a0 <bpf_object__load_xattr+0x81c>
   112ac: e0 53 40 f9  	ldr	x0, [sp, #160]
   112b0: e2 43 40 f9  	ldr	x2, [sp, #128]
   112b4: 00 34 40 f9  	ldr	x0, [x0, #104]
   112b8: 1c 00 02 8b  	add	x28, x0, x2
   112bc: 80 23 40 b9  	ldr	w0, [x28, #32]
   112c0: 1f 68 00 71  	cmp	w0, #26
   112c4: 41 fe ff 54  	b.ne	0x1128c <bpf_object__load_xattr+0x408>
   112c8: 81 37 40 f9  	ldr	x1, [x28, #104]
   112cc: e1 63 00 f9  	str	x1, [sp, #192]
   112d0: e3 53 40 f9  	ldr	x3, [sp, #160]
   112d4: 82 00 80 52  	mov	w2, #4
   112d8: 35 00 40 f9  	ldr	x21, [x1]
   112dc: 74 c8 40 f9  	ldr	x20, [x3, #400]
   112e0: 21 04 40 f9  	ldr	x1, [x1, #8]
   112e4: e0 03 14 aa  	mov	x0, x20
   112e8: e1 4f 00 f9  	str	x1, [sp, #152]
   112ec: e1 03 15 aa  	mov	x1, x21
   112f0: 76 c0 40 f9  	ldr	x22, [x3, #384]
   112f4: 00 00 00 94  	bl	0x112f4 <bpf_object__load_xattr+0x470>
   112f8: f3 03 00 2a  	mov	w19, w0
   112fc: c0 57 f8 37  	tbnz	w0, #31, 0x11df4 <bpf_object__load_xattr+0xf70>
   11300: e1 03 00 2a  	mov	w1, w0
   11304: f9 23 06 91  	add	x25, sp, #392
   11308: e0 03 14 aa  	mov	x0, x20
   1130c: 00 00 00 94  	bl	0x1130c <bpf_object__load_xattr+0x488>
   11310: 03 10 80 d2  	mov	x3, #128
   11314: f7 03 00 aa  	mov	x23, x0
   11318: e1 03 03 aa  	mov	x1, x3
   1131c: e0 03 19 aa  	mov	x0, x25
   11320: e6 03 15 aa  	mov	x6, x21
   11324: 18 00 00 90  	adrp	x24, 0x11000 <bpf_object__load_xattr+0x4a0>
   11328: 04 00 00 90  	adrp	x4, 0x11000 <bpf_object__load_xattr+0x4a4>
   1132c: 05 03 00 91  	add	x5, x24, #0
   11330: 84 00 00 91  	add	x4, x4, #0
   11334: 22 00 80 52  	mov	w2, #1
   11338: 00 00 00 94  	bl	0x11338 <bpf_object__load_xattr+0x4b4>
   1133c: f3 cf 00 b9  	str	w19, [sp, #204]
   11340: 1f fc 01 71  	cmp	w0, #127
   11344: 28 d7 00 54  	b.hi	0x12e28 <bpf_object__load_xattr+0x1fa4>
   11348: e1 03 19 aa  	mov	x1, x25
   1134c: e0 03 14 aa  	mov	x0, x20
   11350: 82 00 80 52  	mov	w2, #4
   11354: 00 00 00 94  	bl	0x11354 <bpf_object__load_xattr+0x4d0>
   11358: f3 03 00 2a  	mov	w19, w0
   1135c: 00 77 f8 37  	tbnz	w0, #31, 0x1223c <bpf_object__load_xattr+0x13b8>
   11360: e1 03 00 2a  	mov	w1, w0
   11364: e0 03 14 aa  	mov	x0, x20
   11368: 00 00 00 94  	bl	0x11368 <bpf_object__load_xattr+0x4e4>
   1136c: 03 08 40 79  	ldrh	w3, [x0, #4]
   11370: fa 03 00 aa  	mov	x26, x0
   11374: 19 30 00 91  	add	x25, x0, #12
   11378: 83 52 00 34  	cbz	w3, 0x11dc8 <bpf_object__load_xattr+0xf44>
   1137c: e2 cf 40 b9  	ldr	w2, [sp, #204]
   11380: 01 00 80 52  	mov	w1, #0
   11384: 05 00 00 14  	b	0x11398 <bpf_object__load_xattr+0x514>
   11388: 21 04 00 11  	add	w1, w1, #1
   1138c: 39 33 00 91  	add	x25, x25, #12
   11390: 3f 00 03 6b  	cmp	w1, w3
   11394: a0 51 00 54  	b.eq	0x11dc8 <bpf_object__load_xattr+0xf44>
   11398: 20 07 40 b9  	ldr	w0, [x25, #4]
   1139c: 5f 00 00 6b  	cmp	w2, w0
   113a0: 41 ff ff 54  	b.ne	0x11388 <bpf_object__load_xattr+0x504>
   113a4: f5 63 40 f9  	ldr	x21, [sp, #192]
   113a8: e5 03 13 2a  	mov	w5, w19
   113ac: e4 cf 40 b9  	ldr	w4, [sp, #204]
   113b0: 40 00 80 52  	mov	w0, #2
   113b4: 82 03 40 f9  	ldr	x2, [x28]
   113b8: 01 00 00 90  	adrp	x1, 0x11000 <bpf_object__load_xattr+0x534>
   113bc: a3 32 40 b9  	ldr	w3, [x21, #48]
   113c0: 21 00 00 91  	add	x1, x1, #0
   113c4: 00 00 00 94  	bl	0x113c4 <bpf_object__load_xattr+0x540>
   113c8: 41 0b 40 b9  	ldr	w1, [x26, #8]
   113cc: 20 00 80 d2  	mov	x0, #1
   113d0: 81 2b 00 b9  	str	w1, [x28, #40]
   113d4: 93 47 00 b9  	str	w19, [x28, #68]
   113d8: e1 03 01 2a  	mov	w1, w1
   113dc: 00 00 00 94  	bl	0x113dc <bpf_object__load_xattr+0x558>
   113e0: a0 16 00 f9  	str	x0, [x21, #40]
   113e4: e0 6b 00 f9  	str	x0, [sp, #208]
   113e8: 00 c8 00 b4  	cbz	x0, 0x12ce8 <bpf_object__load_xattr+0x1e64>
   113ec: e0 4f 40 f9  	ldr	x0, [sp, #152]
   113f0: e2 63 40 f9  	ldr	x2, [sp, #192]
   113f4: 1b 30 00 91  	add	x27, x0, #12
   113f8: 01 08 40 79  	ldrh	w1, [x0, #4]
   113fc: 20 0b 40 b9  	ldr	w0, [x25, #8]
   11400: 42 10 40 f9  	ldr	x2, [x2, #32]
   11404: e2 6f 00 f9  	str	x2, [sp, #216]
   11408: 02 7c 03 53  	lsr	w2, w0, #3
   1140c: 00 7c 03 53  	lsr	w0, w0, #3
   11410: e0 73 00 f9  	str	x0, [sp, #224]
   11414: e2 fb 00 b9  	str	w2, [sp, #248]
   11418: 01 13 00 34  	cbz	w1, 0x11678 <bpf_object__load_xattr+0x7f4>
   1141c: fc 5b 00 f9  	str	x28, [sp, #176]
   11420: e1 32 00 91  	add	x1, x23, #12
   11424: fc 4f 40 f9  	ldr	x28, [sp, #152]
   11428: 00 00 00 90  	adrp	x0, 0x11000 <bpf_object__load_xattr+0x5a4>
   1142c: 00 00 00 91  	add	x0, x0, #0
   11430: ff 3f 00 f9  	str	xzr, [sp, #120]
   11434: e1 47 00 f9  	str	x1, [sp, #136]
   11438: ff 93 00 b9  	str	wzr, [sp, #144]
   1143c: e0 83 00 f9  	str	x0, [sp, #256]
   11440: 61 03 40 b9  	ldr	w1, [x27]
   11444: e0 03 16 aa  	mov	x0, x22
   11448: 00 00 00 94  	bl	0x11448 <bpf_object__load_xattr+0x5c4>
   1144c: fa 03 00 aa  	mov	x26, x0
   11450: e1 0a 40 79  	ldrh	w1, [x23, #4]
   11454: 21 45 00 34  	cbz	w1, 0x11cf8 <bpf_object__load_xattr+0xe74>
   11458: 13 00 80 52  	mov	w19, #0
   1145c: f5 47 40 f9  	ldr	x21, [sp, #136]
   11460: 06 00 00 14  	b	0x11478 <bpf_object__load_xattr+0x5f4>
   11464: e0 0a 40 79  	ldrh	w0, [x23, #4]
   11468: 73 06 00 11  	add	w19, w19, #1
   1146c: b5 32 00 91  	add	x21, x21, #12
   11470: 7f 02 00 6b  	cmp	w19, w0
   11474: 2a 44 00 54  	b.ge	0x11cf8 <bpf_object__load_xattr+0xe74>
   11478: a1 02 40 b9  	ldr	w1, [x21]
   1147c: e0 03 14 aa  	mov	x0, x20
   11480: 00 00 00 94  	bl	0x11480 <bpf_object__load_xattr+0x5fc>
   11484: e1 03 1a aa  	mov	x1, x26
   11488: 00 00 00 94  	bl	0x11488 <bpf_object__load_xattr+0x604>
   1148c: c0 fe ff 35  	cbnz	w0, 0x11464 <bpf_object__load_xattr+0x5e0>
   11490: e0 47 40 f9  	ldr	x0, [sp, #136]
   11494: e2 f3 01 b2  	mov	x2, #-6148914691236517206
   11498: 62 55 95 f2  	movk	x2, #43691
   1149c: 81 07 40 b9  	ldr	w1, [x28, #4]
   114a0: a0 02 00 cb  	sub	x0, x21, x0
   114a4: 00 fc 42 93  	asr	x0, x0, #2
   114a8: 00 7c 02 9b  	mul	x0, x0, x2
   114ac: e0 4f 00 f9  	str	x0, [sp, #152]
   114b0: 61 00 f8 36  	tbz	w1, #31, 0x114bc <bpf_object__load_xattr+0x638>
   114b4: 60 2f 40 39  	ldrb	w0, [x27, #11]
   114b8: 20 8f 00 35  	cbnz	w0, 0x1269c <bpf_object__load_xattr+0x1818>
   114bc: e0 06 40 b9  	ldr	w0, [x23, #4]
   114c0: 00 01 f8 36  	tbz	w0, #31, 0x114e0 <bpf_object__load_xattr+0x65c>
   114c4: e0 4f 40 f9  	ldr	x0, [sp, #152]
   114c8: 00 7c 40 92  	and	x0, x0, #0xffffffff
   114cc: 00 04 00 91  	add	x0, x0, #1
   114d0: 00 04 00 8b  	add	x0, x0, x0, lsl #1
   114d4: e0 0a 00 8b  	add	x0, x23, x0, lsl #2
   114d8: 00 2c 40 39  	ldrb	w0, [x0, #11]
   114dc: 00 8e 00 35  	cbnz	w0, 0x1269c <bpf_object__load_xattr+0x1818>
   114e0: 73 e7 40 29  	ldp	w19, w25, [x27, #4]
   114e4: e0 03 16 aa  	mov	x0, x22
   114e8: b8 0a 40 b9  	ldr	w24, [x21, #8]
   114ec: 21 7f 03 53  	lsr	w1, w25, #3
   114f0: e1 ab 00 b9  	str	w1, [sp, #168]
   114f4: e1 03 13 2a  	mov	w1, w19
   114f8: 00 00 00 94  	bl	0x114f8 <bpf_object__load_xattr+0x674>
   114fc: f9 03 00 aa  	mov	x25, x0
   11500: 00 1c 40 39  	ldrb	w0, [x0, #7]
   11504: 18 7f 03 53  	lsr	w24, w24, #3
   11508: 00 10 00 12  	and	w0, w0, #0x1f
   1150c: 00 20 00 51  	sub	w0, w0, #8
   11510: 00 3c 00 12  	and	w0, w0, #0xffff
   11514: 1f 0c 00 71  	cmp	w0, #3
   11518: a8 01 00 54  	b.hi	0x1154c <bpf_object__load_xattr+0x6c8>
   1151c: e0 03 19 aa  	mov	x0, x25
   11520: 13 08 40 b9  	ldr	w19, [x0, #8]
   11524: e0 03 16 aa  	mov	x0, x22
   11528: e1 03 13 2a  	mov	w1, w19
   1152c: 00 00 00 94  	bl	0x1152c <bpf_object__load_xattr+0x6a8>
   11530: 02 1c 40 39  	ldrb	w2, [x0, #7]
   11534: 42 10 00 12  	and	w2, w2, #0x1f
   11538: 42 20 00 51  	sub	w2, w2, #8
   1153c: 42 3c 00 12  	and	w2, w2, #0xffff
   11540: 5f 0c 00 71  	cmp	w2, #3
   11544: e9 fe ff 54  	b.ls	0x11520 <bpf_object__load_xattr+0x69c>
   11548: f9 03 00 aa  	mov	x25, x0
   1154c: b5 06 40 b9  	ldr	w21, [x21, #4]
   11550: e0 03 14 aa  	mov	x0, x20
   11554: e1 03 15 2a  	mov	w1, w21
   11558: 00 00 00 94  	bl	0x11558 <bpf_object__load_xattr+0x6d4>
   1155c: 03 1c 40 39  	ldrb	w3, [x0, #7]
   11560: 65 10 00 12  	and	w5, w3, #0x1f
   11564: a1 20 00 51  	sub	w1, w5, #8
   11568: 21 3c 00 12  	and	w1, w1, #0xffff
   1156c: 3f 0c 00 71  	cmp	w1, #3
   11570: 88 01 00 54  	b.hi	0x115a0 <bpf_object__load_xattr+0x71c>
   11574: 1f 20 03 d5  	nop
   11578: 15 08 40 b9  	ldr	w21, [x0, #8]
   1157c: e0 03 14 aa  	mov	x0, x20
   11580: e1 03 15 2a  	mov	w1, w21
   11584: 00 00 00 94  	bl	0x11584 <bpf_object__load_xattr+0x700>
   11588: 03 1c 40 39  	ldrb	w3, [x0, #7]
   1158c: 65 10 00 12  	and	w5, w3, #0x1f
   11590: a2 20 00 51  	sub	w2, w5, #8
   11594: 42 3c 00 12  	and	w2, w2, #0xffff
   11598: 5f 0c 00 71  	cmp	w2, #3
   1159c: e9 fe ff 54  	b.ls	0x11578 <bpf_object__load_xattr+0x6f4>
   115a0: 24 1f 40 39  	ldrb	w4, [x25, #7]
   115a4: 63 00 04 4a  	eor	w3, w3, w4
   115a8: 7f 10 40 f2  	tst	x3, #0x1f
   115ac: 01 86 00 54  	b.ne	0x1266c <bpf_object__load_xattr+0x17e8>
   115b0: 84 10 00 12  	and	w4, w4, #0x1f
   115b4: 9f 08 00 71  	cmp	w4, #2
   115b8: 61 3b 00 54  	b.ne	0x11d24 <bpf_object__load_xattr+0xea0>
   115bc: e1 63 40 f9  	ldr	x1, [sp, #192]
   115c0: 22 08 40 f9  	ldr	x2, [x1, #16]
   115c4: e1 3f 40 f9  	ldr	x1, [sp, #120]
   115c8: 21 f8 7f d3  	lsl	x1, x1, #1
   115cc: 53 68 61 f8  	ldr	x19, [x2, x1]
   115d0: 13 04 00 b4  	cbz	x19, 0x11650 <bpf_object__load_xattr+0x7cc>
   115d4: 1f 20 03 d5  	nop
   115d8: 01 08 40 b9  	ldr	w1, [x0, #8]
   115dc: e0 03 14 aa  	mov	x0, x20
   115e0: 00 00 00 94  	bl	0x115e0 <bpf_object__load_xattr+0x75c>
   115e4: 01 1c 40 39  	ldrb	w1, [x0, #7]
   115e8: 21 10 00 12  	and	w1, w1, #0x1f
   115ec: 22 20 00 51  	sub	w2, w1, #8
   115f0: 42 3c 00 12  	and	w2, w2, #0xffff
   115f4: 5f 0c 00 71  	cmp	w2, #3
   115f8: 09 ff ff 54  	b.ls	0x115d8 <bpf_object__load_xattr+0x754>
   115fc: e0 5b 40 f9  	ldr	x0, [sp, #176]
   11600: 02 00 40 f9  	ldr	x2, [x0]
   11604: 3f 34 00 71  	cmp	w1, #13
   11608: e1 87 00 54  	b.ne	0x12704 <bpf_object__load_xattr+0x1880>
   1160c: e0 63 40 f9  	ldr	x0, [sp, #192]
   11610: e6 03 18 2a  	mov	w6, w24
   11614: e1 9b 40 b9  	ldr	w1, [sp, #152]
   11618: e3 3f 40 f9  	ldr	x3, [sp, #120]
   1161c: 00 0c 40 f9  	ldr	x0, [x0, #24]
   11620: 61 9a 00 b9  	str	w1, [x19, #152]
   11624: e1 cf 40 b9  	ldr	w1, [sp, #204]
   11628: 61 a6 00 b9  	str	w1, [x19, #164]
   1162c: e1 fb 40 b9  	ldr	w1, [sp, #248]
   11630: e5 ab 40 b9  	ldr	w5, [sp, #168]
   11634: 21 00 18 0b  	add	w1, w1, w24
   11638: 64 1a 40 f9  	ldr	x4, [x19, #48]
   1163c: 01 68 23 b8  	str	w1, [x0, x3]
   11640: e1 83 40 f9  	ldr	x1, [sp, #256]
   11644: e3 03 1a aa  	mov	x3, x26
   11648: 40 00 80 52  	mov	w0, #2
   1164c: 00 00 00 94  	bl	0x1164c <bpf_object__load_xattr+0x7c8>
   11650: e2 3f 40 f9  	ldr	x2, [sp, #120]
   11654: 7b 33 00 91  	add	x27, x27, #12
   11658: e1 93 40 b9  	ldr	w1, [sp, #144]
   1165c: 80 0b 40 79  	ldrh	w0, [x28, #4]
   11660: 42 10 00 91  	add	x2, x2, #4
   11664: 21 04 00 11  	add	w1, w1, #1
   11668: e2 3f 00 f9  	str	x2, [sp, #120]
   1166c: e1 93 00 b9  	str	w1, [sp, #144]
   11670: 3f 00 00 6b  	cmp	w1, w0
   11674: 63 ee ff 54  	b.lo	0x11440 <bpf_object__load_xattr+0x5bc>
   11678: e0 53 40 f9  	ldr	x0, [sp, #160]
   1167c: e2 43 40 f9  	ldr	x2, [sp, #128]
   11680: 01 38 40 f9  	ldr	x1, [x0, #112]
   11684: 42 60 02 91  	add	x2, x2, #152
   11688: e0 5f 40 f9  	ldr	x0, [sp, #184]
   1168c: e2 43 00 f9  	str	x2, [sp, #128]
   11690: 00 04 00 91  	add	x0, x0, #1
   11694: e0 5f 00 f9  	str	x0, [sp, #184]
   11698: 1f 00 01 eb  	cmp	x0, x1
   1169c: 83 e0 ff 54  	b.lo	0x112ac <bpf_object__load_xattr+0x428>
   116a0: fb 53 40 f9  	ldr	x27, [sp, #160]
   116a4: e0 03 1b aa  	mov	x0, x27
   116a8: 5e fc ff 97  	bl	0x10820 <bpf_object__create_maps>
   116ac: 40 86 00 35  	cbnz	w0, 0x12774 <bpf_object__load_xattr+0x18f0>
   116b0: 60 cf 40 f9  	ldr	x0, [x27, #408]
   116b4: 80 7c 00 b4  	cbz	x0, 0x12644 <bpf_object__load_xattr+0x17c0>
   116b8: 61 c7 40 f9  	ldr	x1, [x27, #392]
   116bc: e1 13 00 b4  	cbz	x1, 0x11938 <bpf_object__load_xattr+0xab4>
   116c0: 21 34 40 b9  	ldr	w1, [x1, #52]
   116c4: a1 13 00 34  	cbz	w1, 0x11938 <bpf_object__load_xattr+0xab4>
   116c8: 00 01 00 b4  	cbz	x0, 0x116e8 <bpf_object__load_xattr+0x864>
   116cc: 01 00 80 d2  	mov	x1, #0
   116d0: 00 00 00 94  	bl	0x116d0 <bpf_object__load_xattr+0x84c>
   116d4: 60 d3 00 f9  	str	x0, [x27, #416]
   116d8: f3 03 00 aa  	mov	x19, x0
   116dc: 20 be 00 b4  	cbz	x0, 0x12ea0 <bpf_object__load_xattr+0x201c>
   116e0: 1f 04 40 b1  	cmn	x0, #1, lsl #12         // =4096
   116e4: 88 bc 00 54  	b.hi	0x12e74 <bpf_object__load_xattr+0x1ff0>
   116e8: 01 00 00 90  	adrp	x1, 0x11000 <bpf_object__load_xattr+0x864>
   116ec: 00 00 00 90  	adrp	x0, 0x11000 <bpf_object__load_xattr+0x868>
   116f0: 21 00 00 91  	add	x1, x1, #0
   116f4: 00 00 00 91  	add	x0, x0, #0
   116f8: 02 00 80 d2  	mov	x2, #0
   116fc: 00 00 00 94  	bl	0x116fc <bpf_object__load_xattr+0x878>
   11700: fc 03 00 aa  	mov	x28, x0
   11704: 1f 04 40 b1  	cmn	x0, #1, lsl #12         // =4096
   11708: a8 ba 00 54  	b.hi	0x12e5c <bpf_object__load_xattr+0x1fd8>
   1170c: 60 c7 40 f9  	ldr	x0, [x27, #392]
   11710: 01 14 40 f9  	ldr	x1, [x0, #40]
   11714: e1 03 08 a9  	stp	x1, x0, [sp, #128]
   11718: 00 34 40 b9  	ldr	w0, [x0, #52]
   1171c: 20 00 00 8b  	add	x0, x1, x0
   11720: 3f 00 00 eb  	cmp	x1, x0
   11724: 82 0f 00 54  	b.hs	0x11914 <bpf_object__load_xattr+0xa90>
   11728: fc 4b 00 f9  	str	x28, [sp, #144]
   1172c: fc 03 1b aa  	mov	x28, x27
   11730: 00 00 00 90  	adrp	x0, 0x11000 <bpf_object__load_xattr+0x8ac>
   11734: 00 00 00 91  	add	x0, x0, #0
   11738: e0 7f 00 f9  	str	x0, [sp, #248]
   1173c: e0 43 40 f9  	ldr	x0, [sp, #128]
   11740: 01 00 40 b9  	ldr	w1, [x0]
   11744: 80 c3 40 f9  	ldr	x0, [x28, #384]
   11748: 00 00 00 94  	bl	0x11748 <bpf_object__load_xattr+0x8c4>
   1174c: fb 03 00 aa  	mov	x27, x0
   11750: 40 73 00 b4  	cbz	x0, 0x125b8 <bpf_object__load_xattr+0x1734>
   11754: 00 00 40 39  	ldrb	w0, [x0]
   11758: 00 73 00 34  	cbz	w0, 0x125b8 <bpf_object__load_xattr+0x1734>
   1175c: 95 33 40 f9  	ldr	x21, [x28, #96]
   11760: f5 cc 00 b4  	cbz	x21, 0x130fc <bpf_object__load_xattr+0x2278>
   11764: 93 2f 40 f9  	ldr	x19, [x28, #88]
   11768: 14 00 80 d2  	mov	x20, #0
   1176c: 1f 20 03 d5  	nop
   11770: 60 06 40 f9  	ldr	x0, [x19, #8]
   11774: e1 03 1b aa  	mov	x1, x27
   11778: f6 03 13 aa  	mov	x22, x19
   1177c: 00 00 00 94  	bl	0x1177c <bpf_object__load_xattr+0x8f8>
   11780: a0 00 00 34  	cbz	w0, 0x11794 <bpf_object__load_xattr+0x910>
   11784: 94 06 00 91  	add	x20, x20, #1
   11788: 73 62 03 91  	add	x19, x19, #216
   1178c: bf 02 14 eb  	cmp	x21, x20
   11790: 01 ff ff 54  	b.ne	0x11770 <bpf_object__load_xattr+0x8ec>
   11794: f5 43 40 f9  	ldr	x21, [sp, #128]
   11798: 40 00 80 52  	mov	w0, #2
   1179c: e1 7f 40 f9  	ldr	x1, [sp, #248]
   117a0: e2 03 1b aa  	mov	x2, x27
   117a4: a3 06 40 b9  	ldr	w3, [x21, #4]
   117a8: b4 22 00 91  	add	x20, x21, #8
   117ac: d3 0a 40 f9  	ldr	x19, [x22, #16]
   117b0: 00 00 00 94  	bl	0x117b0 <bpf_object__load_xattr+0x92c>
   117b4: a0 06 40 b9  	ldr	w0, [x21, #4]
   117b8: a0 b7 00 34  	cbz	w0, 0x12eac <bpf_object__load_xattr+0x2028>
   117bc: 73 7e 40 93  	sxtw	x19, w19
   117c0: e1 43 04 91  	add	x1, sp, #272
   117c4: 00 00 00 90  	adrp	x0, 0x11000 <bpf_object__load_xattr+0x940>
   117c8: 1a 00 80 52  	mov	w26, #0
   117cc: 00 00 00 91  	add	x0, x0, #0
   117d0: e1 57 00 f9  	str	x1, [sp, #168]
   117d4: e0 7b 00 f9  	str	x0, [sp, #240]
   117d8: fb 83 00 f9  	str	x27, [sp, #256]
   117dc: 1f 20 03 d5  	nop
   117e0: 89 02 40 b9  	ldr	w9, [x20]
   117e4: e1 03 13 aa  	mov	x1, x19
   117e8: e0 03 1c aa  	mov	x0, x28
   117ec: 22 7d 03 53  	lsr	w2, w9, #3
   117f0: 51 ba ff 97  	bl	0x134 <find_prog_by_sec_insn>
   117f4: 23 7d 03 53  	lsr	w3, w9, #3
   117f8: f5 03 00 aa  	mov	x21, x0
   117fc: 60 79 00 b4  	cbz	x0, 0x12728 <bpf_object__load_xattr+0x18a4>
   11800: 00 40 42 39  	ldrb	w0, [x0, #144]
   11804: 20 06 00 34  	cbz	w0, 0x118c8 <bpf_object__load_xattr+0xa44>
   11808: a0 1a 40 f9  	ldr	x0, [x21, #48]
   1180c: e0 3f 00 f9  	str	x0, [sp, #120]
   11810: 9b 06 40 b9  	ldr	w27, [x20, #4]
   11814: 99 c3 40 f9  	ldr	x25, [x28, #384]
   11818: ff 8b 00 f9  	str	xzr, [sp, #272]
   1181c: 3f 09 40 f2  	tst	x9, #0x7
   11820: 61 a1 00 54  	b.ne	0x12c4c <bpf_object__load_xattr+0x1dc8>
   11824: a1 0e 40 f9  	ldr	x1, [x21, #24]
   11828: a0 26 40 f9  	ldr	x0, [x21, #72]
   1182c: 76 00 01 4b  	sub	w22, w3, w1
   11830: d8 7e 40 93  	sxtw	x24, w22
   11834: 1f 03 00 eb  	cmp	x24, x0
   11838: a8 a0 00 54  	b.hi	0x12c4c <bpf_object__load_xattr+0x1dc8>
   1183c: a2 22 40 f9  	ldr	x2, [x21, #64]
   11840: e1 03 1b 2a  	mov	w1, w27
   11844: e0 03 19 aa  	mov	x0, x25
   11848: 58 0c 18 8b  	add	x24, x2, x24, lsl #3
   1184c: 00 00 00 94  	bl	0x1184c <bpf_object__load_xattr+0x9c8>
   11850: f7 03 00 aa  	mov	x23, x0
   11854: 00 b3 00 b4  	cbz	x0, 0x12eb4 <bpf_object__load_xattr+0x2030>
   11858: e1 02 40 b9  	ldr	w1, [x23]
   1185c: e0 03 19 aa  	mov	x0, x25
   11860: 00 00 00 94  	bl	0x11860 <bpf_object__load_xattr+0x9dc>
   11864: e0 4f 00 f9  	str	x0, [sp, #152]
   11868: 60 b2 00 b4  	cbz	x0, 0x12eb4 <bpf_object__load_xattr+0x2030>
   1186c: a0 3e 40 f9  	ldr	x0, [x21, #120]
   11870: 85 0e 40 b9  	ldr	w5, [x20, #12]
   11874: 01 50 40 f9  	ldr	x1, [x0, #160]
   11878: a1 b2 00 b5  	cbnz	x1, 0x12ecc <bpf_object__load_xattr+0x2048>
   1187c: bf 18 00 71  	cmp	w5, #6
   11880: 20 01 00 54  	b.eq	0x118a4 <bpf_object__load_xattr+0xa20>
   11884: e0 03 1b 2a  	mov	w0, w27
   11888: e0 53 00 f9  	str	x0, [sp, #160]
   1188c: e1 03 00 aa  	mov	x1, x0
   11890: e0 4b 40 f9  	ldr	x0, [sp, #144]
   11894: e2 57 40 f9  	ldr	x2, [sp, #168]
   11898: 00 00 00 94  	bl	0x11898 <bpf_object__load_xattr+0xa14>
   1189c: 1f 1c 00 72  	tst	w0, #0xff
   118a0: 80 5d 00 54  	b.eq	0x12450 <bpf_object__load_xattr+0x15cc>
   118a4: e0 3f 40 f9  	ldr	x0, [sp, #120]
   118a8: e5 03 19 aa  	mov	x5, x25
   118ac: e6 8b 40 f9  	ldr	x6, [sp, #272]
   118b0: e2 03 16 2a  	mov	w2, w22
   118b4: e1 03 18 aa  	mov	x1, x24
   118b8: e4 03 1a 2a  	mov	w4, w26
   118bc: e3 03 14 aa  	mov	x3, x20
   118c0: 00 00 00 94  	bl	0x118c0 <bpf_object__load_xattr+0xa3c>
   118c4: 00 b6 00 35  	cbnz	w0, 0x12f84 <bpf_object__load_xattr+0x2100>
   118c8: e1 03 48 a9  	ldp	x1, x0, [sp, #128]
   118cc: 5a 07 00 11  	add	w26, w26, #1
   118d0: 00 30 40 b9  	ldr	w0, [x0, #48]
   118d4: 21 04 40 b9  	ldr	w1, [x1, #4]
   118d8: 94 42 20 8b  	add	x20, x20, w0, uxtw
   118dc: 3f 00 1a 6b  	cmp	w1, w26
   118e0: 08 f8 ff 54  	b.hi	0x117e0 <bpf_object__load_xattr+0x95c>
   118e4: 00 7c 01 1b  	mul	w0, w0, w1
   118e8: 00 20 00 91  	add	x0, x0, #8
   118ec: e3 0b 48 a9  	ldp	x3, x2, [sp, #128]
   118f0: 41 14 40 f9  	ldr	x1, [x2, #40]
   118f4: 63 00 00 8b  	add	x3, x3, x0
   118f8: 40 34 40 b9  	ldr	w0, [x2, #52]
   118fc: e3 43 00 f9  	str	x3, [sp, #128]
   11900: 20 00 00 8b  	add	x0, x1, x0
   11904: 7f 00 00 eb  	cmp	x3, x0
   11908: a3 f1 ff 54  	b.lo	0x1173c <bpf_object__load_xattr+0x8b8>
   1190c: fb 03 1c aa  	mov	x27, x28
   11910: fc 4b 40 f9  	ldr	x28, [sp, #144]
   11914: 60 d3 40 f9  	ldr	x0, [x27, #416]
   11918: 00 00 00 94  	bl	0x11918 <bpf_object__load_xattr+0xa94>
   1191c: 7f d3 00 f9  	str	xzr, [x27, #416]
   11920: dc 00 00 b4  	cbz	x28, 0x11938 <bpf_object__load_xattr+0xab4>
   11924: 80 13 40 f9  	ldr	x0, [x28, #32]
   11928: 13 00 80 52  	mov	w19, #0
   1192c: 80 65 00 b5  	cbnz	x0, 0x125dc <bpf_object__load_xattr+0x1758>
   11930: e0 03 1c aa  	mov	x0, x28
   11934: 00 00 00 94  	bl	0x11934 <bpf_object__load_xattr+0xab0>
   11938: 65 33 40 f9  	ldr	x5, [x27, #96]
   1193c: 85 73 00 b4  	cbz	x5, 0x127ac <bpf_object__load_xattr+0x1928>
   11940: a9 f0 7d d3  	lsl	x9, x5, #3
   11944: 88 00 80 52  	mov	w8, #4
   11948: 29 01 05 cb  	sub	x9, x9, x5
   1194c: 61 2f 40 f9  	ldr	x1, [x27, #88]
   11950: 29 f5 7e d3  	lsl	x9, x9, #2
   11954: 29 01 05 cb  	sub	x9, x9, x5
   11958: 26 00 01 91  	add	x6, x1, #64
   1195c: 29 0c 09 8b  	add	x9, x1, x9, lsl #3
   11960: 29 01 01 91  	add	x9, x9, #64
   11964: 1f 20 03 d5  	nop
   11968: c3 18 40 b9  	ldr	w3, [x6, #24]
   1196c: 03 02 00 34  	cbz	w3, 0x119ac <bpf_object__load_xattr+0xb28>
   11970: c0 08 40 f9  	ldr	x0, [x6, #16]
   11974: c7 00 40 f9  	ldr	x7, [x6]
   11978: 03 d0 23 8b  	add	x3, x0, w3, sxtw #4
   1197c: 1f 20 03 d5  	nop
   11980: 02 00 40 b9  	ldr	w2, [x0]
   11984: 5f 14 00 71  	cmp	w2, #5
   11988: c1 00 00 54  	b.ne	0x119a0 <bpf_object__load_xattr+0xb1c>
   1198c: 02 04 80 b9  	ldrsw	x2, [x0, #4]
   11990: e2 0c 02 8b  	add	x2, x7, x2, lsl #3
   11994: 44 04 40 39  	ldrb	w4, [x2, #1]
   11998: 04 0d 1c 33  	bfi	w4, w8, #4, #4
   1199c: 44 04 00 39  	strb	w4, [x2, #1]
   119a0: 00 40 00 91  	add	x0, x0, #16
   119a4: 7f 00 00 eb  	cmp	x3, x0
   119a8: c1 fe ff 54  	b.ne	0x11980 <bpf_object__load_xattr+0xafc>
   119ac: c6 60 03 91  	add	x6, x6, #216
   119b0: 3f 01 06 eb  	cmp	x9, x6
   119b4: a1 fd ff 54  	b.ne	0x11968 <bpf_object__load_xattr+0xae4>
   119b8: e2 03 01 aa  	mov	x2, x1
   119bc: 15 00 80 d2  	mov	x21, #0
   119c0: b4 f2 7d d3  	lsl	x20, x21, #3
   119c4: bf 04 00 f1  	cmp	x5, #1
   119c8: 94 02 15 cb  	sub	x20, x20, x21
   119cc: 63 5b 81 b9  	ldrsw	x3, [x27, #344]
   119d0: e4 07 9f 1a  	cset	w4, ne
   119d4: 94 f6 7e d3  	lsl	x20, x20, #2
   119d8: 9f 00 00 71  	cmp	w4, #0
   119dc: 94 02 15 cb  	sub	x20, x20, x21
   119e0: 54 0c 14 8b  	add	x20, x2, x20, lsl #3
   119e4: 80 0a 40 f9  	ldr	x0, [x20, #16]
   119e8: 00 10 43 fa  	ccmp	x0, x3, #0, ne
   119ec: e0 02 00 54  	b.eq	0x11a48 <bpf_object__load_xattr+0xbc4>
   119f0: a1 f0 7d d3  	lsl	x1, x5, #3
   119f4: 40 40 00 91  	add	x0, x2, #16
   119f8: 21 00 05 cb  	sub	x1, x1, x5
   119fc: 21 f4 7e d3  	lsl	x1, x1, #2
   11a00: 21 00 05 cb  	sub	x1, x1, x5
   11a04: 41 0c 01 8b  	add	x1, x2, x1, lsl #3
   11a08: 21 40 00 91  	add	x1, x1, #16
   11a0c: 1f 20 03 d5  	nop
   11a10: 02 00 40 f9  	ldr	x2, [x0]
   11a14: 9f 00 00 71  	cmp	w4, #0
   11a18: 40 10 43 fa  	ccmp	x2, x3, #0, ne
   11a1c: 41 00 00 54  	b.ne	0x11a24 <bpf_object__load_xattr+0xba0>
   11a20: 1f 0c 00 f9  	str	xzr, [x0, #24]
   11a24: 00 60 03 91  	add	x0, x0, #216
   11a28: 3f 00 00 eb  	cmp	x1, x0
   11a2c: 21 ff ff 54  	b.ne	0x11a10 <bpf_object__load_xattr+0xb8c>
   11a30: e2 03 14 aa  	mov	x2, x20
   11a34: e1 03 14 aa  	mov	x1, x20
   11a38: e0 03 1b aa  	mov	x0, x27
   11a3c: dd c5 ff 97  	bl	0x31b0 <bpf_object__reloc_code>
   11a40: 20 1b 00 35  	cbnz	w0, 0x11da4 <bpf_object__load_xattr+0xf20>
   11a44: 65 33 40 f9  	ldr	x5, [x27, #96]
   11a48: b5 06 00 91  	add	x21, x21, #1
   11a4c: bf 00 15 eb  	cmp	x5, x21
   11a50: 29 1e 00 54  	b.ls	0x11e14 <bpf_object__load_xattr+0xf90>
   11a54: 62 2f 40 f9  	ldr	x2, [x27, #88]
   11a58: da ff ff 17  	b	0x119c0 <bpf_object__load_xattr+0xb3c>
   11a5c: 00 2f 80 b9  	ldrsw	x0, [x24, #44]
   11a60: e1 43 40 f9  	ldr	x1, [sp, #128]
   11a64: 3b 00 00 8b  	add	x27, x1, x0
   11a68: f7 ba ff 97  	bl	0x644 <get_kernel_version>
   11a6c: fa 03 00 2a  	mov	w26, w0
   11a70: 60 a7 00 34  	cbz	w0, 0x12f5c <bpf_object__load_xattr+0x20d8>
   11a74: e2 03 00 2a  	mov	w2, w0
   11a78: e1 03 1b aa  	mov	x1, x27
   11a7c: e0 03 18 aa  	mov	x0, x24
   11a80: 55 c3 ff 97  	bl	0x27d4 <set_kcfg_value_num>
   11a84: 60 67 00 35  	cbnz	w0, 0x12770 <bpf_object__load_xattr+0x18ec>
   11a88: 02 0b 40 f9  	ldr	x2, [x24, #16]
   11a8c: e3 03 1a 2a  	mov	w3, w26
   11a90: 01 00 00 90  	adrp	x1, 0x11000 <bpf_object__load_xattr+0xc0c>
   11a94: 40 00 80 52  	mov	w0, #2
   11a98: 21 00 00 91  	add	x1, x1, #0
   11a9c: 00 00 00 94  	bl	0x11a9c <bpf_object__load_xattr+0xc18>
   11aa0: 9a 93 40 b9  	ldr	w26, [x28, #144]
   11aa4: 38 fd ff 17  	b	0x10f84 <bpf_object__load_xattr+0x100>
   11aa8: 61 3b 40 f9  	ldr	x1, [x27, #112]
   11aac: 15 00 80 d2  	mov	x21, #0
   11ab0: 14 00 80 d2  	mov	x20, #0
   11ab4: c1 00 00 b5  	cbnz	x1, 0x11acc <bpf_object__load_xattr+0xc48>
   11ab8: 12 00 00 14  	b	0x11b00 <bpf_object__load_xattr+0xc7c>
   11abc: 94 06 00 91  	add	x20, x20, #1
   11ac0: b5 62 02 91  	add	x21, x21, #152
   11ac4: 3f 00 14 eb  	cmp	x1, x20
   11ac8: c9 01 00 54  	b.ls	0x11b00 <bpf_object__load_xattr+0xc7c>
   11acc: 60 37 40 f9  	ldr	x0, [x27, #104]
   11ad0: 00 00 15 8b  	add	x0, x0, x21
   11ad4: 02 40 42 39  	ldrb	w2, [x0, #144]
   11ad8: 22 ff ff 34  	cbz	w2, 0x11abc <bpf_object__load_xattr+0xc38>
   11adc: 02 44 42 39  	ldrb	w2, [x0, #145]
   11ae0: e2 fe ff 35  	cbnz	w2, 0x11abc <bpf_object__load_xattr+0xc38>
   11ae4: 01 00 80 d2  	mov	x1, #0
   11ae8: 00 00 00 94  	bl	0x11ae8 <bpf_object__load_xattr+0xc64>
   11aec: 61 3b 40 f9  	ldr	x1, [x27, #112]
   11af0: 94 06 00 91  	add	x20, x20, #1
   11af4: b5 62 02 91  	add	x21, x21, #152
   11af8: 3f 00 14 eb  	cmp	x1, x20
   11afc: 88 fe ff 54  	b.hi	0x11acc <bpf_object__load_xattr+0xc48>
   11b00: e0 03 1b aa  	mov	x0, x27
   11b04: 00 00 00 94  	bl	0x11b04 <bpf_object__load_xattr+0xc80>
   11b08: 01 00 00 90  	adrp	x1, 0x11000 <bpf_object__load_xattr+0xc84>
   11b0c: 62 63 07 91  	add	x2, x27, #472
   11b10: 21 00 00 91  	add	x1, x1, #0
   11b14: 00 00 80 52  	mov	w0, #0
   11b18: 00 00 00 94  	bl	0x11b18 <bpf_object__load_xattr+0xc94>
   11b1c: 33 ad ff 36  	tbz	w19, #31, 0x110c0 <bpf_object__load_xattr+0x23c>
   11b20: 00 00 00 94  	bl	0x11b20 <bpf_object__load_xattr+0xc9c>
   11b24: e1 03 13 4b  	neg	w1, w19
   11b28: f5 5b 43 a9  	ldp	x21, x22, [sp, #48]
   11b2c: f7 63 44 a9  	ldp	x23, x24, [sp, #64]
   11b30: fb 73 46 a9  	ldp	x27, x28, [sp, #96]
   11b34: 01 00 00 b9  	str	w1, [x0]
   11b38: 65 fd ff 17  	b	0x110cc <bpf_object__load_xattr+0x248>
   11b3c: e1 16 80 d2  	mov	x1, #183
   11b40: a0 12 80 d2  	mov	x0, #149
   11b44: e1 83 17 a9  	stp	x1, x0, [sp, #376]
   11b48: f3 63 04 91  	add	x19, sp, #280
   11b4c: 00 04 00 4f  	movi	v0.4s, #0
   11b50: e4 e3 05 91  	add	x4, sp, #376
   11b54: 03 00 00 90  	adrp	x3, 0x11000 <bpf_object__load_xattr+0xcd0>
   11b58: 63 00 00 91  	add	x3, x3, #0
   11b5c: 26 00 80 52  	mov	w6, #1
   11b60: 45 00 80 d2  	mov	x5, #2
   11b64: e0 03 13 aa  	mov	x0, x19
   11b68: 02 00 80 d2  	mov	x2, #0
   11b6c: 60 02 00 ad  	stp	q0, q0, [x19]
   11b70: 01 00 80 d2  	mov	x1, #0
   11b74: 60 02 01 ad  	stp	q0, q0, [x19, #32]
   11b78: e6 1b 01 b9  	str	w6, [sp, #280]
   11b7c: e4 97 12 a9  	stp	x4, x5, [sp, #296]
   11b80: e3 9f 00 f9  	str	x3, [sp, #312]
   11b84: 60 02 02 ad  	stp	q0, q0, [x19, #64]
   11b88: 00 00 00 94  	bl	0x11b88 <bpf_object__load_xattr+0xd04>
   11b8c: 80 41 f8 37  	tbnz	w0, #31, 0x123bc <bpf_object__load_xattr+0x1538>
   11b90: 00 00 00 94  	bl	0x11b90 <bpf_object__load_xattr+0xd0c>
   11b94: 60 cb 40 f9  	ldr	x0, [x27, #400]
   11b98: 20 9b ff b5  	cbnz	x0, 0x10efc <bpf_object__load_xattr+0x78>
   11b9c: 60 53 40 f9  	ldr	x0, [x27, #160]
   11ba0: e0 9a ff b5  	cbnz	x0, 0x10efc <bpf_object__load_xattr+0x78>
   11ba4: 60 c7 40 f9  	ldr	x0, [x27, #392]
   11ba8: a0 00 00 b4  	cbz	x0, 0x11bbc <bpf_object__load_xattr+0xd38>
   11bac: 00 34 40 b9  	ldr	w0, [x0, #52]
   11bb0: 60 00 00 34  	cbz	w0, 0x11bbc <bpf_object__load_xattr+0xd38>
   11bb4: 60 cf 40 f9  	ldr	x0, [x27, #408]
   11bb8: 40 02 00 b4  	cbz	x0, 0x11c00 <bpf_object__load_xattr+0xd7c>
   11bbc: 61 93 40 b9  	ldr	w1, [x27, #144]
   11bc0: 3f 00 00 71  	cmp	w1, #0
   11bc4: 6d 7d 00 54  	b.le	0x12b70 <bpf_object__load_xattr+0x1cec>
   11bc8: 60 47 40 f9  	ldr	x0, [x27, #136]
   11bcc: 21 04 00 51  	sub	w1, w1, #1
   11bd0: 03 07 80 52  	mov	w3, #56
   11bd4: 02 e0 00 91  	add	x2, x0, #56
   11bd8: 22 08 a3 9b  	umaddl	x2, w1, w3, x2
   11bdc: 04 00 00 14  	b	0x11bec <bpf_object__load_xattr+0xd68>
   11be0: 00 e0 00 91  	add	x0, x0, #56
   11be4: 5f 00 00 eb  	cmp	x2, x0
   11be8: 40 7c 00 54  	b.eq	0x12b70 <bpf_object__load_xattr+0x1cec>
   11bec: 01 00 40 b9  	ldr	w1, [x0]
   11bf0: 3f 08 00 71  	cmp	w1, #2
   11bf4: 61 ff ff 54  	b.ne	0x11be0 <bpf_object__load_xattr+0xd5c>
   11bf8: 01 30 40 b9  	ldr	w1, [x0, #48]
   11bfc: 21 ff ff 34  	cbz	w1, 0x11be0 <bpf_object__load_xattr+0xd5c>
   11c00: 00 00 00 94  	bl	0x11c00 <bpf_object__load_xattr+0xd7c>
   11c04: 60 cb 00 f9  	str	x0, [x27, #400]
   11c08: f3 03 00 aa  	mov	x19, x0
   11c0c: e0 a4 00 b4  	cbz	x0, 0x130a8 <bpf_object__load_xattr+0x2224>
   11c10: 1f 04 40 b1  	cmn	x0, #1, lsl #12         // =4096
   11c14: 49 97 ff 54  	b.ls	0x10efc <bpf_object__load_xattr+0x78>
   11c18: f3 03 13 4b  	neg	w19, w19
   11c1c: 00 00 00 94  	bl	0x11c1c <bpf_object__load_xattr+0xd98>
   11c20: 13 00 00 b9  	str	w19, [x0]
   11c24: d3 96 ff 34  	cbz	w19, 0x10efc <bpf_object__load_xattr+0x78>
   11c28: f3 03 13 4b  	neg	w19, w19
   11c2c: 01 00 00 90  	adrp	x1, 0x11000 <bpf_object__load_xattr+0xda8>
   11c30: e2 03 13 2a  	mov	w2, w19
   11c34: 21 00 00 91  	add	x1, x1, #0
   11c38: 00 00 80 52  	mov	w0, #0
   11c3c: 00 00 00 94  	bl	0x11c3c <bpf_object__load_xattr+0xdb8>
   11c40: 7f cb 00 f9  	str	xzr, [x27, #400]
   11c44: ef fc ff 17  	b	0x11000 <bpf_object__load_xattr+0x17c>
   11c48: 60 c3 40 f9  	ldr	x0, [x27, #384]
   11c4c: 35 00 80 52  	mov	w21, #1
   11c50: 00 00 00 94  	bl	0x11c50 <bpf_object__load_xattr+0xdcc>
   11c54: f8 03 00 2a  	mov	w24, w0
   11c58: 1f 00 00 71  	cmp	w0, #0
   11c5c: ac 00 00 54  	b.gt	0x11c70 <bpf_object__load_xattr+0xdec>
   11c60: a7 02 00 14  	b	0x126fc <bpf_object__load_xattr+0x1878>
   11c64: b5 06 00 11  	add	w21, w21, #1
   11c68: 1f 03 15 6b  	cmp	w24, w21
   11c6c: 8b 54 00 54  	b.lt	0x126fc <bpf_object__load_xattr+0x1878>
   11c70: 60 c3 40 f9  	ldr	x0, [x27, #384]
   11c74: e1 03 15 2a  	mov	w1, w21
   11c78: 00 00 00 94  	bl	0x11c78 <bpf_object__load_xattr+0xdf4>
   11c7c: f4 03 00 aa  	mov	x20, x0
   11c80: 00 04 40 b9  	ldr	w0, [x0, #4]
   11c84: 01 70 58 d3  	ubfx	x1, x0, #24, #5
   11c88: 3f 30 00 71  	cmp	w1, #12
   11c8c: c1 fe ff 54  	b.ne	0x11c64 <bpf_object__load_xattr+0xde0>
   11c90: 00 3c 00 12  	and	w0, w0, #0xffff
   11c94: 1f 04 00 71  	cmp	w0, #1
   11c98: 61 fe ff 54  	b.ne	0x11c64 <bpf_object__load_xattr+0xde0>
   11c9c: 81 02 40 b9  	ldr	w1, [x20]
   11ca0: 60 c3 40 f9  	ldr	x0, [x27, #384]
   11ca4: 00 00 00 94  	bl	0x11ca4 <bpf_object__load_xattr+0xe20>
   11ca8: 61 1a 40 f9  	ldr	x1, [x19, #48]
   11cac: 00 00 00 94  	bl	0x11cac <bpf_object__load_xattr+0xe28>
   11cb0: a0 fd ff 35  	cbnz	w0, 0x11c64 <bpf_object__load_xattr+0xde0>
   11cb4: 65 33 40 f9  	ldr	x5, [x27, #96]
   11cb8: 97 06 00 b9  	str	w23, [x20, #4]
   11cbc: 1f 20 03 d5  	nop
   11cc0: 39 07 00 91  	add	x25, x25, #1
   11cc4: 5a 63 03 91  	add	x26, x26, #216
   11cc8: bf 00 19 eb  	cmp	x5, x25
   11ccc: 29 a7 ff 54  	b.ls	0x111b0 <bpf_object__load_xattr+0x32c>
   11cd0: 73 2f 40 f9  	ldr	x19, [x27, #88]
   11cd4: 73 02 1a 8b  	add	x19, x19, x26
   11cd8: 60 46 42 39  	ldrb	w0, [x19, #145]
   11cdc: 20 ff ff 34  	cbz	w0, 0x11cc0 <bpf_object__load_xattr+0xe3c>
   11ce0: 61 0a 40 f9  	ldr	x1, [x19, #16]
   11ce4: 60 5b 81 b9  	ldrsw	x0, [x27, #344]
   11ce8: 3f 00 00 eb  	cmp	x1, x0
   11cec: a4 08 41 fa  	ccmp	x5, #1, #4, eq
   11cf0: 80 fe ff 54  	b.eq	0x11cc0 <bpf_object__load_xattr+0xe3c>
   11cf4: d5 ff ff 17  	b	0x11c48 <bpf_object__load_xattr+0xdc4>
   11cf8: fc 5b 40 f9  	ldr	x28, [sp, #176]
   11cfc: e3 03 1a aa  	mov	x3, x26
   11d00: 01 00 00 90  	adrp	x1, 0x11000 <bpf_object__load_xattr+0xe7c>
   11d04: 00 00 80 52  	mov	w0, #0
   11d08: 21 00 00 91  	add	x1, x1, #0
   11d0c: d3 0b 80 12  	mov	w19, #-95
   11d10: 82 03 40 f9  	ldr	x2, [x28]
   11d14: fb 53 40 f9  	ldr	x27, [sp, #160]
   11d18: 00 00 00 94  	bl	0x11d18 <bpf_object__load_xattr+0xe94>
   11d1c: f9 6b 45 a9  	ldp	x25, x26, [sp, #80]
   11d20: b8 fc ff 17  	b	0x11000 <bpf_object__load_xattr+0x17c>
   11d24: e1 03 13 2a  	mov	w1, w19
   11d28: e0 03 16 aa  	mov	x0, x22
   11d2c: 00 00 00 94  	bl	0x11d2c <bpf_object__load_xattr+0xea8>
   11d30: f3 03 00 aa  	mov	x19, x0
   11d34: e1 03 15 2a  	mov	w1, w21
   11d38: e0 03 14 aa  	mov	x0, x20
   11d3c: 00 00 00 94  	bl	0x11d3c <bpf_object__load_xattr+0xeb8>
   11d40: 61 02 00 aa  	orr	x1, x19, x0
   11d44: 3f 00 00 f1  	cmp	x1, #0
   11d48: 60 a2 40 fa  	ccmp	x19, x0, #0, ge
   11d4c: e1 4b 00 54  	b.ne	0x126c8 <bpf_object__load_xattr+0x1844>
   11d50: e0 5b 40 f9  	ldr	x0, [sp, #176]
   11d54: e3 03 1a aa  	mov	x3, x26
   11d58: e1 7b 40 f9  	ldr	x1, [sp, #240]
   11d5c: e6 03 18 2a  	mov	w6, w24
   11d60: 02 00 40 f9  	ldr	x2, [x0]
   11d64: e4 03 13 2a  	mov	w4, w19
   11d68: f5 ab 40 b9  	ldr	w21, [sp, #168]
   11d6c: 40 00 80 52  	mov	w0, #2
   11d70: e5 03 15 2a  	mov	w5, w21
   11d74: 00 00 00 94  	bl	0x11d74 <bpf_object__load_xattr+0xef0>
   11d78: e0 73 40 f9  	ldr	x0, [sp, #224]
   11d7c: e2 03 18 2a  	mov	w2, w24
   11d80: e1 03 15 2a  	mov	w1, w21
   11d84: 42 00 00 8b  	add	x2, x2, x0
   11d88: e0 6f 40 f9  	ldr	x0, [sp, #216]
   11d8c: 01 00 01 8b  	add	x1, x0, x1
   11d90: e0 6b 40 f9  	ldr	x0, [sp, #208]
   11d94: 00 00 02 8b  	add	x0, x0, x2
   11d98: e2 03 13 aa  	mov	x2, x19
   11d9c: 00 00 00 94  	bl	0x11d9c <bpf_object__load_xattr+0xf18>
   11da0: 2c fe ff 17  	b	0x11650 <bpf_object__load_xattr+0x7cc>
   11da4: 82 1a 40 f9  	ldr	x2, [x20, #48]
   11da8: e3 03 00 2a  	mov	w3, w0
   11dac: f3 03 00 2a  	mov	w19, w0
   11db0: 01 00 00 90  	adrp	x1, 0x11000 <bpf_object__load_xattr+0xf2c>
   11db4: 00 00 80 52  	mov	w0, #0
   11db8: 21 00 00 91  	add	x1, x1, #0
   11dbc: 00 00 00 94  	bl	0x11dbc <bpf_object__load_xattr+0xf38>
   11dc0: f9 6b 45 a9  	ldp	x25, x26, [sp, #80]
   11dc4: 8f fc ff 17  	b	0x11000 <bpf_object__load_xattr+0x17c>
   11dc8: 03 03 00 91  	add	x3, x24, #0
   11dcc: e4 03 15 aa  	mov	x4, x21
   11dd0: e2 03 15 aa  	mov	x2, x21
   11dd4: 01 00 00 90  	adrp	x1, 0x11000 <bpf_object__load_xattr+0xf50>
   11dd8: 00 00 80 52  	mov	w0, #0
   11ddc: 21 00 00 91  	add	x1, x1, #0
   11de0: b3 02 80 12  	mov	w19, #-22
   11de4: fb 53 40 f9  	ldr	x27, [sp, #160]
   11de8: 00 00 00 94  	bl	0x11de8 <bpf_object__load_xattr+0xf64>
   11dec: f9 6b 45 a9  	ldp	x25, x26, [sp, #80]
   11df0: 84 fc ff 17  	b	0x11000 <bpf_object__load_xattr+0x17c>
   11df4: e2 03 15 aa  	mov	x2, x21
   11df8: 01 00 00 90  	adrp	x1, 0x11000 <bpf_object__load_xattr+0xf74>
   11dfc: 00 00 80 52  	mov	w0, #0
   11e00: 21 00 00 91  	add	x1, x1, #0
   11e04: fb 53 40 f9  	ldr	x27, [sp, #160]
   11e08: 00 00 00 94  	bl	0x11e08 <bpf_object__load_xattr+0xf84>
   11e0c: f9 6b 45 a9  	ldp	x25, x26, [sp, #80]
   11e10: 7c fc ff 17  	b	0x11000 <bpf_object__load_xattr+0x17c>
   11e14: c5 4c 00 b4  	cbz	x5, 0x127ac <bpf_object__load_xattr+0x1928>
   11e18: 6c 2f 40 f9  	ldr	x12, [x27, #88]
   11e1c: bf 04 00 f1  	cmp	x5, #1
   11e20: 6a 5b 81 b9  	ldrsw	x10, [x27, #344]
   11e24: e9 07 9f 1a  	cset	w9, ne
   11e28: f3 03 0c aa  	mov	x19, x12
   11e2c: 08 00 80 d2  	mov	x8, #0
   11e30: 0b 07 80 52  	mov	w11, #56
   11e34: 4d 00 80 52  	mov	w13, #2
   11e38: 10 13 80 52  	mov	w16, #152
   11e3c: ce 00 80 52  	mov	w14, #6
   11e40: 31 00 80 52  	mov	w17, #1
   11e44: af 00 80 52  	mov	w15, #5
   11e48: 60 0a 40 f9  	ldr	x0, [x19, #16]
   11e4c: 3f 01 00 71  	cmp	w9, #0
   11e50: 00 10 4a fa  	ccmp	x0, x10, #0, ne
   11e54: 60 07 00 54  	b.eq	0x11f40 <bpf_object__load_xattr+0x10bc>
   11e58: 62 5a 40 b9  	ldr	w2, [x19, #88]
   11e5c: 5f 00 00 71  	cmp	w2, #0
   11e60: 0d 07 00 54  	b.le	0x11f40 <bpf_object__load_xattr+0x10bc>
   11e64: 03 00 80 52  	mov	w3, #0
   11e68: 66 22 40 f9  	ldr	x6, [x19, #64]
   11e6c: 61 2a 40 f9  	ldr	x1, [x19, #80]
   11e70: 14 00 00 14  	b	0x11ec0 <bpf_object__load_xattr+0x103c>
   11e74: 9f 04 00 71  	cmp	w4, #1
   11e78: c0 01 00 54  	b.eq	0x11eb0 <bpf_object__load_xattr+0x102c>
   11e7c: 9f 08 00 71  	cmp	w4, #2
   11e80: 81 04 00 54  	b.ne	0x11f10 <bpf_object__load_xattr+0x108c>
   11e84: 34 0c 40 b9  	ldr	w20, [x1, #12]
   11e88: 07 04 40 b9  	ldr	w7, [x0, #4]
   11e8c: 72 53 40 f9  	ldr	x18, [x27, #160]
   11e90: e7 00 14 0b  	add	w7, w7, w20
   11e94: 07 0c 00 b9  	str	w7, [x0, #12]
   11e98: 27 08 40 b9  	ldr	w7, [x1, #8]
   11e9c: 12 1b 00 b4  	cbz	x18, 0x121fc <bpf_object__load_xattr+0x1378>
   11ea0: 04 04 40 39  	ldrb	w4, [x0, #1]
   11ea4: 07 04 00 b9  	str	w7, [x0, #4]
   11ea8: c4 0d 1c 33  	bfi	w4, w14, #4, #4
   11eac: 04 04 00 39  	strb	w4, [x0, #1]
   11eb0: 63 04 00 11  	add	w3, w3, #1
   11eb4: 21 40 00 91  	add	x1, x1, #16
   11eb8: 5f 00 03 6b  	cmp	w2, w3
   11ebc: 20 04 00 54  	b.eq	0x11f40 <bpf_object__load_xattr+0x10bc>
   11ec0: 20 04 80 b9  	ldrsw	x0, [x1, #4]
   11ec4: 24 00 40 b9  	ldr	w4, [x1]
   11ec8: c0 0c 00 8b  	add	x0, x6, x0, lsl #3
   11ecc: 9f 0c 00 71  	cmp	w4, #3
   11ed0: 20 14 00 54  	b.eq	0x12154 <bpf_object__load_xattr+0x12d0>
   11ed4: 09 fd ff 54  	b.ls	0x11e74 <bpf_object__load_xattr+0xff0>
   11ed8: 9f 10 00 71  	cmp	w4, #4
   11edc: 00 16 00 54  	b.eq	0x1219c <bpf_object__load_xattr+0x1318>
   11ee0: 9f 14 00 71  	cmp	w4, #5
   11ee4: c1 11 00 54  	b.ne	0x1211c <bpf_object__load_xattr+0x1298>
   11ee8: 00 04 40 39  	ldrb	w0, [x0, #1]
   11eec: 00 0c 1c 12  	and	w0, w0, #0xf0
   11ef0: 1f 00 01 71  	cmp	w0, #64
   11ef4: e0 fd ff 54  	b.eq	0x11eb0 <bpf_object__load_xattr+0x102c>
   11ef8: 62 1a 40 f9  	ldr	x2, [x19, #48]
   11efc: 01 00 00 90  	adrp	x1, 0x11000 <bpf_object__load_xattr+0x1078>
   11f00: 00 00 80 52  	mov	w0, #0
   11f04: 21 00 00 91  	add	x1, x1, #0
   11f08: 00 00 00 94  	bl	0x11f08 <bpf_object__load_xattr+0x1084>
   11f0c: 89 00 00 14  	b	0x12130 <bpf_object__load_xattr+0x12ac>
   11f10: 44 10 00 35  	cbnz	w4, 0x12118 <bpf_object__load_xattr+0x1294>
   11f14: 67 53 40 f9  	ldr	x7, [x27, #160]
   11f18: 24 08 40 b9  	ldr	w4, [x1, #8]
   11f1c: 07 18 00 b4  	cbz	x7, 0x1221c <bpf_object__load_xattr+0x1398>
   11f20: 07 04 40 39  	ldrb	w7, [x0, #1]
   11f24: 63 04 00 11  	add	w3, w3, #1
   11f28: 04 04 00 b9  	str	w4, [x0, #4]
   11f2c: 21 40 00 91  	add	x1, x1, #16
   11f30: e7 0d 1c 33  	bfi	w7, w15, #4, #4
   11f34: 07 04 00 39  	strb	w7, [x0, #1]
   11f38: 5f 00 03 6b  	cmp	w2, w3
   11f3c: 21 fc ff 54  	b.ne	0x11ec0 <bpf_object__load_xattr+0x103c>
   11f40: 08 05 00 91  	add	x8, x8, #1
   11f44: 73 62 03 91  	add	x19, x19, #216
   11f48: bf 00 08 eb  	cmp	x5, x8
   11f4c: e1 f7 ff 54  	b.ne	0x11e48 <bpf_object__load_xattr+0xfc4>
   11f50: 60 53 40 f9  	ldr	x0, [x27, #160]
   11f54: 40 6a 00 b4  	cbz	x0, 0x12c9c <bpf_object__load_xattr+0x1e18>
   11f58: e1 77 40 f9  	ldr	x1, [sp, #232]
   11f5c: 35 08 40 b9  	ldr	w21, [x1, #8]
   11f60: 1a 00 80 d2  	mov	x26, #0
   11f64: 18 00 80 d2  	mov	x24, #0
   11f68: b7 05 80 52  	mov	w23, #45
   11f6c: 96 00 80 52  	mov	w22, #4
   11f70: 00 01 00 b4  	cbz	x0, 0x11f90 <bpf_object__load_xattr+0x110c>
   11f74: 1f 20 03 d5  	nop
   11f78: 18 07 00 91  	add	x24, x24, #1
   11f7c: 5a 63 03 91  	add	x26, x26, #216
   11f80: 1f 03 05 eb  	cmp	x24, x5
   11f84: 82 05 00 54  	b.hs	0x12034 <bpf_object__load_xattr+0x11b0>
   11f88: 60 53 40 f9  	ldr	x0, [x27, #160]
   11f8c: 60 ff ff b5  	cbnz	x0, 0x11f78 <bpf_object__load_xattr+0x10f4>
   11f90: 79 2f 40 f9  	ldr	x25, [x27, #88]
   11f94: 39 03 1a 8b  	add	x25, x25, x26
   11f98: 22 27 40 f9  	ldr	x2, [x25, #72]
   11f9c: e2 fe ff b4  	cbz	x2, 0x11f78 <bpf_object__load_xattr+0x10f4>
   11fa0: 14 00 80 d2  	mov	x20, #0
   11fa4: 33 23 40 f9  	ldr	x19, [x25, #64]
   11fa8: 05 00 00 14  	b	0x11fbc <bpf_object__load_xattr+0x1138>
   11fac: 94 06 00 91  	add	x20, x20, #1
   11fb0: 73 22 00 91  	add	x19, x19, #8
   11fb4: 5f 00 14 eb  	cmp	x2, x20
   11fb8: 49 03 00 54  	b.ls	0x12020 <bpf_object__load_xattr+0x119c>
   11fbc: 60 02 40 39  	ldrb	w0, [x19]
   11fc0: 01 78 1c 12  	and	w1, w0, #0xfffffff7
   11fc4: 3f 14 02 71  	cmp	w1, #133
   11fc8: 21 ff ff 54  	b.ne	0x11fac <bpf_object__load_xattr+0x1128>
   11fcc: 00 ff 1f 37  	tbnz	w0, #3, 0x11fac <bpf_object__load_xattr+0x1128>
   11fd0: 60 02 40 b9  	ldr	w0, [x19]
   11fd4: 1f 1c 18 72  	tst	w0, #0xff00
   11fd8: a1 fe ff 54  	b.ne	0x11fac <bpf_object__load_xattr+0x1128>
   11fdc: 60 06 40 b9  	ldr	w0, [x19, #4]
   11fe0: 1f c4 01 71  	cmp	w0, #113
   11fe4: ec 21 00 54  	b.gt	0x12420 <bpf_object__load_xattr+0x159c>
   11fe8: 1f bc 01 71  	cmp	w0, #111
   11fec: 0d fe ff 54  	b.le	0x11fac <bpf_object__load_xattr+0x1128>
   11ff0: 60 53 40 f9  	ldr	x0, [x27, #160]
   11ff4: c0 fd ff b5  	cbnz	x0, 0x11fac <bpf_object__load_xattr+0x1128>
   11ff8: 00 01 80 52  	mov	w0, #8
   11ffc: 01 be ff 97  	bl	0x1800 <kernel_supports.part.0>
   12000: 1f 1c 00 72  	tst	w0, #0xff
   12004: 41 00 00 54  	b.ne	0x1200c <bpf_object__load_xattr+0x1188>
   12008: 76 06 00 b9  	str	w22, [x19, #4]
   1200c: 22 27 40 f9  	ldr	x2, [x25, #72]
   12010: 94 06 00 91  	add	x20, x20, #1
   12014: 73 22 00 91  	add	x19, x19, #8
   12018: 5f 00 14 eb  	cmp	x2, x20
   1201c: 08 fd ff 54  	b.hi	0x11fbc <bpf_object__load_xattr+0x1138>
   12020: 65 33 40 f9  	ldr	x5, [x27, #96]
   12024: 18 07 00 91  	add	x24, x24, #1
   12028: 5a 63 03 91  	add	x26, x26, #216
   1202c: 1f 03 05 eb  	cmp	x24, x5
   12030: c3 fa ff 54  	b.lo	0x11f88 <bpf_object__load_xattr+0x1104>
   12034: 65 87 00 b4  	cbz	x5, 0x13120 <bpf_object__load_xattr+0x229c>
   12038: 18 00 00 90  	adrp	x24, 0x12000 <bpf_object__load_xattr+0x11b4>
   1203c: 77 43 00 91  	add	x23, x27, #16
   12040: 18 03 00 91  	add	x24, x24, #0
   12044: 14 00 80 d2  	mov	x20, #0
   12048: 16 00 80 d2  	mov	x22, #0
   1204c: 0d 00 00 14  	b	0x12080 <bpf_object__load_xattr+0x11fc>
   12050: 03 5c 40 b9  	ldr	w3, [x0, #92]
   12054: e1 03 17 aa  	mov	x1, x23
   12058: 62 53 40 b9  	ldr	w2, [x27, #80]
   1205c: 63 00 15 2a  	orr	w3, w3, w21
   12060: 03 5c 00 b9  	str	w3, [x0, #92]
   12064: 00 00 00 94  	bl	0x12064 <bpf_object__load_xattr+0x11e0>
   12068: 60 38 00 35  	cbnz	w0, 0x12774 <bpf_object__load_xattr+0x18f0>
   1206c: 65 33 40 f9  	ldr	x5, [x27, #96]
   12070: d6 06 00 91  	add	x22, x22, #1
   12074: 94 62 03 91  	add	x20, x20, #216
   12078: bf 00 16 eb  	cmp	x5, x22
   1207c: 69 02 00 54  	b.ls	0x120c8 <bpf_object__load_xattr+0x1244>
   12080: 60 2f 40 f9  	ldr	x0, [x27, #88]
   12084: 61 5b 81 b9  	ldrsw	x1, [x27, #344]
   12088: 00 00 14 8b  	add	x0, x0, x20
   1208c: 02 08 40 f9  	ldr	x2, [x0, #16]
   12090: 5f 00 01 eb  	cmp	x2, x1
   12094: a4 08 41 fa  	ccmp	x5, #1, #4, eq
   12098: c1 fe ff 54  	b.ne	0x12070 <bpf_object__load_xattr+0x11ec>
   1209c: 01 40 42 39  	ldrb	w1, [x0, #144]
   120a0: 81 fd ff 35  	cbnz	w1, 0x12050 <bpf_object__load_xattr+0x11cc>
   120a4: 02 18 40 f9  	ldr	x2, [x0, #48]
   120a8: e1 03 18 aa  	mov	x1, x24
   120ac: 40 00 80 52  	mov	w0, #2
   120b0: d6 06 00 91  	add	x22, x22, #1
   120b4: 94 62 03 91  	add	x20, x20, #216
   120b8: 00 00 00 94  	bl	0x120b8 <bpf_object__load_xattr+0x1234>
   120bc: 65 33 40 f9  	ldr	x5, [x27, #96]
   120c0: bf 00 16 eb  	cmp	x5, x22
   120c4: e8 fd ff 54  	b.hi	0x12080 <bpf_object__load_xattr+0x11fc>
   120c8: 60 53 40 f9  	ldr	x0, [x27, #160]
   120cc: 13 00 80 52  	mov	w19, #0
   120d0: 40 37 00 b4  	cbz	x0, 0x127b8 <bpf_object__load_xattr+0x1934>
   120d4: 05 73 00 b4  	cbz	x5, 0x12f34 <bpf_object__load_xattr+0x20b0>
   120d8: 15 00 80 d2  	mov	x21, #0
   120dc: 14 00 80 d2  	mov	x20, #0
   120e0: 73 2f 40 f9  	ldr	x19, [x27, #88]
   120e4: 94 06 00 91  	add	x20, x20, #1
   120e8: 73 02 15 8b  	add	x19, x19, x21
   120ec: b5 62 03 91  	add	x21, x21, #216
   120f0: 60 2a 40 f9  	ldr	x0, [x19, #80]
   120f4: 00 00 00 94  	bl	0x120f4 <bpf_object__load_xattr+0x1270>
   120f8: 60 33 40 f9  	ldr	x0, [x27, #96]
   120fc: 7f 2a 00 f9  	str	xzr, [x19, #80]
   12100: 7f 5a 00 b9  	str	wzr, [x19, #88]
   12104: 1f 00 14 eb  	cmp	x0, x20
   12108: c8 fe ff 54  	b.hi	0x120e0 <bpf_object__load_xattr+0x125c>
   1210c: 13 00 80 52  	mov	w19, #0
   12110: f9 6b 45 a9  	ldp	x25, x26, [sp, #80]
   12114: bb fb ff 17  	b	0x11000 <bpf_object__load_xattr+0x17c>
   12118: 24 00 80 52  	mov	w4, #1
   1211c: 62 1a 40 f9  	ldr	x2, [x19, #48]
   12120: 01 00 00 90  	adrp	x1, 0x12000 <bpf_object__load_xattr+0x129c>
   12124: 00 00 80 52  	mov	w0, #0
   12128: 21 00 00 91  	add	x1, x1, #0
   1212c: 00 00 00 94  	bl	0x1212c <bpf_object__load_xattr+0x12a8>
   12130: 62 1a 40 f9  	ldr	x2, [x19, #48]
   12134: a3 02 80 12  	mov	w3, #-22
   12138: 01 00 00 90  	adrp	x1, 0x12000 <bpf_object__load_xattr+0x12b4>
   1213c: f3 03 03 2a  	mov	w19, w3
   12140: 21 00 00 91  	add	x1, x1, #0
   12144: 00 00 80 52  	mov	w0, #0
   12148: 00 00 00 94  	bl	0x12148 <bpf_object__load_xattr+0x12c4>
   1214c: f9 6b 45 a9  	ldp	x25, x26, [sp, #80]
   12150: ac fb ff 17  	b	0x11000 <bpf_object__load_xattr+0x17c>
   12154: 27 0c 40 b9  	ldr	w7, [x1, #12]
   12158: 74 47 40 f9  	ldr	x20, [x27, #136]
   1215c: e7 7c 2b 9b  	smull	x7, w7, w11
   12160: 92 02 07 8b  	add	x18, x20, x7
   12164: 87 6a 67 b8  	ldr	w7, [x20, x7]
   12168: ff 04 00 71  	cmp	w7, #1
   1216c: 40 03 00 54  	b.eq	0x121d4 <bpf_object__load_xattr+0x1350>
   12170: 47 32 40 b9  	ldr	w7, [x18, #48]
   12174: 67 02 00 34  	cbz	w7, 0x121c0 <bpf_object__load_xattr+0x133c>
   12178: 47 62 40 39  	ldrb	w7, [x18, #24]
   1217c: 27 02 00 34  	cbz	w7, 0x121c0 <bpf_object__load_xattr+0x133c>
   12180: 07 04 40 39  	ldrb	w7, [x0, #1]
   12184: 54 4a 45 29  	ldp	w20, w18, [x18, #40]
   12188: 12 04 00 b9  	str	w18, [x0, #4]
   1218c: 87 0c 1c 33  	bfi	w7, w4, #4, #4
   12190: 07 04 00 39  	strb	w7, [x0, #1]
   12194: 14 0c 00 b9  	str	w20, [x0, #12]
   12198: 46 ff ff 17  	b	0x11eb0 <bpf_object__load_xattr+0x102c>
   1219c: 24 0c 40 b9  	ldr	w4, [x1, #12]
   121a0: 72 47 40 f9  	ldr	x18, [x27, #136]
   121a4: 07 04 40 39  	ldrb	w7, [x0, #1]
   121a8: 84 48 2b 9b  	smaddl	x4, w4, w11, x18
   121ac: a7 0d 1c 33  	bfi	w7, w13, #4, #4
   121b0: 07 04 00 39  	strb	w7, [x0, #1]
   121b4: 84 2c 40 b9  	ldr	w4, [x4, #44]
   121b8: 04 04 00 b9  	str	w4, [x0, #4]
   121bc: 3d ff ff 17  	b	0x11eb0 <bpf_object__load_xattr+0x102c>
   121c0: 44 12 40 f9  	ldr	x4, [x18, #32]
   121c4: 04 04 00 b9  	str	w4, [x0, #4]
   121c8: 84 fc 60 d3  	lsr	x4, x4, #32
   121cc: 04 0c 00 b9  	str	w4, [x0, #12]
   121d0: 38 ff ff 17  	b	0x11eb0 <bpf_object__load_xattr+0x102c>
   121d4: 67 53 40 f9  	ldr	x7, [x27, #160]
   121d8: 64 97 40 b9  	ldr	w4, [x27, #148]
   121dc: a7 23 00 b4  	cbz	x7, 0x12650 <bpf_object__load_xattr+0x17cc>
   121e0: 07 04 40 39  	ldrb	w7, [x0, #1]
   121e4: c7 0d 1c 33  	bfi	w7, w14, #4, #4
   121e8: 07 04 00 39  	strb	w7, [x0, #1]
   121ec: 47 2e 40 b9  	ldr	w7, [x18, #44]
   121f0: 04 04 00 b9  	str	w4, [x0, #4]
   121f4: 07 0c 00 b9  	str	w7, [x0, #12]
   121f8: 2e ff ff 17  	b	0x11eb0 <bpf_object__load_xattr+0x102c>
   121fc: 74 37 40 f9  	ldr	x20, [x27, #104]
   12200: 12 04 40 39  	ldrb	w18, [x0, #1]
   12204: e7 50 30 9b  	smaddl	x7, w7, w16, x20
   12208: 92 0c 1c 33  	bfi	w18, w4, #4, #4
   1220c: 12 04 00 39  	strb	w18, [x0, #1]
   12210: e4 08 40 b9  	ldr	w4, [x7, #8]
   12214: 04 04 00 b9  	str	w4, [x0, #4]
   12218: 26 ff ff 17  	b	0x11eb0 <bpf_object__load_xattr+0x102c>
   1221c: 72 37 40 f9  	ldr	x18, [x27, #104]
   12220: 07 04 40 39  	ldrb	w7, [x0, #1]
   12224: 84 48 30 9b  	smaddl	x4, w4, w16, x18
   12228: 27 0e 1c 33  	bfi	w7, w17, #4, #4
   1222c: 07 04 00 39  	strb	w7, [x0, #1]
   12230: 84 08 40 b9  	ldr	w4, [x4, #8]
   12234: 04 04 00 b9  	str	w4, [x0, #4]
   12238: 1e ff ff 17  	b	0x11eb0 <bpf_object__load_xattr+0x102c>
   1223c: fb 53 40 f9  	ldr	x27, [sp, #160]
   12240: e3 03 15 aa  	mov	x3, x21
   12244: 02 03 00 91  	add	x2, x24, #0
   12248: 01 00 00 90  	adrp	x1, 0x12000 <bpf_object__load_xattr+0x13c4>
   1224c: 00 00 80 52  	mov	w0, #0
   12250: 21 00 00 91  	add	x1, x1, #0
   12254: 00 00 00 94  	bl	0x12254 <bpf_object__load_xattr+0x13d0>
   12258: f9 6b 45 a9  	ldp	x25, x26, [sp, #80]
   1225c: 69 fb ff 17  	b	0x11000 <bpf_object__load_xattr+0x17c>
   12260: 60 53 40 f9  	ldr	x0, [x27, #160]
   12264: 00 00 00 94  	bl	0x12264 <bpf_object__load_xattr+0x13e0>
   12268: f3 03 00 2a  	mov	w19, w0
   1226c: 79 fb ff 17  	b	0x11050 <bpf_object__load_xattr+0x1cc>
   12270: 40 00 80 52  	mov	w0, #2
   12274: 63 bd ff 97  	bl	0x1800 <kernel_supports.part.0>
   12278: 1f 1c 00 72  	tst	w0, #0xff
   1227c: 01 79 ff 54  	b.ne	0x1119c <bpf_object__load_xattr+0x318>
   12280: 60 6f 41 b9  	ldr	w0, [x27, #364]
   12284: d3 0b 80 12  	mov	w19, #-95
   12288: 40 44 f8 37  	tbnz	w0, #31, 0x12b10 <bpf_object__load_xattr+0x1c8c>
   1228c: e2 03 13 2a  	mov	w2, w19
   12290: 03 00 00 90  	adrp	x3, 0x12000 <bpf_object__load_xattr+0x140c>
   12294: 01 00 00 90  	adrp	x1, 0x12000 <bpf_object__load_xattr+0x1410>
   12298: 63 00 00 91  	add	x3, x3, #0
   1229c: 21 00 00 91  	add	x1, x1, #0
   122a0: 00 00 80 52  	mov	w0, #0
   122a4: 00 00 00 94  	bl	0x122a4 <bpf_object__load_xattr+0x1420>
   122a8: f9 6b 45 a9  	ldp	x25, x26, [sp, #80]
   122ac: 55 fb ff 17  	b	0x11000 <bpf_object__load_xattr+0x17c>
   122b0: a0 00 80 52  	mov	w0, #5
   122b4: 53 bd ff 97  	bl	0x1800 <kernel_supports.part.0>
   122b8: 61 53 40 f9  	ldr	x1, [x27, #160]
   122bc: 15 1c 00 12  	and	w21, w0, #0xff
   122c0: 01 26 00 b5  	cbnz	x1, 0x12780 <bpf_object__load_xattr+0x18fc>
   122c4: 80 00 80 52  	mov	w0, #4
   122c8: 4e bd ff 97  	bl	0x1800 <kernel_supports.part.0>
   122cc: 61 53 40 f9  	ldr	x1, [x27, #160]
   122d0: 14 1c 00 12  	and	w20, w0, #0xff
   122d4: 41 66 00 b5  	cbnz	x1, 0x12f9c <bpf_object__load_xattr+0x2118>
   122d8: 60 01 80 52  	mov	w0, #11
   122dc: 49 bd ff 97  	bl	0x1800 <kernel_supports.part.0>
   122e0: 61 53 40 f9  	ldr	x1, [x27, #160]
   122e4: 13 1c 00 12  	and	w19, w0, #0xff
   122e8: 81 00 00 b5  	cbnz	x1, 0x122f8 <bpf_object__load_xattr+0x1474>
   122ec: 60 00 80 52  	mov	w0, #3
   122f0: 44 bd ff 97  	bl	0x1800 <kernel_supports.part.0>
   122f4: 94 02 00 0a  	and	w20, w20, w0
   122f8: 74 24 00 35  	cbnz	w20, 0x12784 <bpf_object__load_xattr+0x1900>
   122fc: 60 c3 40 f9  	ldr	x0, [x27, #384]
   12300: f9 63 04 91  	add	x25, sp, #280
   12304: e1 03 19 aa  	mov	x1, x25
   12308: 00 00 00 94  	bl	0x12308 <bpf_object__load_xattr+0x1484>
   1230c: e1 1b 41 b9  	ldr	w1, [sp, #280]
   12310: 00 00 00 94  	bl	0x12310 <bpf_object__load_xattr+0x148c>
   12314: f4 03 00 aa  	mov	x20, x0
   12318: 20 60 00 b4  	cbz	x0, 0x12f1c <bpf_object__load_xattr+0x2098>
   1231c: 9f 06 40 b1  	cmn	x20, #1, lsl #12        // =4096
   12320: 28 64 00 54  	b.hi	0x12fa4 <bpf_object__load_xattr+0x2120>
   12324: 60 c3 40 f9  	ldr	x0, [x27, #384]
   12328: 01 01 80 d2  	mov	x1, #8
   1232c: 38 00 80 52  	mov	w24, #1
   12330: 00 00 00 94  	bl	0x12330 <bpf_object__load_xattr+0x14ac>
   12334: 60 53 40 f9  	ldr	x0, [x27, #160]
   12338: c0 30 00 b4  	cbz	x0, 0x12950 <bpf_object__load_xattr+0x1acc>
   1233c: 35 00 80 52  	mov	w21, #1
   12340: 37 00 80 52  	mov	w23, #1
   12344: f6 03 17 2a  	mov	w22, w23
   12348: f9 3f 00 f9  	str	x25, [sp, #120]
   1234c: f9 03 14 aa  	mov	x25, x20
   12350: 33 00 80 52  	mov	w19, #1
   12354: fc 0b 80 52  	mov	w28, #95
   12358: e0 03 19 aa  	mov	x0, x25
   1235c: 00 00 00 94  	bl	0x1235c <bpf_object__load_xattr+0x14d8>
   12360: 1f 00 13 6b  	cmp	w0, w19
   12364: c3 43 00 54  	b.lo	0x12bdc <bpf_object__load_xattr+0x1d58>
   12368: e1 03 13 2a  	mov	w1, w19
   1236c: e0 03 19 aa  	mov	x0, x25
   12370: 00 00 00 94  	bl	0x12370 <bpf_object__load_xattr+0x14ec>
   12374: fa 03 00 aa  	mov	x26, x0
   12378: f5 00 00 35  	cbnz	w21, 0x12394 <bpf_object__load_xattr+0x1510>
   1237c: 00 1c 40 39  	ldrb	w0, [x0, #7]
   12380: 00 10 00 12  	and	w0, w0, #0x1f
   12384: 1f 38 00 71  	cmp	w0, #14
   12388: c0 41 00 54  	b.eq	0x12bc0 <bpf_object__load_xattr+0x1d3c>
   1238c: 1f 3c 00 71  	cmp	w0, #15
   12390: 40 38 00 54  	b.eq	0x12a98 <bpf_object__load_xattr+0x1c14>
   12394: b6 3d 00 34  	cbz	w22, 0x12b48 <bpf_object__load_xattr+0x1cc4>
   12398: 78 3c 00 35  	cbnz	w24, 0x12b24 <bpf_object__load_xattr+0x1ca0>
   1239c: 40 1f 40 39  	ldrb	w0, [x26, #7]
   123a0: 00 10 00 12  	and	w0, w0, #0x1f
   123a4: 1f 30 00 71  	cmp	w0, #12
   123a8: e1 3b 00 54  	b.ne	0x12b24 <bpf_object__load_xattr+0x1ca0>
   123ac: 00 80 a1 52  	mov	w0, #201326592
   123b0: 40 07 00 b9  	str	w0, [x26, #4]
   123b4: 73 06 00 11  	add	w19, w19, #1
   123b8: e8 ff ff 17  	b	0x12358 <bpf_object__load_xattr+0x14d4>
   123bc: a3 00 80 52  	mov	w3, #5
   123c0: e0 03 13 aa  	mov	x0, x19
   123c4: 02 00 80 d2  	mov	x2, #0
   123c8: 01 00 80 d2  	mov	x1, #0
   123cc: e3 1b 01 b9  	str	w3, [sp, #280]
   123d0: 00 00 00 94  	bl	0x123d0 <bpf_object__load_xattr+0x154c>
   123d4: e0 bd ff 36  	tbz	w0, #31, 0x11b90 <bpf_object__load_xattr+0xd0c>
   123d8: 00 00 00 94  	bl	0x123d8 <bpf_object__load_xattr+0x1554>
   123dc: 14 00 40 b9  	ldr	w20, [x0]
   123e0: e1 23 06 91  	add	x1, sp, #392
   123e4: 02 10 80 52  	mov	w2, #128
   123e8: e0 03 14 2a  	mov	w0, w20
   123ec: 00 00 00 94  	bl	0x123ec <bpf_object__load_xattr+0x1568>
   123f0: 02 00 00 90  	adrp	x2, 0x12000 <bpf_object__load_xattr+0x156c>
   123f4: 42 00 00 91  	add	x2, x2, #0
   123f8: e3 03 00 aa  	mov	x3, x0
   123fc: 01 00 00 90  	adrp	x1, 0x12000 <bpf_object__load_xattr+0x1578>
   12400: e4 03 14 2a  	mov	w4, w20
   12404: 42 60 05 91  	add	x2, x2, #344
   12408: 21 00 00 91  	add	x1, x1, #0
   1240c: f3 03 14 4b  	neg	w19, w20
   12410: 00 00 80 52  	mov	w0, #0
   12414: 00 00 00 94  	bl	0x12414 <bpf_object__load_xattr+0x1590>
   12418: 54 5f ff 35  	cbnz	w20, 0x11000 <bpf_object__load_xattr+0x17c>
   1241c: de fd ff 17  	b	0x11b94 <bpf_object__load_xattr+0xd10>
   12420: 00 c8 01 51  	sub	w0, w0, #114
   12424: 1f 04 00 71  	cmp	w0, #1
   12428: 28 dc ff 54  	b.hi	0x11fac <bpf_object__load_xattr+0x1128>
   1242c: 60 53 40 f9  	ldr	x0, [x27, #160]
   12430: e0 db ff b5  	cbnz	x0, 0x11fac <bpf_object__load_xattr+0x1128>
   12434: 00 01 80 52  	mov	w0, #8
   12438: f2 bc ff 97  	bl	0x1800 <kernel_supports.part.0>
   1243c: 22 27 40 f9  	ldr	x2, [x25, #72]
   12440: 1f 1c 00 72  	tst	w0, #0xff
   12444: 41 db ff 54  	b.ne	0x11fac <bpf_object__load_xattr+0x1128>
   12448: 77 06 00 b9  	str	w23, [x19, #4]
   1244c: d8 fe ff 17  	b	0x11fac <bpf_object__load_xattr+0x1128>
   12450: e2 03 08 91  	add	x2, sp, #512
   12454: e1 03 1b 2a  	mov	w1, w27
   12458: a6 3e 40 f9  	ldr	x6, [x21, #120]
   1245c: f9 8f 00 f9  	str	x25, [sp, #280]
   12460: 5f fc 32 a9  	stp	xzr, xzr, [x2, #-216]
   12464: e0 03 19 aa  	mov	x0, x25
   12468: e6 5b 00 f9  	str	x6, [sp, #176]
   1246c: 00 00 00 94  	bl	0x1246c <bpf_object__load_xattr+0x15e8>
   12470: e0 93 00 f9  	str	x0, [sp, #288]
   12474: 20 08 00 b4  	cbz	x0, 0x12578 <bpf_object__load_xattr+0x16f4>
   12478: 01 00 40 b9  	ldr	w1, [x0]
   1247c: e0 03 19 aa  	mov	x0, x25
   12480: 00 00 00 94  	bl	0x12480 <bpf_object__load_xattr+0x15fc>
   12484: e0 97 00 f9  	str	x0, [sp, #296]
   12488: 80 07 00 b4  	cbz	x0, 0x12578 <bpf_object__load_xattr+0x16f4>
   1248c: 01 00 40 39  	ldrb	w1, [x0]
   12490: 41 07 00 34  	cbz	w1, 0x12578 <bpf_object__load_xattr+0x16f4>
   12494: e6 5b 40 f9  	ldr	x6, [sp, #176]
   12498: e6 5f 00 f9  	str	x6, [sp, #184]
   1249c: 00 00 00 94  	bl	0x1249c <bpf_object__load_xattr+0x1618>
   124a0: e0 5b 00 f9  	str	x0, [sp, #176]
   124a4: 01 02 80 d2  	mov	x1, #16
   124a8: 20 00 80 d2  	mov	x0, #1
   124ac: 00 00 00 94  	bl	0x124ac <bpf_object__load_xattr+0x1628>
   124b0: e5 03 00 aa  	mov	x5, x0
   124b4: e6 5f 40 f9  	ldr	x6, [sp, #184]
   124b8: 00 56 00 b4  	cbz	x0, 0x12f78 <bpf_object__load_xattr+0x20f4>
   124bc: c2 d0 40 f9  	ldr	x2, [x6, #416]
   124c0: c2 43 00 b4  	cbz	x2, 0x12d38 <bpf_object__load_xattr+0x1eb4>
   124c4: e1 5b 40 f9  	ldr	x1, [sp, #176]
   124c8: e0 63 04 91  	add	x0, sp, #280
   124cc: 03 00 00 90  	adrp	x3, 0x12000 <bpf_object__load_xattr+0x1648>
   124d0: 24 00 80 52  	mov	w4, #1
   124d4: 63 00 00 91  	add	x3, x3, #0
   124d8: e5 9b 0b a9  	stp	x5, x6, [sp, #184]
   124dc: e0 87 00 f9  	str	x0, [sp, #264]
   124e0: 31 d0 ff 97  	bl	0x65a4 <bpf_core_add_cands>
   124e4: e1 03 00 2a  	mov	w1, w0
   124e8: e5 5f 40 f9  	ldr	x5, [sp, #184]
   124ec: e0 2b 00 35  	cbnz	w0, 0x12a68 <bpf_object__load_xattr+0x1be4>
   124f0: a0 08 40 b9  	ldr	w0, [x5, #8]
   124f4: 80 00 00 35  	cbnz	w0, 0x12504 <bpf_object__load_xattr+0x1680>
   124f8: e6 63 40 f9  	ldr	x6, [sp, #192]
   124fc: c0 d0 40 f9  	ldr	x0, [x6, #416]
   12500: e0 24 00 b4  	cbz	x0, 0x1299c <bpf_object__load_xattr+0x1b18>
   12504: e5 8b 00 f9  	str	x5, [sp, #272]
   12508: bf 04 40 b1  	cmn	x5, #1, lsl #12         // =4096
   1250c: 48 5f 00 54  	b.hi	0x130f4 <bpf_object__load_xattr+0x2270>
   12510: e0 4b 40 f9  	ldr	x0, [sp, #144]
   12514: e2 03 05 aa  	mov	x2, x5
   12518: e1 53 40 f9  	ldr	x1, [sp, #160]
   1251c: 05 00 80 d2  	mov	x5, #0
   12520: 04 00 80 d2  	mov	x4, #0
   12524: 23 00 80 52  	mov	w3, #1
   12528: 00 00 00 94  	bl	0x12528 <bpf_object__load_xattr+0x16a4>
   1252c: c0 9b ff 34  	cbz	w0, 0x118a4 <bpf_object__load_xattr+0xa20>
   12530: f4 8b 40 f9  	ldr	x20, [sp, #272]
   12534: f3 03 00 2a  	mov	w19, w0
   12538: fb 03 1c aa  	mov	x27, x28
   1253c: fc 4b 40 f9  	ldr	x28, [sp, #144]
   12540: 80 02 40 f9  	ldr	x0, [x20]
   12544: 00 00 00 94  	bl	0x12544 <bpf_object__load_xattr+0x16c0>
   12548: e0 03 14 aa  	mov	x0, x20
   1254c: 00 00 00 94  	bl	0x1254c <bpf_object__load_xattr+0x16c8>
   12550: a0 1a 40 f9  	ldr	x0, [x21, #48]
   12554: e0 3f 00 f9  	str	x0, [sp, #120]
   12558: e2 3f 40 f9  	ldr	x2, [sp, #120]
   1255c: e3 03 1a 2a  	mov	w3, w26
   12560: e4 03 13 2a  	mov	w4, w19
   12564: 01 00 00 90  	adrp	x1, 0x12000 <bpf_object__load_xattr+0x16e0>
   12568: 00 00 80 52  	mov	w0, #0
   1256c: 21 00 00 91  	add	x1, x1, #0
   12570: 00 00 00 94  	bl	0x12570 <bpf_object__load_xattr+0x16ec>
   12574: 14 00 00 14  	b	0x125c4 <bpf_object__load_xattr+0x1740>
   12578: a7 02 80 92  	mov	x7, #-22
   1257c: e0 03 07 aa  	mov	x0, x7
   12580: e0 8b 00 f9  	str	x0, [sp, #272]
   12584: e0 1e 40 39  	ldrb	w0, [x23, #7]
   12588: e4 03 1b 2a  	mov	w4, w27
   1258c: e3 03 1a 2a  	mov	w3, w26
   12590: 00 10 00 12  	and	w0, w0, #0x1f
   12594: 9b b6 ff 97  	bl	0x0 <__btf_kind_str>
   12598: e2 3f 40 f9  	ldr	x2, [sp, #120]
   1259c: e5 03 00 aa  	mov	x5, x0
   125a0: e6 4f 40 f9  	ldr	x6, [sp, #152]
   125a4: 00 00 80 52  	mov	w0, #0
   125a8: e1 7b 40 f9  	ldr	x1, [sp, #240]
   125ac: 00 00 00 94  	bl	0x125ac <bpf_object__load_xattr+0x1728>
   125b0: e0 13 41 b9  	ldr	w0, [sp, #272]
   125b4: c4 fc ff 17  	b	0x118c4 <bpf_object__load_xattr+0xa40>
   125b8: fb 03 1c aa  	mov	x27, x28
   125bc: b3 02 80 12  	mov	w19, #-22
   125c0: fc 4b 40 f9  	ldr	x28, [sp, #144]
   125c4: 60 d3 40 f9  	ldr	x0, [x27, #416]
   125c8: 00 00 00 94  	bl	0x125c8 <bpf_object__load_xattr+0x1744>
   125cc: 7f d3 00 f9  	str	xzr, [x27, #416]
   125d0: dc 02 00 b4  	cbz	x28, 0x12628 <bpf_object__load_xattr+0x17a4>
   125d4: 80 13 40 f9  	ldr	x0, [x28, #32]
   125d8: 20 02 00 b4  	cbz	x0, 0x1261c <bpf_object__load_xattr+0x1798>
   125dc: 16 00 80 d2  	mov	x22, #0
   125e0: 81 0f 40 f9  	ldr	x1, [x28, #24]
   125e4: 34 78 76 f8  	ldr	x20, [x1, x22, lsl #3]
   125e8: 54 01 00 b4  	cbz	x20, 0x12610 <bpf_object__load_xattr+0x178c>
   125ec: 1f 20 03 d5  	nop
   125f0: 95 06 40 f9  	ldr	x21, [x20, #8]
   125f4: a0 02 40 f9  	ldr	x0, [x21]
   125f8: 00 00 00 94  	bl	0x125f8 <bpf_object__load_xattr+0x1774>
   125fc: e0 03 15 aa  	mov	x0, x21
   12600: 00 00 00 94  	bl	0x12600 <bpf_object__load_xattr+0x177c>
   12604: 94 0a 40 f9  	ldr	x20, [x20, #16]
   12608: 54 ff ff b5  	cbnz	x20, 0x125f0 <bpf_object__load_xattr+0x176c>
   1260c: 80 13 40 f9  	ldr	x0, [x28, #32]
   12610: d6 06 00 91  	add	x22, x22, #1
   12614: 1f 00 16 eb  	cmp	x0, x22
   12618: 48 fe ff 54  	b.hi	0x125e0 <bpf_object__load_xattr+0x175c>
   1261c: e0 03 1c aa  	mov	x0, x28
   12620: 00 00 00 94  	bl	0x12620 <bpf_object__load_xattr+0x179c>
   12624: b3 98 ff 34  	cbz	w19, 0x11938 <bpf_object__load_xattr+0xab4>
   12628: e2 03 13 2a  	mov	w2, w19
   1262c: 01 00 00 90  	adrp	x1, 0x12000 <bpf_object__load_xattr+0x17a8>
   12630: 00 00 80 52  	mov	w0, #0
   12634: 21 00 00 91  	add	x1, x1, #0
   12638: 00 00 00 94  	bl	0x12638 <bpf_object__load_xattr+0x17b4>
   1263c: f9 6b 45 a9  	ldp	x25, x26, [sp, #80]
   12640: 70 fa ff 17  	b	0x11000 <bpf_object__load_xattr+0x17c>
   12644: e0 77 40 f9  	ldr	x0, [sp, #232]
   12648: 00 08 40 f9  	ldr	x0, [x0, #16]
   1264c: 1b fc ff 17  	b	0x116b8 <bpf_object__load_xattr+0x834>
   12650: 74 37 40 f9  	ldr	x20, [x27, #104]
   12654: 07 04 40 39  	ldrb	w7, [x0, #1]
   12658: 84 50 30 9b  	smaddl	x4, w4, w16, x20
   1265c: a7 0d 1c 33  	bfi	w7, w13, #4, #4
   12660: 07 04 00 39  	strb	w7, [x0, #1]
   12664: 84 08 40 b9  	ldr	w4, [x4, #8]
   12668: e1 fe ff 17  	b	0x121ec <bpf_object__load_xattr+0x1368>
   1266c: fc 5b 40 f9  	ldr	x28, [sp, #176]
   12670: e3 03 1a aa  	mov	x3, x26
   12674: 84 10 00 12  	and	w4, w4, #0x1f
   12678: 01 00 00 90  	adrp	x1, 0x12000 <bpf_object__load_xattr+0x17f4>
   1267c: 00 00 80 52  	mov	w0, #0
   12680: 21 00 00 91  	add	x1, x1, #0
   12684: 82 03 40 f9  	ldr	x2, [x28]
   12688: d3 0b 80 12  	mov	w19, #-95
   1268c: fb 53 40 f9  	ldr	x27, [sp, #160]
   12690: 00 00 00 94  	bl	0x12690 <bpf_object__load_xattr+0x180c>
   12694: f9 6b 45 a9  	ldp	x25, x26, [sp, #80]
   12698: 5a fa ff 17  	b	0x11000 <bpf_object__load_xattr+0x17c>
   1269c: fc 5b 40 f9  	ldr	x28, [sp, #176]
   126a0: e3 03 1a aa  	mov	x3, x26
   126a4: 01 00 00 90  	adrp	x1, 0x12000 <bpf_object__load_xattr+0x1820>
   126a8: 00 00 80 52  	mov	w0, #0
   126ac: 21 00 00 91  	add	x1, x1, #0
   126b0: d3 0b 80 12  	mov	w19, #-95
   126b4: 82 03 40 f9  	ldr	x2, [x28]
   126b8: fb 53 40 f9  	ldr	x27, [sp, #160]
   126bc: 00 00 00 94  	bl	0x126bc <bpf_object__load_xattr+0x1838>
   126c0: f9 6b 45 a9  	ldp	x25, x26, [sp, #80]
   126c4: 4f fa ff 17  	b	0x11000 <bpf_object__load_xattr+0x17c>
   126c8: fc 5b 40 f9  	ldr	x28, [sp, #176]
   126cc: e5 03 00 aa  	mov	x5, x0
   126d0: e4 03 13 aa  	mov	x4, x19
   126d4: e3 03 1a aa  	mov	x3, x26
   126d8: 01 00 00 90  	adrp	x1, 0x12000 <bpf_object__load_xattr+0x1854>
   126dc: 00 00 80 52  	mov	w0, #0
   126e0: 82 03 40 f9  	ldr	x2, [x28]
   126e4: 21 00 00 91  	add	x1, x1, #0
   126e8: d3 0b 80 12  	mov	w19, #-95
   126ec: fb 53 40 f9  	ldr	x27, [sp, #160]
   126f0: 00 00 00 94  	bl	0x126f0 <bpf_object__load_xattr+0x186c>
   126f4: f9 6b 45 a9  	ldp	x25, x26, [sp, #80]
   126f8: 42 fa ff 17  	b	0x11000 <bpf_object__load_xattr+0x17c>
   126fc: 65 33 40 f9  	ldr	x5, [x27, #96]
   12700: 70 fd ff 17  	b	0x11cc0 <bpf_object__load_xattr+0xe3c>
   12704: e3 03 1a aa  	mov	x3, x26
   12708: 01 00 00 90  	adrp	x1, 0x12000 <bpf_object__load_xattr+0x1884>
   1270c: 00 00 80 52  	mov	w0, #0
   12710: 21 00 00 91  	add	x1, x1, #0
   12714: d3 0b 80 12  	mov	w19, #-95
   12718: fb 53 40 f9  	ldr	x27, [sp, #160]
   1271c: 00 00 00 94  	bl	0x1271c <bpf_object__load_xattr+0x1898>
   12720: f9 6b 45 a9  	ldp	x25, x26, [sp, #80]
   12724: 37 fa ff 17  	b	0x11000 <bpf_object__load_xattr+0x17c>
   12728: f8 83 40 f9  	ldr	x24, [sp, #256]
   1272c: fb 03 1c aa  	mov	x27, x28
   12730: e4 03 1a 2a  	mov	w4, w26
   12734: 01 00 00 90  	adrp	x1, 0x12000 <bpf_object__load_xattr+0x18b0>
   12738: e2 03 18 aa  	mov	x2, x24
   1273c: 21 00 00 91  	add	x1, x1, #0
   12740: 00 00 80 52  	mov	w0, #0
   12744: b3 02 80 12  	mov	w19, #-22
   12748: fc 4b 40 f9  	ldr	x28, [sp, #144]
   1274c: 00 00 00 94  	bl	0x1274c <bpf_object__load_xattr+0x18c8>
   12750: 9d ff ff 17  	b	0x125c4 <bpf_object__load_xattr+0x1740>
   12754: 01 00 00 90  	adrp	x1, 0x12000 <bpf_object__load_xattr+0x18d0>
   12758: 00 00 80 52  	mov	w0, #0
   1275c: 21 00 00 91  	add	x1, x1, #0
   12760: d3 0b 80 12  	mov	w19, #-95
   12764: 00 00 00 94  	bl	0x12764 <bpf_object__load_xattr+0x18e0>
   12768: f9 6b 45 a9  	ldp	x25, x26, [sp, #80]
   1276c: 25 fa ff 17  	b	0x11000 <bpf_object__load_xattr+0x17c>
   12770: fb 03 1c aa  	mov	x27, x28
   12774: f3 03 00 2a  	mov	w19, w0
   12778: f9 6b 45 a9  	ldp	x25, x26, [sp, #80]
   1277c: 21 fa ff 17  	b	0x11000 <bpf_object__load_xattr+0x17c>
   12780: 33 00 80 52  	mov	w19, #1
   12784: bf 02 00 71  	cmp	w21, #0
   12788: 64 1a 40 7a  	ccmp	w19, #0, #4, ne
   1278c: 80 db ff 54  	b.eq	0x122fc <bpf_object__load_xattr+0x1478>
   12790: 61 53 40 f9  	ldr	x1, [x27, #160]
   12794: 21 51 ff b5  	cbnz	x1, 0x111b8 <bpf_object__load_xattr+0x334>
   12798: e0 03 16 aa  	mov	x0, x22
   1279c: 00 00 00 94  	bl	0x1279c <bpf_object__load_xattr+0x1918>
   127a0: f3 03 00 2a  	mov	w19, w0
   127a4: 60 2b 00 35  	cbnz	w0, 0x12d10 <bpf_object__load_xattr+0x1e8c>
   127a8: 90 fa ff 17  	b	0x111e8 <bpf_object__load_xattr+0x364>
   127ac: 60 53 40 f9  	ldr	x0, [x27, #160]
   127b0: 13 00 80 52  	mov	w19, #0
   127b4: 20 29 00 b5  	cbnz	x0, 0x12cd8 <bpf_object__load_xattr+0x1e54>
   127b8: f9 6b 45 a9  	ldp	x25, x26, [sp, #80]
   127bc: 25 fa ff 17  	b	0x11050 <bpf_object__load_xattr+0x1cc>
   127c0: 1c 00 80 d2  	mov	x28, #0
   127c4: 13 00 80 52  	mov	w19, #0
   127c8: 5f 03 00 71  	cmp	w26, #0
   127cc: 0d 4e ff 54  	b.le	0x1118c <bpf_object__load_xattr+0x308>
   127d0: 18 00 00 90  	adrp	x24, 0x12000 <bpf_object__load_xattr+0x194c>
   127d4: 00 03 00 91  	add	x0, x24, #0
   127d8: 17 00 00 90  	adrp	x23, 0x12000 <bpf_object__load_xattr+0x1954>
   127dc: f9 43 04 91  	add	x25, sp, #272
   127e0: e0 47 00 f9  	str	x0, [sp, #136]
   127e4: e0 02 00 91  	add	x0, x23, #0
   127e8: e0 4b 00 f9  	str	x0, [sp, #144]
   127ec: 08 00 00 14  	b	0x1280c <bpf_object__load_xattr+0x1988>
   127f0: 20 00 80 52  	mov	w0, #1
   127f4: e0 62 00 39  	strb	w0, [x23, #24]
   127f8: ff 16 00 f9  	str	xzr, [x23, #40]
   127fc: 73 06 00 11  	add	w19, w19, #1
   12800: 9c e3 00 91  	add	x28, x28, #56
   12804: 7f 02 1a 6b  	cmp	w19, w26
   12808: 6a 49 ff 54  	b.ge	0x11134 <bpf_object__load_xattr+0x2b0>
   1280c: 60 47 40 f9  	ldr	x0, [x27, #136]
   12810: 17 00 1c 8b  	add	x23, x0, x28
   12814: 14 68 7c b8  	ldr	w20, [x0, x28]
   12818: 9f 0a 00 71  	cmp	w20, #2
   1281c: 01 ff ff 54  	b.ne	0x127fc <bpf_object__load_xattr+0x1978>
   12820: e0 32 40 b9  	ldr	w0, [x23, #48]
   12824: c0 fe ff 34  	cbz	w0, 0x127fc <bpf_object__load_xattr+0x1978>
   12828: 60 53 40 f9  	ldr	x0, [x27, #160]
   1282c: 20 fe ff b5  	cbnz	x0, 0x127f0 <bpf_object__load_xattr+0x196c>
   12830: e1 0a 40 b9  	ldr	w1, [x23, #8]
   12834: 60 c3 40 f9  	ldr	x0, [x27, #384]
   12838: 00 00 00 94  	bl	0x12838 <bpf_object__load_xattr+0x19b4>
   1283c: 02 1c 40 39  	ldrb	w2, [x0, #7]
   12840: e1 0a 40 f9  	ldr	x1, [x23, #16]
   12844: 42 10 00 12  	and	w2, w2, #0x1f
   12848: 5f 38 00 71  	cmp	w2, #14
   1284c: a0 27 00 54  	b.eq	0x12d40 <bpf_object__load_xattr+0x1ebc>
   12850: ff 13 01 b9  	str	wzr, [sp, #272]
   12854: e4 03 19 aa  	mov	x4, x25
   12858: e3 63 04 91  	add	x3, sp, #280
   1285c: e0 03 1b aa  	mov	x0, x27
   12860: f5 32 40 b9  	ldr	w21, [x23, #48]
   12864: 82 01 80 52  	mov	w2, #12
   12868: ff 8f 00 f9  	str	xzr, [sp, #280]
   1286c: 85 c8 ff 97  	bl	0x4a80 <find_ksym_btf_id.constprop.0>
   12870: f6 03 00 2a  	mov	w22, w0
   12874: 40 36 f8 37  	tbnz	w0, #31, 0x12f3c <bpf_object__load_xattr+0x20b8>
   12878: e1 8f 40 f9  	ldr	x1, [sp, #280]
   1287c: 60 cb 40 f9  	ldr	x0, [x27, #400]
   12880: 1f 00 01 eb  	cmp	x0, x1
   12884: a1 46 00 54  	b.ne	0x13158 <bpf_object__load_xattr+0x22d4>
   12888: e1 03 16 2a  	mov	w1, w22
   1288c: 00 00 00 94  	bl	0x1288c <bpf_object__load_xattr+0x1a08>
   12890: 1a 08 40 b9  	ldr	w26, [x0, #8]
   12894: e1 03 15 2a  	mov	w1, w21
   12898: e2 8f 40 f9  	ldr	x2, [sp, #280]
   1289c: e3 03 1a 2a  	mov	w3, w26
   128a0: 60 c3 40 f9  	ldr	x0, [x27, #384]
   128a4: 00 00 00 94  	bl	0x128a4 <bpf_object__load_xattr+0x1a20>
   128a8: e2 0a 40 f9  	ldr	x2, [x23, #16]
   128ac: 1f 00 00 71  	cmp	w0, #0
   128b0: 2d 44 00 54  	b.le	0x13134 <bpf_object__load_xattr+0x22b0>
   128b4: e1 13 41 b9  	ldr	w1, [sp, #272]
   128b8: 23 00 80 52  	mov	w3, #1
   128bc: e1 5a 05 29  	stp	w1, w22, [x23, #40]
   128c0: e0 03 14 2a  	mov	w0, w20
   128c4: e1 47 40 f9  	ldr	x1, [sp, #136]
   128c8: e3 62 00 39  	strb	w3, [x23, #24]
   128cc: e3 03 16 2a  	mov	w3, w22
   128d0: 00 00 00 94  	bl	0x128d0 <bpf_object__load_xattr+0x1a4c>
   128d4: 7a 93 40 b9  	ldr	w26, [x27, #144]
   128d8: c9 ff ff 17  	b	0x127fc <bpf_object__load_xattr+0x1978>
   128dc: e2 43 40 f9  	ldr	x2, [sp, #128]
   128e0: e1 03 00 aa  	mov	x1, x0
   128e4: e0 03 1c aa  	mov	x0, x28
   128e8: f6 c0 ff 97  	bl	0x2cc0 <bpf_object__read_kconfig_mem>
   128ec: c0 02 00 35  	cbnz	w0, 0x12944 <bpf_object__load_xattr+0x1ac0>
   128f0: 81 93 40 b9  	ldr	w1, [x28, #144]
   128f4: 3f 00 00 71  	cmp	w1, #0
   128f8: 8d 41 ff 54  	b.le	0x11128 <bpf_object__load_xattr+0x2a4>
   128fc: 80 47 40 f9  	ldr	x0, [x28, #136]
   12900: 21 04 00 51  	sub	w1, w1, #1
   12904: 03 07 80 52  	mov	w3, #56
   12908: 02 e0 00 91  	add	x2, x0, #56
   1290c: 21 08 a3 9b  	umaddl	x1, w1, w3, x2
   12910: 04 00 00 14  	b	0x12920 <bpf_object__load_xattr+0x1a9c>
   12914: 00 e0 00 91  	add	x0, x0, #56
   12918: 3f 00 00 eb  	cmp	x1, x0
   1291c: 60 40 ff 54  	b.eq	0x11128 <bpf_object__load_xattr+0x2a4>
   12920: 02 00 40 b9  	ldr	w2, [x0]
   12924: 5f 04 00 71  	cmp	w2, #1
   12928: 61 ff ff 54  	b.ne	0x12914 <bpf_object__load_xattr+0x1a90>
   1292c: 02 60 40 39  	ldrb	w2, [x0, #24]
   12930: 22 ff ff 35  	cbnz	w2, 0x12914 <bpf_object__load_xattr+0x1a90>
   12934: e1 43 40 f9  	ldr	x1, [sp, #128]
   12938: e0 03 1b aa  	mov	x0, x27
   1293c: 39 c1 ff 97  	bl	0x2e20 <bpf_object__read_kconfig_file>
   12940: 40 3f ff 34  	cbz	w0, 0x11128 <bpf_object__load_xattr+0x2a4>
   12944: b3 02 80 12  	mov	w19, #-22
   12948: f9 6b 45 a9  	ldp	x25, x26, [sp, #80]
   1294c: ad f9 ff 17  	b	0x11000 <bpf_object__load_xattr+0x17c>
   12950: a0 00 80 52  	mov	w0, #5
   12954: ab bb ff 97  	bl	0x1800 <kernel_supports.part.0>
   12958: 61 53 40 f9  	ldr	x1, [x27, #160]
   1295c: 18 1c 00 12  	and	w24, w0, #0xff
   12960: e1 ce ff b5  	cbnz	x1, 0x1233c <bpf_object__load_xattr+0x14b8>
   12964: 80 00 80 52  	mov	w0, #4
   12968: a6 bb ff 97  	bl	0x1800 <kernel_supports.part.0>
   1296c: 61 53 40 f9  	ldr	x1, [x27, #160]
   12970: 15 1c 00 12  	and	w21, w0, #0xff
   12974: 61 ce ff b5  	cbnz	x1, 0x12340 <bpf_object__load_xattr+0x14bc>
   12978: 60 01 80 52  	mov	w0, #11
   1297c: a1 bb ff 97  	bl	0x1800 <kernel_supports.part.0>
   12980: 61 53 40 f9  	ldr	x1, [x27, #160]
   12984: 17 1c 00 12  	and	w23, w0, #0xff
   12988: 21 3b 00 b5  	cbnz	x1, 0x130ec <bpf_object__load_xattr+0x2268>
   1298c: 60 00 80 52  	mov	w0, #3
   12990: 9c bb ff 97  	bl	0x1800 <kernel_supports.part.0>
   12994: 16 1c 00 12  	and	w22, w0, #0xff
   12998: 6c fe ff 17  	b	0x12348 <bpf_object__load_xattr+0x14c4>
   1299c: e0 03 06 aa  	mov	x0, x6
   129a0: e6 97 0b a9  	stp	x6, x5, [sp, #184]
   129a4: ef c6 ff 97  	bl	0x4560 <load_module_btfs>
   129a8: e1 03 00 2a  	mov	w1, w0
   129ac: e5 63 40 f9  	ldr	x5, [sp, #192]
   129b0: c0 05 00 35  	cbnz	w0, 0x12a68 <bpf_object__load_xattr+0x1be4>
   129b4: e6 5f 40 f9  	ldr	x6, [sp, #184]
   129b8: c0 dc 40 f9  	ldr	x0, [x6, #440]
   129bc: 40 da ff b4  	cbz	x0, 0x12504 <bpf_object__load_xattr+0x1680>
   129c0: 07 00 80 d2  	mov	x7, #0
   129c4: 09 00 80 d2  	mov	x9, #0
   129c8: f4 5f 00 f9  	str	x20, [sp, #184]
   129cc: f4 03 06 aa  	mov	x20, x6
   129d0: fb c3 00 b9  	str	w27, [sp, #192]
   129d4: fb 03 19 aa  	mov	x27, x25
   129d8: f9 03 15 aa  	mov	x25, x21
   129dc: f5 03 09 aa  	mov	x21, x9
   129e0: f6 cf 00 b9  	str	w22, [sp, #204]
   129e4: f8 5f 0d a9  	stp	x24, x23, [sp, #208]
   129e8: f8 03 05 aa  	mov	x24, x5
   129ec: f3 73 00 f9  	str	x19, [sp, #224]
   129f0: f3 03 07 aa  	mov	x19, x7
   129f4: 06 00 00 14  	b	0x12a0c <bpf_object__load_xattr+0x1b88>
   129f8: 80 de 40 f9  	ldr	x0, [x20, #440]
   129fc: b5 06 00 91  	add	x21, x21, #1
   12a00: 73 62 00 91  	add	x19, x19, #24
   12a04: 1f 00 15 eb  	cmp	x0, x21
   12a08: 69 35 00 54  	b.ls	0x130b4 <bpf_object__load_xattr+0x2230>
   12a0c: 81 d6 40 f9  	ldr	x1, [x20, #424]
   12a10: 80 ca 40 f9  	ldr	x0, [x20, #400]
   12a14: 22 00 13 8b  	add	x2, x1, x19
   12a18: 36 68 73 f8  	ldr	x22, [x1, x19]
   12a1c: 57 04 40 f9  	ldr	x23, [x2, #8]
   12a20: 00 00 00 94  	bl	0x12a20 <bpf_object__load_xattr+0x1b9c>
   12a24: 04 04 00 11  	add	w4, w0, #1
   12a28: e5 03 18 aa  	mov	x5, x24
   12a2c: e1 5b 40 f9  	ldr	x1, [sp, #176]
   12a30: e3 03 17 aa  	mov	x3, x23
   12a34: e0 87 40 f9  	ldr	x0, [sp, #264]
   12a38: e2 03 16 aa  	mov	x2, x22
   12a3c: da ce ff 97  	bl	0x65a4 <bpf_core_add_cands>
   12a40: e1 03 00 2a  	mov	w1, w0
   12a44: a0 fd ff 34  	cbz	w0, 0x129f8 <bpf_object__load_xattr+0x1b74>
   12a48: e5 03 18 aa  	mov	x5, x24
   12a4c: f5 03 19 aa  	mov	x21, x25
   12a50: f8 5f 4d a9  	ldp	x24, x23, [sp, #208]
   12a54: f9 03 1b aa  	mov	x25, x27
   12a58: f6 cf 40 b9  	ldr	w22, [sp, #204]
   12a5c: fb c3 40 b9  	ldr	w27, [sp, #192]
   12a60: f4 5f 40 f9  	ldr	x20, [sp, #184]
   12a64: f3 73 40 f9  	ldr	x19, [sp, #224]
   12a68: e5 5b 00 f9  	str	x5, [sp, #176]
   12a6c: a0 00 40 f9  	ldr	x0, [x5]
   12a70: e1 bb 00 b9  	str	w1, [sp, #184]
   12a74: 00 00 00 94  	bl	0x12a74 <bpf_object__load_xattr+0x1bf0>
   12a78: e1 bb 40 b9  	ldr	w1, [sp, #184]
   12a7c: e5 5b 40 f9  	ldr	x5, [sp, #176]
   12a80: e0 03 05 aa  	mov	x0, x5
   12a84: 25 7c 40 93  	sxtw	x5, w1
   12a88: e5 5b 00 f9  	str	x5, [sp, #176]
   12a8c: 00 00 00 94  	bl	0x12a8c <bpf_object__load_xattr+0x1c08>
   12a90: e5 5b 40 f9  	ldr	x5, [sp, #176]
   12a94: 9c fe ff 17  	b	0x12504 <bpf_object__load_xattr+0x1680>
   12a98: f4 03 1a aa  	mov	x20, x26
   12a9c: e0 03 19 aa  	mov	x0, x25
   12aa0: 81 c6 40 b8  	ldr	w1, [x20], #12
   12aa4: 00 00 00 94  	bl	0x12aa4 <bpf_object__load_xattr+0x1c20>
   12aa8: 01 00 40 39  	ldrb	w1, [x0]
   12aac: c1 00 00 34  	cbz	w1, 0x12ac4 <bpf_object__load_xattr+0x1c40>
   12ab0: 3f b8 00 71  	cmp	w1, #46
   12ab4: 41 00 00 54  	b.ne	0x12abc <bpf_object__load_xattr+0x1c38>
   12ab8: 1c 00 00 39  	strb	w28, [x0]
   12abc: 01 1c 40 38  	ldrb	w1, [x0, #1]!
   12ac0: 81 ff ff 35  	cbnz	w1, 0x12ab0 <bpf_object__load_xattr+0x1c2c>
   12ac4: 40 0b 40 79  	ldrh	w0, [x26, #4]
   12ac8: 01 00 06 32  	orr	w1, w0, #0x4000000
   12acc: 41 07 00 b9  	str	w1, [x26, #4]
   12ad0: 20 c7 ff 34  	cbz	w0, 0x123b4 <bpf_object__load_xattr+0x1530>
   12ad4: 00 04 00 51  	sub	w0, w0, #1
   12ad8: 81 01 80 52  	mov	w1, #12
   12adc: 1a 68 a1 9b  	umaddl	x26, w0, w1, x26
   12ae0: 5a 63 00 91  	add	x26, x26, #24
   12ae4: 81 0e 40 29  	ldp	w1, w3, [x20]
   12ae8: e0 03 19 aa  	mov	x0, x25
   12aec: 63 70 1d 53  	lsl	w3, w3, #3
   12af0: 81 8e 00 29  	stp	w1, w3, [x20, #4]
   12af4: 00 00 00 94  	bl	0x12af4 <bpf_object__load_xattr+0x1c70>
   12af8: 00 00 40 b9  	ldr	w0, [x0]
   12afc: 80 c6 00 b8  	str	w0, [x20], #12
   12b00: 9f 02 1a eb  	cmp	x20, x26
   12b04: 01 ff ff 54  	b.ne	0x12ae4 <bpf_object__load_xattr+0x1c60>
   12b08: 73 06 00 11  	add	w19, w19, #1
   12b0c: 13 fe ff 17  	b	0x12358 <bpf_object__load_xattr+0x14d4>
   12b10: 01 00 00 90  	adrp	x1, 0x12000 <bpf_object__load_xattr+0x1c8c>
   12b14: 40 00 80 52  	mov	w0, #2
   12b18: 21 00 00 91  	add	x1, x1, #0
   12b1c: 00 00 00 94  	bl	0x12b1c <bpf_object__load_xattr+0x1c98>
   12b20: b2 f9 ff 17  	b	0x111e8 <bpf_object__load_xattr+0x364>
   12b24: 97 c4 ff 35  	cbnz	w23, 0x123b4 <bpf_object__load_xattr+0x1530>
   12b28: 40 1f 40 39  	ldrb	w0, [x26, #7]
   12b2c: 00 10 00 12  	and	w0, w0, #0x1f
   12b30: 1f 40 00 71  	cmp	w0, #16
   12b34: 01 c4 ff 54  	b.ne	0x123b4 <bpf_object__load_xattr+0x1530>
   12b38: 00 80 e0 d2  	mov	x0, #288230376151711744
   12b3c: 73 06 00 11  	add	w19, w19, #1
   12b40: 40 03 00 f9  	str	x0, [x26]
   12b44: 05 fe ff 17  	b	0x12358 <bpf_object__load_xattr+0x14d4>
   12b48: 40 07 40 b9  	ldr	w0, [x26, #4]
   12b4c: 01 70 58 d3  	ubfx	x1, x0, #24, #5
   12b50: 3f 34 00 71  	cmp	w1, #13
   12b54: a0 09 00 54  	b.eq	0x12c88 <bpf_object__load_xattr+0x1e04>
   12b58: 3f 30 00 71  	cmp	w1, #12
   12b5c: 41 fe ff 54  	b.ne	0x12b24 <bpf_object__load_xattr+0x1ca0>
   12b60: 00 00 a1 52  	mov	w0, #134217728
   12b64: 73 06 00 11  	add	w19, w19, #1
   12b68: 40 07 00 b9  	str	w0, [x26, #4]
   12b6c: fb fd ff 17  	b	0x12358 <bpf_object__load_xattr+0x14d4>
   12b70: e1 03 1b aa  	mov	x1, x27
   12b74: 00 00 80 d2  	mov	x0, #0
   12b78: 00 00 00 94  	bl	0x12b78 <bpf_object__load_xattr+0x1cf4>
   12b7c: e0 00 00 b5  	cbnz	x0, 0x12b98 <bpf_object__load_xattr+0x1d14>
   12b80: df f8 ff 17  	b	0x10efc <bpf_object__load_xattr+0x78>
   12b84: 5f 68 00 71  	cmp	w2, #26
   12b88: 60 01 00 54  	b.eq	0x12bb4 <bpf_object__load_xattr+0x1d30>
   12b8c: e1 03 1b aa  	mov	x1, x27
   12b90: 00 00 00 94  	bl	0x12b90 <bpf_object__load_xattr+0x1d0c>
   12b94: 40 1b ff b4  	cbz	x0, 0x10efc <bpf_object__load_xattr+0x78>
   12b98: 02 40 42 39  	ldrb	w2, [x0, #144]
   12b9c: 82 ff ff 34  	cbz	w2, 0x12b8c <bpf_object__load_xattr+0x1d08>
   12ba0: 02 94 40 b9  	ldr	w2, [x0, #148]
   12ba4: 43 6c 00 51  	sub	w3, w2, #27
   12ba8: 7f 78 1e 72  	tst	w3, #0xfffffffd
   12bac: c1 fe ff 54  	b.ne	0x12b84 <bpf_object__load_xattr+0x1d00>
   12bb0: 14 fc ff 17  	b	0x11c00 <bpf_object__load_xattr+0xd7c>
   12bb4: 01 a8 40 b9  	ldr	w1, [x0, #168]
   12bb8: a1 fe ff 35  	cbnz	w1, 0x12b8c <bpf_object__load_xattr+0x1d08>
   12bbc: 11 fc ff 17  	b	0x11c00 <bpf_object__load_xattr+0xd7c>
   12bc0: 01 20 a0 d2  	mov	x1, #16777216
   12bc4: 00 01 80 52  	mov	w0, #8
   12bc8: 21 00 c0 f2  	movk	x1, #1, lsl #32
   12bcc: 73 06 00 11  	add	w19, w19, #1
   12bd0: 41 43 00 f8  	stur	x1, [x26, #4]
   12bd4: 40 0f 00 b9  	str	w0, [x26, #12]
   12bd8: e0 fd ff 17  	b	0x12358 <bpf_object__load_xattr+0x14d4>
   12bdc: 60 53 40 f9  	ldr	x0, [x27, #160]
   12be0: f4 03 19 aa  	mov	x20, x25
   12be4: f9 3f 40 f9  	ldr	x25, [sp, #120]
   12be8: 80 08 00 b4  	cbz	x0, 0x12cf8 <bpf_object__load_xattr+0x1e74>
   12bec: e1 03 19 aa  	mov	x1, x25
   12bf0: e0 03 14 aa  	mov	x0, x20
   12bf4: ff 1b 01 b9  	str	wzr, [sp, #280]
   12bf8: 00 00 00 94  	bl	0x12bf8 <bpf_object__load_xattr+0x1d74>
   12bfc: e1 03 00 aa  	mov	x1, x0
   12c00: 60 07 00 b4  	cbz	x0, 0x12cec <bpf_object__load_xattr+0x1e68>
   12c04: e2 1b 41 b9  	ldr	w2, [sp, #280]
   12c08: 60 53 40 f9  	ldr	x0, [x27, #160]
   12c0c: 00 00 00 94  	bl	0x12c0c <bpf_object__load_xattr+0x1d88>
   12c10: e0 03 14 aa  	mov	x0, x20
   12c14: 01 00 80 52  	mov	w1, #0
   12c18: 00 00 00 94  	bl	0x12c18 <bpf_object__load_xattr+0x1d94>
   12c1c: 73 c3 40 f9  	ldr	x19, [x27, #384]
   12c20: e0 03 14 aa  	mov	x0, x20
   12c24: 00 00 00 94  	bl	0x12c24 <bpf_object__load_xattr+0x1da0>
   12c28: e1 03 00 2a  	mov	w1, w0
   12c2c: e0 03 13 aa  	mov	x0, x19
   12c30: 00 00 00 94  	bl	0x12c30 <bpf_object__load_xattr+0x1dac>
   12c34: 01 00 80 12  	mov	w1, #-1
   12c38: e0 03 14 aa  	mov	x0, x20
   12c3c: 00 00 00 94  	bl	0x12c3c <bpf_object__load_xattr+0x1db8>
   12c40: e0 03 14 aa  	mov	x0, x20
   12c44: 00 00 00 94  	bl	0x12c44 <bpf_object__load_xattr+0x1dc0>
   12c48: 68 f9 ff 17  	b	0x111e8 <bpf_object__load_xattr+0x364>
   12c4c: fb 03 1c aa  	mov	x27, x28
   12c50: b3 02 80 12  	mov	w19, #-22
   12c54: fc 4b 40 f9  	ldr	x28, [sp, #144]
   12c58: 40 fe ff 17  	b	0x12558 <bpf_object__load_xattr+0x16d4>
   12c5c: 01 00 00 90  	adrp	x1, 0x12000 <bpf_object__load_xattr+0x1dd8>
   12c60: 00 00 80 52  	mov	w0, #0
   12c64: 21 00 00 91  	add	x1, x1, #0
   12c68: 53 00 80 12  	mov	w19, #-3
   12c6c: 00 00 00 94  	bl	0x12c6c <bpf_object__load_xattr+0x1de8>
   12c70: f9 6b 45 a9  	ldp	x25, x26, [sp, #80]
   12c74: e3 f8 ff 17  	b	0x11000 <bpf_object__load_xattr+0x17c>
   12c78: e0 03 1b aa  	mov	x0, x27
   12c7c: ca c0 ff 97  	bl	0x2fa4 <bpf_object__read_kallsyms_file>
   12c80: 60 25 ff 34  	cbz	w0, 0x1112c <bpf_object__load_xattr+0x2a8>
   12c84: 30 ff ff 17  	b	0x12944 <bpf_object__load_xattr+0x1ac0>
   12c88: 00 c0 a0 72  	movk	w0, #1536, lsl #16
   12c8c: 81 00 80 52  	mov	w1, #4
   12c90: 73 06 00 11  	add	w19, w19, #1
   12c94: 40 87 00 29  	stp	w0, w1, [x26, #4]
   12c98: b0 fd ff 17  	b	0x12358 <bpf_object__load_xattr+0x14d4>
   12c9c: 15 00 80 d2  	mov	x21, #0
   12ca0: 14 00 80 d2  	mov	x20, #0
   12ca4: 02 00 00 14  	b	0x12cac <bpf_object__load_xattr+0x1e28>
   12ca8: 6c 2f 40 f9  	ldr	x12, [x27, #88]
   12cac: 93 01 15 8b  	add	x19, x12, x21
   12cb0: 94 06 00 91  	add	x20, x20, #1
   12cb4: b5 62 03 91  	add	x21, x21, #216
   12cb8: 60 2a 40 f9  	ldr	x0, [x19, #80]
   12cbc: 00 00 00 94  	bl	0x12cbc <bpf_object__load_xattr+0x1e38>
   12cc0: 65 33 40 f9  	ldr	x5, [x27, #96]
   12cc4: 7f 2a 00 f9  	str	xzr, [x19, #80]
   12cc8: 7f 5a 00 b9  	str	wzr, [x19, #88]
   12ccc: bf 00 14 eb  	cmp	x5, x20
   12cd0: c8 fe ff 54  	b.hi	0x12ca8 <bpf_object__load_xattr+0x1e24>
   12cd4: 60 53 40 f9  	ldr	x0, [x27, #160]
   12cd8: e1 77 40 f9  	ldr	x1, [sp, #232]
   12cdc: 35 08 40 b9  	ldr	w21, [x1, #8]
   12ce0: 05 94 ff b5  	cbnz	x5, 0x11f60 <bpf_object__load_xattr+0x10dc>
   12ce4: fa fc ff 17  	b	0x120cc <bpf_object__load_xattr+0x1248>
   12ce8: fb 53 40 f9  	ldr	x27, [sp, #160]
   12cec: 73 01 80 12  	mov	w19, #-12
   12cf0: f9 6b 45 a9  	ldp	x25, x26, [sp, #80]
   12cf4: c3 f8 ff 17  	b	0x11000 <bpf_object__load_xattr+0x17c>
   12cf8: e0 03 14 aa  	mov	x0, x20
   12cfc: 00 00 00 94  	bl	0x12cfc <bpf_object__load_xattr+0x1e78>
   12d00: f3 03 00 2a  	mov	w19, w0
   12d04: c0 f8 ff 34  	cbz	w0, 0x12c1c <bpf_object__load_xattr+0x1d98>
   12d08: e0 03 14 aa  	mov	x0, x20
   12d0c: 00 00 00 94  	bl	0x12d0c <bpf_object__load_xattr+0x1e88>
   12d10: 60 6f 41 b9  	ldr	w0, [x27, #364]
   12d14: c0 ab ff 36  	tbz	w0, #31, 0x1228c <bpf_object__load_xattr+0x1408>
   12d18: e2 03 13 2a  	mov	w2, w19
   12d1c: 03 00 00 90  	adrp	x3, 0x12000 <bpf_object__load_xattr+0x1e98>
   12d20: 01 00 00 90  	adrp	x1, 0x12000 <bpf_object__load_xattr+0x1e9c>
   12d24: 63 00 00 91  	add	x3, x3, #0
   12d28: 21 00 00 91  	add	x1, x1, #0
   12d2c: 00 00 80 52  	mov	w0, #0
   12d30: 00 00 00 94  	bl	0x12d30 <bpf_object__load_xattr+0x1eac>
   12d34: 2d f9 ff 17  	b	0x111e8 <bpf_object__load_xattr+0x364>
   12d38: c2 c8 40 f9  	ldr	x2, [x6, #400]
   12d3c: e2 fd ff 17  	b	0x124c4 <bpf_object__load_xattr+0x1640>
   12d40: e4 03 19 aa  	mov	x4, x25
   12d44: e3 63 04 91  	add	x3, sp, #280
   12d48: e0 03 1b aa  	mov	x0, x27
   12d4c: ff 13 01 b9  	str	wzr, [sp, #272]
   12d50: ff 8f 00 f9  	str	xzr, [sp, #280]
   12d54: 4b c7 ff 97  	bl	0x4a80 <find_ksym_btf_id.constprop.0>
   12d58: f4 03 00 2a  	mov	w20, w0
   12d5c: 1f 0c 00 31  	cmn	w0, #3
   12d60: a0 06 00 54  	b.eq	0x12e34 <bpf_object__load_xattr+0x1fb0>
   12d64: c0 06 f8 37  	tbnz	w0, #31, 0x12e3c <bpf_object__load_xattr+0x1fb8>
   12d68: e1 03 00 2a  	mov	w1, w0
   12d6c: f8 32 40 b9  	ldr	w24, [x23, #48]
   12d70: e0 8f 40 f9  	ldr	x0, [sp, #280]
   12d74: 00 00 00 94  	bl	0x12d74 <bpf_object__load_xattr+0x1ef0>
   12d78: f6 03 00 aa  	mov	x22, x0
   12d7c: 01 00 40 b9  	ldr	w1, [x0]
   12d80: e0 8f 40 f9  	ldr	x0, [sp, #280]
   12d84: f6 3f 00 f9  	str	x22, [sp, #120]
   12d88: 00 00 00 94  	bl	0x12d88 <bpf_object__load_xattr+0x1f04>
   12d8c: d6 0a 40 b9  	ldr	w22, [x22, #8]
   12d90: e0 43 00 f9  	str	x0, [sp, #128]
   12d94: f5 8f 40 f9  	ldr	x21, [sp, #280]
   12d98: 02 00 00 14  	b	0x12da0 <bpf_object__load_xattr+0x1f1c>
   12d9c: 56 0b 40 b9  	ldr	w22, [x26, #8]
   12da0: e0 03 15 aa  	mov	x0, x21
   12da4: e1 03 16 2a  	mov	w1, w22
   12da8: 00 00 00 94  	bl	0x12da8 <bpf_object__load_xattr+0x1f24>
   12dac: fa 03 00 aa  	mov	x26, x0
   12db0: 00 1c 40 39  	ldrb	w0, [x0, #7]
   12db4: 00 10 00 12  	and	w0, w0, #0x1f
   12db8: 00 20 00 51  	sub	w0, w0, #8
   12dbc: 00 3c 00 12  	and	w0, w0, #0xffff
   12dc0: 1f 0c 00 71  	cmp	w0, #3
   12dc4: c9 fe ff 54  	b.ls	0x12d9c <bpf_object__load_xattr+0x1f18>
   12dc8: e2 8f 40 f9  	ldr	x2, [sp, #280]
   12dcc: e3 03 16 2a  	mov	w3, w22
   12dd0: 60 c3 40 f9  	ldr	x0, [x27, #384]
   12dd4: e1 03 18 2a  	mov	w1, w24
   12dd8: 00 00 00 94  	bl	0x12dd8 <bpf_object__load_xattr+0x1f54>
   12ddc: 1f 00 00 71  	cmp	w0, #0
   12de0: ed 11 00 54  	b.le	0x1301c <bpf_object__load_xattr+0x2198>
   12de4: e0 3f 40 f9  	ldr	x0, [sp, #120]
   12de8: 22 00 80 52  	mov	w2, #1
   12dec: e1 13 41 b9  	ldr	w1, [sp, #272]
   12df0: e3 03 14 2a  	mov	w3, w20
   12df4: 00 1c 40 39  	ldrb	w0, [x0, #7]
   12df8: e2 62 00 39  	strb	w2, [x23, #24]
   12dfc: e1 52 05 29  	stp	w1, w20, [x23, #40]
   12e00: 00 10 00 12  	and	w0, w0, #0x1f
   12e04: 7f b4 ff 97  	bl	0x0 <__btf_kind_str>
   12e08: e4 03 00 aa  	mov	x4, x0
   12e0c: e2 0a 40 f9  	ldr	x2, [x23, #16]
   12e10: 40 00 80 52  	mov	w0, #2
   12e14: e5 43 40 f9  	ldr	x5, [sp, #128]
   12e18: e1 4b 40 f9  	ldr	x1, [sp, #144]
   12e1c: 00 00 00 94  	bl	0x12e1c <bpf_object__load_xattr+0x1f98>
   12e20: 7a 93 40 b9  	ldr	w26, [x27, #144]
   12e24: 76 fe ff 17  	b	0x127fc <bpf_object__load_xattr+0x1978>
   12e28: 73 04 80 12  	mov	w19, #-36
   12e2c: fb 53 40 f9  	ldr	x27, [sp, #160]
   12e30: 04 fd ff 17  	b	0x12240 <bpf_object__load_xattr+0x13bc>
   12e34: e0 66 40 39  	ldrb	w0, [x23, #25]
   12e38: e0 d4 ff 35  	cbnz	w0, 0x128d4 <bpf_object__load_xattr+0x1a50>
   12e3c: e2 0a 40 f9  	ldr	x2, [x23, #16]
   12e40: 01 00 00 90  	adrp	x1, 0x12000 <bpf_object__load_xattr+0x1fbc>
   12e44: 00 00 80 52  	mov	w0, #0
   12e48: 21 00 00 91  	add	x1, x1, #0
   12e4c: b3 02 80 12  	mov	w19, #-22
   12e50: 00 00 00 94  	bl	0x12e50 <bpf_object__load_xattr+0x1fcc>
   12e54: f9 6b 45 a9  	ldp	x25, x26, [sp, #80]
   12e58: 6a f8 ff 17  	b	0x11000 <bpf_object__load_xattr+0x17c>
   12e5c: f3 03 00 2a  	mov	w19, w0
   12e60: 60 d3 40 f9  	ldr	x0, [x27, #416]
   12e64: 00 00 00 94  	bl	0x12e64 <bpf_object__load_xattr+0x1fe0>
   12e68: 7f d3 00 f9  	str	xzr, [x27, #416]
   12e6c: 73 56 ff 34  	cbz	w19, 0x11938 <bpf_object__load_xattr+0xab4>
   12e70: ee fd ff 17  	b	0x12628 <bpf_object__load_xattr+0x17a4>
   12e74: f3 03 13 4b  	neg	w19, w19
   12e78: 00 00 00 94  	bl	0x12e78 <bpf_object__load_xattr+0x1ff4>
   12e7c: 13 00 00 b9  	str	w19, [x0]
   12e80: 53 43 ff 34  	cbz	w19, 0x116e8 <bpf_object__load_xattr+0x864>
   12e84: f3 03 13 4b  	neg	w19, w19
   12e88: 01 00 00 90  	adrp	x1, 0x12000 <bpf_object__load_xattr+0x2004>
   12e8c: e2 03 13 2a  	mov	w2, w19
   12e90: 21 00 00 91  	add	x1, x1, #0
   12e94: 00 00 80 52  	mov	w0, #0
   12e98: 00 00 00 94  	bl	0x12e98 <bpf_object__load_xattr+0x2014>
   12e9c: e3 fd ff 17  	b	0x12628 <bpf_object__load_xattr+0x17a4>
   12ea0: 00 00 00 94  	bl	0x12ea0 <bpf_object__load_xattr+0x201c>
   12ea4: 13 00 40 b9  	ldr	w19, [x0]
   12ea8: f6 ff ff 17  	b	0x12e80 <bpf_object__load_xattr+0x1ffc>
   12eac: 00 01 80 d2  	mov	x0, #8
   12eb0: 8f fa ff 17  	b	0x118ec <bpf_object__load_xattr+0xa68>
   12eb4: a0 1a 40 f9  	ldr	x0, [x21, #48]
   12eb8: fb 03 1c aa  	mov	x27, x28
   12ebc: b3 02 80 12  	mov	w19, #-22
   12ec0: e0 3f 00 f9  	str	x0, [sp, #120]
   12ec4: fc 4b 40 f9  	ldr	x28, [sp, #144]
   12ec8: a4 fd ff 17  	b	0x12558 <bpf_object__load_xattr+0x16d4>
   12ecc: 02 2c 40 f9  	ldr	x2, [x0, #88]
   12ed0: 66 42 9b d2  	mov	x6, #55827
   12ed4: 66 09 ad f2  	movk	x6, #26699, lsl #16
   12ed8: fb 03 1c aa  	mov	x27, x28
   12edc: a2 02 02 cb  	sub	x2, x21, x2
   12ee0: e6 25 d4 f2  	movk	x6, #41263, lsl #32
   12ee4: a6 97 f0 f2  	movk	x6, #33981, lsl #48
   12ee8: 83 02 40 b9  	ldr	w3, [x20]
   12eec: 42 fc 43 93  	asr	x2, x2, #3
   12ef0: 00 00 80 52  	mov	w0, #0
   12ef4: fc 13 49 a9  	ldp	x28, x4, [sp, #144]
   12ef8: 63 7c 03 53  	lsr	w3, w3, #3
   12efc: 42 7c 06 9b  	mul	x2, x2, x6
   12f00: 01 00 00 90  	adrp	x1, 0x12000 <bpf_object__load_xattr+0x207c>
   12f04: 21 00 00 91  	add	x1, x1, #0
   12f08: d3 0b 80 12  	mov	w19, #-95
   12f0c: 00 00 00 94  	bl	0x12f0c <bpf_object__load_xattr+0x2088>
   12f10: a0 1a 40 f9  	ldr	x0, [x21, #48]
   12f14: e0 3f 00 f9  	str	x0, [sp, #120]
   12f18: 90 fd ff 17  	b	0x12558 <bpf_object__load_xattr+0x16d4>
   12f1c: 00 00 00 94  	bl	0x12f1c <bpf_object__load_xattr+0x2098>
   12f20: 01 00 40 b9  	ldr	w1, [x0]
   12f24: f3 03 01 4b  	neg	w19, w1
   12f28: e1 9f ff 34  	cbz	w1, 0x12324 <bpf_object__load_xattr+0x14a0>
   12f2c: f9 6b 45 a9  	ldp	x25, x26, [sp, #80]
   12f30: 34 f8 ff 17  	b	0x11000 <bpf_object__load_xattr+0x17c>
   12f34: f9 6b 45 a9  	ldp	x25, x26, [sp, #80]
   12f38: 34 f8 ff 17  	b	0x11008 <bpf_object__load_xattr+0x184>
   12f3c: e2 0a 40 f9  	ldr	x2, [x23, #16]
   12f40: 01 00 00 90  	adrp	x1, 0x12000 <bpf_object__load_xattr+0x20bc>
   12f44: 00 00 80 52  	mov	w0, #0
   12f48: 21 00 00 91  	add	x1, x1, #0
   12f4c: b3 02 80 12  	mov	w19, #-22
   12f50: 00 00 00 94  	bl	0x12f50 <bpf_object__load_xattr+0x20cc>
   12f54: f9 6b 45 a9  	ldp	x25, x26, [sp, #80]
   12f58: 2a f8 ff 17  	b	0x11000 <bpf_object__load_xattr+0x17c>
   12f5c: 01 00 00 90  	adrp	x1, 0x12000 <bpf_object__load_xattr+0x20d8>
   12f60: fb 03 1c aa  	mov	x27, x28
   12f64: 21 00 00 91  	add	x1, x1, #0
   12f68: b3 02 80 12  	mov	w19, #-22
   12f6c: 00 00 00 94  	bl	0x12f6c <bpf_object__load_xattr+0x20e8>
   12f70: f9 6b 45 a9  	ldp	x25, x26, [sp, #80]
   12f74: 23 f8 ff 17  	b	0x11000 <bpf_object__load_xattr+0x17c>
   12f78: 67 01 80 92  	mov	x7, #-12
   12f7c: e0 03 07 aa  	mov	x0, x7
   12f80: 80 fd ff 17  	b	0x12580 <bpf_object__load_xattr+0x16fc>
   12f84: f3 03 00 2a  	mov	w19, w0
   12f88: fb 03 1c aa  	mov	x27, x28
   12f8c: a0 1a 40 f9  	ldr	x0, [x21, #48]
   12f90: e0 3f 00 f9  	str	x0, [sp, #120]
   12f94: fc 4b 40 f9  	ldr	x28, [sp, #144]
   12f98: 70 fd ff 17  	b	0x12558 <bpf_object__load_xattr+0x16d4>
   12f9c: 33 00 80 52  	mov	w19, #1
   12fa0: d6 fc ff 17  	b	0x122f8 <bpf_object__load_xattr+0x1474>
   12fa4: 00 00 00 94  	bl	0x12fa4 <bpf_object__load_xattr+0x2120>
   12fa8: e1 03 14 4b  	neg	w1, w20
   12fac: 01 00 00 b9  	str	w1, [x0]
   12fb0: dd ff ff 17  	b	0x12f24 <bpf_object__load_xattr+0x20a0>
   12fb4: e2 03 1b aa  	mov	x2, x27
   12fb8: 01 00 00 90  	adrp	x1, 0x12000 <bpf_object__load_xattr+0x2134>
   12fbc: 21 00 00 91  	add	x1, x1, #0
   12fc0: 00 00 80 52  	mov	w0, #0
   12fc4: 00 00 00 94  	bl	0x12fc4 <bpf_object__load_xattr+0x2140>
   12fc8: b3 02 80 12  	mov	w19, #-22
   12fcc: 00 00 00 94  	bl	0x12fcc <bpf_object__load_xattr+0x2148>
   12fd0: c1 02 80 52  	mov	w1, #22
   12fd4: f7 63 44 a9  	ldp	x23, x24, [sp, #64]
   12fd8: fb 73 46 a9  	ldp	x27, x28, [sp, #96]
   12fdc: 01 00 00 b9  	str	w1, [x0]
   12fe0: 3b f8 ff 17  	b	0x110cc <bpf_object__load_xattr+0x248>
   12fe4: 00 00 00 94  	bl	0x12fe4 <bpf_object__load_xattr+0x2160>
   12fe8: b3 02 80 12  	mov	w19, #-22
   12fec: c1 02 80 52  	mov	w1, #22
   12ff0: fb 73 46 a9  	ldp	x27, x28, [sp, #96]
   12ff4: 01 00 00 b9  	str	w1, [x0]
   12ff8: 35 f8 ff 17  	b	0x110cc <bpf_object__load_xattr+0x248>
   12ffc: fb 03 1c aa  	mov	x27, x28
   13000: 19 0b 40 f9  	ldr	x25, [x24, #16]
   13004: f7 f7 ff 17  	b	0x10fe0 <bpf_object__load_xattr+0x15c>
   13008: f5 5b 03 a9  	stp	x21, x22, [sp, #48]
   1300c: f7 63 04 a9  	stp	x23, x24, [sp, #64]
   13010: f9 6b 05 a9  	stp	x25, x26, [sp, #80]
   13014: fb 73 06 a9  	stp	x27, x28, [sp, #96]
   13018: 00 00 00 94  	bl	0x13018 <bpf_object__load_xattr+0x2194>
   1301c: e0 03 16 2a  	mov	w0, w22
   13020: f6 03 18 2a  	mov	w22, w24
   13024: f8 03 00 2a  	mov	w24, w0
   13028: e1 03 16 2a  	mov	w1, w22
   1302c: 60 c3 40 f9  	ldr	x0, [x27, #384]
   13030: b3 02 80 12  	mov	w19, #-22
   13034: 00 00 00 94  	bl	0x13034 <bpf_object__load_xattr+0x21b0>
   13038: 01 00 40 b9  	ldr	w1, [x0]
   1303c: f4 03 00 aa  	mov	x20, x0
   13040: 60 c3 40 f9  	ldr	x0, [x27, #384]
   13044: 00 00 00 94  	bl	0x13044 <bpf_object__load_xattr+0x21c0>
   13048: f5 03 00 aa  	mov	x21, x0
   1304c: 41 03 40 b9  	ldr	w1, [x26]
   13050: e0 8f 40 f9  	ldr	x0, [sp, #280]
   13054: 00 00 00 94  	bl	0x13054 <bpf_object__load_xattr+0x21d0>
   13058: e2 03 00 aa  	mov	x2, x0
   1305c: 81 1e 40 39  	ldrb	w1, [x20, #7]
   13060: e5 03 15 aa  	mov	x5, x21
   13064: e6 03 18 2a  	mov	w6, w24
   13068: e3 03 16 2a  	mov	w3, w22
   1306c: 20 10 00 12  	and	w0, w1, #0x1f
   13070: e4 b3 ff 97  	bl	0x0 <__btf_kind_str>
   13074: e4 03 00 aa  	mov	x4, x0
   13078: 41 1f 40 39  	ldrb	w1, [x26, #7]
   1307c: 20 10 00 12  	and	w0, w1, #0x1f
   13080: e0 b3 ff 97  	bl	0x0 <__btf_kind_str>
   13084: e2 03 00 f9  	str	x2, [sp]
   13088: e7 03 00 aa  	mov	x7, x0
   1308c: 01 00 00 90  	adrp	x1, 0x13000 <bpf_object__load_xattr+0x2208>
   13090: e2 0a 40 f9  	ldr	x2, [x23, #16]
   13094: 21 00 00 91  	add	x1, x1, #0
   13098: 00 00 80 52  	mov	w0, #0
   1309c: 00 00 00 94  	bl	0x1309c <bpf_object__load_xattr+0x2218>
   130a0: f9 6b 45 a9  	ldp	x25, x26, [sp, #80]
   130a4: d7 f7 ff 17  	b	0x11000 <bpf_object__load_xattr+0x17c>
   130a8: 00 00 00 94  	bl	0x130a8 <bpf_object__load_xattr+0x2224>
   130ac: 13 00 40 b9  	ldr	w19, [x0]
   130b0: dd fa ff 17  	b	0x11c24 <bpf_object__load_xattr+0xda0>
   130b4: f5 03 19 aa  	mov	x21, x25
   130b8: e5 03 18 aa  	mov	x5, x24
   130bc: f9 03 1b aa  	mov	x25, x27
   130c0: f6 cf 40 b9  	ldr	w22, [sp, #204]
   130c4: fb c3 40 b9  	ldr	w27, [sp, #192]
   130c8: f4 5f 40 f9  	ldr	x20, [sp, #184]
   130cc: f8 5f 4d a9  	ldp	x24, x23, [sp, #208]
   130d0: f3 73 40 f9  	ldr	x19, [sp, #224]
   130d4: 0c fd ff 17  	b	0x12504 <bpf_object__load_xattr+0x1680>
   130d8: 00 00 00 94  	bl	0x130d8 <bpf_object__load_xattr+0x2254>
   130dc: b3 02 80 12  	mov	w19, #-22
   130e0: c1 02 80 52  	mov	w1, #22
   130e4: 01 00 00 b9  	str	w1, [x0]
   130e8: f9 f7 ff 17  	b	0x110cc <bpf_object__load_xattr+0x248>
   130ec: 36 00 80 52  	mov	w22, #1
   130f0: 96 fc ff 17  	b	0x12348 <bpf_object__load_xattr+0x14c4>
   130f4: e7 03 05 aa  	mov	x7, x5
   130f8: 23 fd ff 17  	b	0x12584 <bpf_object__load_xattr+0x1700>
   130fc: f8 03 1b aa  	mov	x24, x27
   13100: 01 00 00 90  	adrp	x1, 0x13000 <bpf_object__load_xattr+0x227c>
   13104: e2 03 18 aa  	mov	x2, x24
   13108: 21 00 00 91  	add	x1, x1, #0
   1310c: 00 00 80 52  	mov	w0, #0
   13110: fb 03 1c aa  	mov	x27, x28
   13114: 33 00 80 12  	mov	w19, #-2
   13118: 00 00 00 94  	bl	0x13118 <bpf_object__load_xattr+0x2294>
   1311c: 43 fd ff 17  	b	0x12628 <bpf_object__load_xattr+0x17a4>
   13120: 60 53 40 f9  	ldr	x0, [x27, #160]
   13124: 13 00 80 52  	mov	w19, #0
   13128: f9 6b 45 a9  	ldp	x25, x26, [sp, #80]
   1312c: e0 f6 fe b5  	cbnz	x0, 0x11008 <bpf_object__load_xattr+0x184>
   13130: c8 f7 ff 17  	b	0x11050 <bpf_object__load_xattr+0x1cc>
   13134: e4 03 1a 2a  	mov	w4, w26
   13138: e3 03 15 2a  	mov	w3, w21
   1313c: 01 00 00 90  	adrp	x1, 0x13000 <bpf_object__load_xattr+0x22b8>
   13140: 00 00 80 52  	mov	w0, #0
   13144: 21 00 00 91  	add	x1, x1, #0
   13148: b3 02 80 12  	mov	w19, #-22
   1314c: 00 00 00 94  	bl	0x1314c <bpf_object__load_xattr+0x22c8>
   13150: f9 6b 45 a9  	ldp	x25, x26, [sp, #80]
   13154: ab f7 ff 17  	b	0x11000 <bpf_object__load_xattr+0x17c>
   13158: e2 0a 40 f9  	ldr	x2, [x23, #16]
   1315c: 01 00 00 90  	adrp	x1, 0x13000 <bpf_object__load_xattr+0x22d8>
   13160: 00 00 80 52  	mov	w0, #0
   13164: 21 00 00 91  	add	x1, x1, #0
   13168: b3 02 80 12  	mov	w19, #-22
   1316c: 00 00 00 94  	bl	0x1316c <bpf_object__load_xattr+0x22e8>
   13170: f9 6b 45 a9  	ldp	x25, x26, [sp, #80]
   13174: a3 f7 ff 17  	b	0x11000 <bpf_object__load_xattr+0x17c>
   13178: 1f 20 03 d5  	nop
   1317c: 1f 20 03 d5  	nop

0000000000013180 <bpf_object__load>:
   13180: fd 7b bd a9  	stp	x29, x30, [sp, #-48]!
   13184: 01 00 00 90  	adrp	x1, 0x13000 <bpf_object__load+0x4>
   13188: e2 03 00 aa  	mov	x2, x0
   1318c: fd 03 00 91  	mov	x29, sp
   13190: 21 00 40 f9  	ldr	x1, [x1]
   13194: e0 43 00 91  	add	x0, sp, #16
   13198: 23 00 40 f9  	ldr	x3, [x1]
   1319c: e3 17 00 f9  	str	x3, [sp, #40]
   131a0: 03 00 80 d2  	mov	x3, #0
   131a4: e2 0b 00 f9  	str	x2, [sp, #16]
   131a8: ff ff 01 a9  	stp	xzr, xzr, [sp, #24]
   131ac: 00 00 00 94  	bl	0x131ac <bpf_object__load+0x2c>
   131b0: 01 00 00 90  	adrp	x1, 0x13000 <bpf_object__load+0x30>
   131b4: 21 00 40 f9  	ldr	x1, [x1]
   131b8: e3 17 40 f9  	ldr	x3, [sp, #40]
   131bc: 22 00 40 f9  	ldr	x2, [x1]
   131c0: 63 00 02 eb  	subs	x3, x3, x2
   131c4: 02 00 80 d2  	mov	x2, #0
   131c8: 61 00 00 54  	b.ne	0x131d4 <bpf_object__load+0x54>
   131cc: fd 7b c3 a8  	ldp	x29, x30, [sp], #48
   131d0: c0 03 5f d6  	ret
   131d4: 00 00 00 94  	bl	0x131d4 <bpf_object__load+0x54>
   131d8: 1f 20 03 d5  	nop
   131dc: 1f 20 03 d5  	nop

00000000000131e0 <bpf_prog_load_xattr>:
   131e0: fd 7b b9 a9  	stp	x29, x30, [sp, #-112]!
   131e4: 03 00 00 90  	adrp	x3, 0x13000 <bpf_prog_load_xattr+0x4>
   131e8: fd 03 00 91  	mov	x29, sp
   131ec: 63 00 40 f9  	ldr	x3, [x3]
   131f0: f3 53 01 a9  	stp	x19, x20, [sp, #16]
   131f4: f3 03 00 aa  	mov	x19, x0
   131f8: 60 00 40 f9  	ldr	x0, [x3]
   131fc: e0 37 00 f9  	str	x0, [sp, #104]
   13200: 00 00 80 d2  	mov	x0, #0
   13204: ff 7f 04 a9  	stp	xzr, xzr, [sp, #64]
   13208: d3 10 00 b4  	cbz	x19, 0x13420 <bpf_prog_load_xattr+0x240>
   1320c: f4 03 01 aa  	mov	x20, x1
   13210: 61 02 40 f9  	ldr	x1, [x19]
   13214: 61 10 00 b4  	cbz	x1, 0x13420 <bpf_prog_load_xattr+0x240>
   13218: f5 5b 02 a9  	stp	x21, x22, [sp, #32]
   1321c: f5 03 02 aa  	mov	x21, x2
   13220: 62 0a 40 b9  	ldr	w2, [x19, #8]
   13224: e0 03 01 91  	add	x0, sp, #64
   13228: f7 1b 00 f9  	str	x23, [sp, #48]
   1322c: e1 23 00 f9  	str	x1, [sp, #64]
   13230: e2 4b 00 b9  	str	w2, [sp, #72]
   13234: 3c e7 ff 97  	bl	0xcf24 <__bpf_object__open_xattr.constprop.0>
   13238: f7 03 00 aa  	mov	x23, x0
   1323c: 1f 04 40 b1  	cmn	x0, #1, lsl #12         // =4096
   13240: 48 0a 00 54  	b.hi	0x13388 <bpf_prog_load_xattr+0x1a8>
   13244: e0 0b 00 b4  	cbz	x0, 0x133c0 <bpf_prog_load_xattr+0x1e0>
   13248: e1 03 17 aa  	mov	x1, x23
   1324c: 00 00 80 d2  	mov	x0, #0
   13250: 00 00 00 94  	bl	0x13250 <bpf_prog_load_xattr+0x70>
   13254: c0 0c 00 b4  	cbz	x0, 0x133ec <bpf_prog_load_xattr+0x20c>
   13258: 16 00 80 d2  	mov	x22, #0
   1325c: 0e 00 00 14  	b	0x13294 <bpf_prog_load_xattr+0xb4>
   13260: 02 40 09 f8  	stur	x2, [x0, #148]
   13264: 64 1a 40 b9  	ldr	w4, [x19, #24]
   13268: df 02 00 f1  	cmp	x22, #0
   1326c: 03 d0 40 b9  	ldr	w3, [x0, #208]
   13270: d6 12 80 9a  	csel	x22, x22, x0, ne
   13274: 62 06 42 29  	ldp	w2, w1, [x19, #16]
   13278: 63 00 04 2a  	orr	w3, w3, w4
   1327c: 01 5c 00 b9  	str	w1, [x0, #92]
   13280: e1 03 17 aa  	mov	x1, x23
   13284: 02 9c 00 b9  	str	w2, [x0, #156]
   13288: 03 d0 00 b9  	str	w3, [x0, #208]
   1328c: 00 00 00 94  	bl	0x1328c <bpf_prog_load_xattr+0xac>
   13290: 80 03 00 b4  	cbz	x0, 0x13300 <bpf_prog_load_xattr+0x120>
   13294: 61 0a 40 b9  	ldr	w1, [x19, #8]
   13298: 62 06 40 f9  	ldr	x2, [x19, #8]
   1329c: 21 fe ff 35  	cbnz	w1, 0x13260 <bpf_prog_load_xattr+0x80>
   132a0: 01 94 40 b9  	ldr	w1, [x0, #148]
   132a4: 01 fe ff 35  	cbnz	w1, 0x13264 <bpf_prog_load_xattr+0x84>
   132a8: b7 00 00 b4  	cbz	x23, 0x132bc <bpf_prog_load_xattr+0xdc>
   132ac: ff 06 40 b1  	cmn	x23, #1, lsl #12        // =4096
   132b0: 68 00 00 54  	b.hi	0x132bc <bpf_prog_load_xattr+0xdc>
   132b4: e0 03 17 aa  	mov	x0, x23
   132b8: 12 ce ff 97  	bl	0x6b00 <bpf_object__close.part.0>
   132bc: 00 00 00 94  	bl	0x132bc <bpf_prog_load_xattr+0xdc>
   132c0: b3 02 80 12  	mov	w19, #-22
   132c4: c1 02 80 52  	mov	w1, #22
   132c8: f5 5b 42 a9  	ldp	x21, x22, [sp, #32]
   132cc: f7 1b 40 f9  	ldr	x23, [sp, #48]
   132d0: 01 00 00 b9  	str	w1, [x0]
   132d4: 01 00 00 90  	adrp	x1, 0x13000 <bpf_prog_load_xattr+0xf4>
   132d8: 21 00 40 f9  	ldr	x1, [x1]
   132dc: e0 37 40 f9  	ldr	x0, [sp, #104]
   132e0: 22 00 40 f9  	ldr	x2, [x1]
   132e4: 00 00 02 eb  	subs	x0, x0, x2
   132e8: 02 00 80 d2  	mov	x2, #0
   132ec: 41 0a 00 54  	b.ne	0x13434 <bpf_prog_load_xattr+0x254>
   132f0: e0 03 13 2a  	mov	w0, w19
   132f4: f3 53 41 a9  	ldp	x19, x20, [sp, #16]
   132f8: fd 7b c7 a8  	ldp	x29, x30, [sp], #112
   132fc: c0 03 5f d6  	ret
   13300: e0 36 40 f9  	ldr	x0, [x23, #104]
   13304: 60 01 00 b4  	cbz	x0, 0x13330 <bpf_prog_load_xattr+0x150>
   13308: 01 20 40 b9  	ldr	w1, [x0, #32]
   1330c: 3f 10 00 71  	cmp	w1, #4
   13310: 60 00 00 54  	b.eq	0x1331c <bpf_prog_load_xattr+0x13c>
   13314: 61 12 40 b9  	ldr	w1, [x19, #16]
   13318: 01 18 00 b9  	str	w1, [x0, #24]
   1331c: e1 03 17 aa  	mov	x1, x23
   13320: 22 00 80 52  	mov	w2, #1
   13324: 7b c1 ff 97  	bl	0x3910 <__bpf_map__iter>
   13328: 00 ff ff b5  	cbnz	x0, 0x13308 <bpf_prog_load_xattr+0x128>
   1332c: 76 06 00 b4  	cbz	x22, 0x133f8 <bpf_prog_load_xattr+0x218>
   13330: e0 43 01 91  	add	x0, sp, #80
   13334: f7 2b 00 f9  	str	x23, [sp, #80]
   13338: ff ff 05 a9  	stp	xzr, xzr, [sp, #88]
   1333c: 00 00 00 94  	bl	0x1333c <bpf_prog_load_xattr+0x15c>
   13340: f3 03 00 2a  	mov	w19, w0
   13344: 20 01 00 35  	cbnz	w0, 0x13368 <bpf_prog_load_xattr+0x188>
   13348: 97 02 00 f9  	str	x23, [x20]
   1334c: e0 03 16 aa  	mov	x0, x22
   13350: 01 00 80 52  	mov	w1, #0
   13354: 00 00 00 94  	bl	0x13354 <bpf_prog_load_xattr+0x174>
   13358: f7 1b 40 f9  	ldr	x23, [sp, #48]
   1335c: a0 02 00 b9  	str	w0, [x21]
   13360: f5 5b 42 a9  	ldp	x21, x22, [sp, #32]
   13364: dc ff ff 17  	b	0x132d4 <bpf_prog_load_xattr+0xf4>
   13368: ff 06 40 b1  	cmn	x23, #1, lsl #12        // =4096
   1336c: 68 00 00 54  	b.hi	0x13378 <bpf_prog_load_xattr+0x198>
   13370: e0 03 17 aa  	mov	x0, x23
   13374: e3 cd ff 97  	bl	0x6b00 <bpf_object__close.part.0>
   13378: f3 02 f8 37  	tbnz	w19, #31, 0x133d4 <bpf_prog_load_xattr+0x1f4>
   1337c: f5 5b 42 a9  	ldp	x21, x22, [sp, #32]
   13380: f7 1b 40 f9  	ldr	x23, [sp, #48]
   13384: d4 ff ff 17  	b	0x132d4 <bpf_prog_load_xattr+0xf4>
   13388: 00 00 00 94  	bl	0x13388 <bpf_prog_load_xattr+0x1a8>
   1338c: e1 03 17 4b  	neg	w1, w23
   13390: 02 00 00 90  	adrp	x2, 0x13000 <bpf_prog_load_xattr+0x1b0>
   13394: 01 00 00 b9  	str	w1, [x0]
   13398: 42 00 40 b9  	ldr	w2, [x2]
   1339c: 62 01 00 37  	tbnz	w2, #0, 0x133c8 <bpf_prog_load_xattr+0x1e8>
   133a0: 57 01 00 b4  	cbz	x23, 0x133c8 <bpf_prog_load_xattr+0x1e8>
   133a4: 21 f5 ff 34  	cbz	w1, 0x13248 <bpf_prog_load_xattr+0x68>
   133a8: 41 00 80 52  	mov	w1, #2
   133ac: 33 00 80 12  	mov	w19, #-2
   133b0: f5 5b 42 a9  	ldp	x21, x22, [sp, #32]
   133b4: f7 1b 40 f9  	ldr	x23, [sp, #48]
   133b8: 01 00 00 b9  	str	w1, [x0]
   133bc: c6 ff ff 17  	b	0x132d4 <bpf_prog_load_xattr+0xf4>
   133c0: 00 00 00 94  	bl	0x133c0 <bpf_prog_load_xattr+0x1e0>
   133c4: 01 00 40 b9  	ldr	w1, [x0]
   133c8: 17 00 80 d2  	mov	x23, #0
   133cc: e1 f3 ff 34  	cbz	w1, 0x13248 <bpf_prog_load_xattr+0x68>
   133d0: f6 ff ff 17  	b	0x133a8 <bpf_prog_load_xattr+0x1c8>
   133d4: 00 00 00 94  	bl	0x133d4 <bpf_prog_load_xattr+0x1f4>
   133d8: e1 03 13 4b  	neg	w1, w19
   133dc: f5 5b 42 a9  	ldp	x21, x22, [sp, #32]
   133e0: f7 1b 40 f9  	ldr	x23, [sp, #48]
   133e4: 01 00 00 b9  	str	w1, [x0]
   133e8: bb ff ff 17  	b	0x132d4 <bpf_prog_load_xattr+0xf4>
   133ec: e0 36 40 f9  	ldr	x0, [x23, #104]
   133f0: 16 00 80 d2  	mov	x22, #0
   133f4: a0 f8 ff b5  	cbnz	x0, 0x13308 <bpf_prog_load_xattr+0x128>
   133f8: 01 00 00 90  	adrp	x1, 0x13000 <bpf_prog_load_xattr+0x218>
   133fc: 00 00 80 52  	mov	w0, #0
   13400: 21 00 00 91  	add	x1, x1, #0
   13404: 00 00 00 94  	bl	0x13404 <bpf_prog_load_xattr+0x224>
   13408: ff 06 40 b1  	cmn	x23, #1, lsl #12        // =4096
   1340c: 68 00 00 54  	b.hi	0x13418 <bpf_prog_load_xattr+0x238>
   13410: e0 03 17 aa  	mov	x0, x23
   13414: bb cd ff 97  	bl	0x6b00 <bpf_object__close.part.0>
   13418: 00 00 00 94  	bl	0x13418 <bpf_prog_load_xattr+0x238>
   1341c: e3 ff ff 17  	b	0x133a8 <bpf_prog_load_xattr+0x1c8>
   13420: 00 00 00 94  	bl	0x13420 <bpf_prog_load_xattr+0x240>
   13424: b3 02 80 12  	mov	w19, #-22
   13428: c1 02 80 52  	mov	w1, #22
   1342c: 01 00 00 b9  	str	w1, [x0]
   13430: a9 ff ff 17  	b	0x132d4 <bpf_prog_load_xattr+0xf4>
   13434: f5 5b 02 a9  	stp	x21, x22, [sp, #32]
   13438: f7 1b 00 f9  	str	x23, [sp, #48]
   1343c: 00 00 00 94  	bl	0x1343c <bpf_prog_load_xattr+0x25c>

0000000000013440 <bpf_prog_load>:
   13440: fd 7b bc a9  	stp	x29, x30, [sp, #-64]!
   13444: 04 00 00 90  	adrp	x4, 0x13000 <bpf_prog_load+0x4>
   13448: e6 03 02 aa  	mov	x6, x2
   1344c: fd 03 00 91  	mov	x29, sp
   13450: 84 00 40 f9  	ldr	x4, [x4]
   13454: e2 03 03 aa  	mov	x2, x3
   13458: e5 03 00 aa  	mov	x5, x0
   1345c: e3 03 01 2a  	mov	w3, w1
   13460: 81 00 40 f9  	ldr	x1, [x4]
   13464: e1 1f 00 f9  	str	x1, [sp, #56]
   13468: 01 00 80 d2  	mov	x1, #0
   1346c: ff 7f 02 a9  	stp	xzr, xzr, [sp, #32]
   13470: e1 03 06 aa  	mov	x1, x6
   13474: e0 63 00 91  	add	x0, sp, #24
   13478: e5 0f 00 f9  	str	x5, [sp, #24]
   1347c: e3 23 00 b9  	str	w3, [sp, #32]
   13480: ff 1b 00 f9  	str	xzr, [sp, #48]
   13484: 00 00 00 94  	bl	0x13484 <bpf_prog_load+0x44>
   13488: 01 00 00 90  	adrp	x1, 0x13000 <bpf_prog_load+0x48>
   1348c: 21 00 40 f9  	ldr	x1, [x1]
   13490: e3 1f 40 f9  	ldr	x3, [sp, #56]
   13494: 22 00 40 f9  	ldr	x2, [x1]
   13498: 63 00 02 eb  	subs	x3, x3, x2
   1349c: 02 00 80 d2  	mov	x2, #0
   134a0: 61 00 00 54  	b.ne	0x134ac <bpf_prog_load+0x6c>
   134a4: fd 7b c4 a8  	ldp	x29, x30, [sp], #64
   134a8: c0 03 5f d6  	ret
   134ac: 00 00 00 94  	bl	0x134ac <bpf_prog_load+0x6c>

00000000000134b0 <__perf_buffer__new>:
   134b0: fd 7b ab a9  	stp	x29, x30, [sp, #-336]!
   134b4: 03 00 00 90  	adrp	x3, 0x13000 <__perf_buffer__new+0x4>
   134b8: fd 03 00 91  	mov	x29, sp
   134bc: 63 00 40 f9  	ldr	x3, [x3]
   134c0: f3 53 01 a9  	stp	x19, x20, [sp, #16]
   134c4: f3 03 01 aa  	mov	x19, x1
   134c8: f5 5b 02 a9  	stp	x21, x22, [sp, #32]
   134cc: 35 04 00 d1  	sub	x21, x1, #1
   134d0: b5 02 13 ea  	ands	x21, x21, x19
   134d4: 61 00 40 f9  	ldr	x1, [x3]
   134d8: e1 a7 00 f9  	str	x1, [sp, #328]
   134dc: 01 00 80 d2  	mov	x1, #0
   134e0: ff 3b 00 f9  	str	xzr, [sp, #112]
   134e4: c1 14 00 54  	b.ne	0x1377c <__perf_buffer__new+0x2cc>
   134e8: 00 04 00 4f  	movi	v0.4s, #0
   134ec: e1 e3 01 91  	add	x1, sp, #120
   134f0: 03 0a 80 52  	mov	w3, #80
   134f4: f7 63 03 a9  	stp	x23, x24, [sp, #48]
   134f8: f6 03 02 aa  	mov	x22, x2
   134fc: f7 03 00 2a  	mov	w23, w0
   13500: e2 93 01 91  	add	x2, sp, #100
   13504: 20 00 00 ad  	stp	q0, q0, [x1]
   13508: 20 00 01 ad  	stp	q0, q0, [x1, #32]
   1350c: 20 10 80 3d  	str	q0, [x1, #64]
   13510: e3 67 00 b9  	str	w3, [sp, #100]
   13514: 00 00 00 94  	bl	0x13514 <__perf_buffer__new+0x64>
   13518: e0 10 00 35  	cbnz	w0, 0x13734 <__perf_buffer__new+0x284>
   1351c: e1 7b 40 b9  	ldr	w1, [sp, #120]
   13520: 3f 10 00 71  	cmp	w1, #4
   13524: 41 1e 00 54  	b.ne	0x138ec <__perf_buffer__new+0x43c>
   13528: 01 0a 80 d2  	mov	x1, #80
   1352c: 20 00 80 d2  	mov	x0, #1
   13530: 00 00 00 94  	bl	0x13530 <__perf_buffer__new+0x80>
   13534: f4 03 00 aa  	mov	x20, x0
   13538: e0 27 00 b4  	cbz	x0, 0x13a34 <__perf_buffer__new+0x584>
   1353c: c0 06 40 f9  	ldr	x0, [x22, #8]
   13540: 80 02 00 f9  	str	x0, [x20]
   13544: c0 0a 40 f9  	ldr	x0, [x22, #16]
   13548: 80 06 00 f9  	str	x0, [x20, #8]
   1354c: c0 0e 40 f9  	ldr	x0, [x22, #24]
   13550: 80 0a 00 f9  	str	x0, [x20, #16]
   13554: c0 12 40 f9  	ldr	x0, [x22, #32]
   13558: 80 0e 00 f9  	str	x0, [x20, #24]
   1355c: 00 00 00 94  	bl	0x1355c <__perf_buffer__new+0xac>
   13560: 01 7c 40 93  	sxtw	x1, w0
   13564: 81 12 00 f9  	str	x1, [x20, #32]
   13568: 00 01 a0 52  	mov	w0, #524288
   1356c: 97 4a 00 b9  	str	w23, [x20, #72]
   13570: 21 7c 13 9b  	mul	x1, x1, x19
   13574: 81 16 00 f9  	str	x1, [x20, #40]
   13578: 00 00 00 94  	bl	0x13578 <__perf_buffer__new+0xc8>
   1357c: 80 46 00 b9  	str	w0, [x20, #68]
   13580: 00 1d f8 37  	tbnz	w0, #31, 0x13920 <__perf_buffer__new+0x470>
   13584: c0 2a 40 b9  	ldr	w0, [x22, #40]
   13588: 1f 00 00 71  	cmp	w0, #0
   1358c: 2d 16 00 54  	b.le	0x13850 <__perf_buffer__new+0x3a0>
   13590: 80 42 00 b9  	str	w0, [x20, #64]
   13594: 13 7c 40 93  	sxtw	x19, w0
   13598: 01 02 80 d2  	mov	x1, #16
   1359c: e0 03 13 aa  	mov	x0, x19
   135a0: 00 00 00 94  	bl	0x135a0 <__perf_buffer__new+0xf0>
   135a4: 80 1e 00 f9  	str	x0, [x20, #56]
   135a8: c0 24 00 b4  	cbz	x0, 0x13a40 <__perf_buffer__new+0x590>
   135ac: e0 03 13 aa  	mov	x0, x19
   135b0: 01 01 80 d2  	mov	x1, #8
   135b4: 00 00 00 94  	bl	0x135b4 <__perf_buffer__new+0x104>
   135b8: 80 1a 00 f9  	str	x0, [x20, #48]
   135bc: c0 24 00 b4  	cbz	x0, 0x13a54 <__perf_buffer__new+0x5a4>
   135c0: e2 a3 01 91  	add	x2, sp, #104
   135c4: e1 c3 01 91  	add	x1, sp, #112
   135c8: 00 00 00 90  	adrp	x0, 0x13000 <__perf_buffer__new+0x118>
   135cc: 00 00 00 91  	add	x0, x0, #0
   135d0: 00 00 00 94  	bl	0x135d0 <__perf_buffer__new+0x120>
   135d4: f7 03 00 2a  	mov	w23, w0
   135d8: 80 19 00 35  	cbnz	w0, 0x13908 <__perf_buffer__new+0x458>
   135dc: 81 42 40 b9  	ldr	w1, [x20, #64]
   135e0: 3f 00 00 71  	cmp	w1, #0
   135e4: 6d 1c 00 54  	b.le	0x13970 <__perf_buffer__new+0x4c0>
   135e8: f9 6b 04 a9  	stp	x25, x26, [sp, #64]
   135ec: 1a 00 00 90  	adrp	x26, 0x13000 <__perf_buffer__new+0x13c>
   135f0: 19 00 00 90  	adrp	x25, 0x13000 <__perf_buffer__new+0x140>
   135f4: 5a 03 00 91  	add	x26, x26, #0
   135f8: 39 03 00 91  	add	x25, x25, #0
   135fc: fb 73 05 a9  	stp	x27, x28, [sp, #80]
   13600: 40 00 00 14  	b	0x13700 <__perf_buffer__new+0x250>
   13604: c0 06 43 a9  	ldp	x0, x1, [x22, #48]
   13608: 3b 78 75 b8  	ldr	w27, [x1, x21, lsl #2]
   1360c: 18 78 75 b8  	ldr	w24, [x0, x21, lsl #2]
   13610: fb 6f 00 b9  	str	w27, [sp, #108]
   13614: 01 06 80 d2  	mov	x1, #48
   13618: 20 00 80 d2  	mov	x0, #1
   1361c: dc 02 40 f9  	ldr	x28, [x22]
   13620: 00 00 00 94  	bl	0x13620 <__perf_buffer__new+0x170>
   13624: f3 03 00 aa  	mov	x19, x0
   13628: a0 1f 00 b4  	cbz	x0, 0x13a1c <__perf_buffer__new+0x56c>
   1362c: 74 02 00 f9  	str	x20, [x19]
   13630: 04 00 80 12  	mov	w4, #-1
   13634: 78 ee 04 29  	stp	w24, w27, [x19, #36]
   13638: e1 03 1c aa  	mov	x1, x28
   1363c: e2 03 04 2a  	mov	w2, w4
   13640: e3 03 18 2a  	mov	w3, w24
   13644: 05 01 80 d2  	mov	x5, #8
   13648: 20 1e 80 d2  	mov	x0, #241
   1364c: 00 00 00 94  	bl	0x1364c <__perf_buffer__new+0x19c>
   13650: 60 22 00 b9  	str	w0, [x19, #32]
   13654: 80 0b f8 37  	tbnz	w0, #31, 0x137c4 <__perf_buffer__new+0x314>
   13658: 86 06 42 a9  	ldp	x6, x1, [x20, #32]
   1365c: e4 03 00 2a  	mov	w4, w0
   13660: 05 00 80 d2  	mov	x5, #0
   13664: 23 00 80 52  	mov	w3, #1
   13668: 62 00 80 52  	mov	w2, #3
   1366c: 00 00 80 d2  	mov	x0, #0
   13670: 21 00 06 8b  	add	x1, x1, x6
   13674: 00 00 00 94  	bl	0x13674 <__perf_buffer__new+0x1c4>
   13678: 60 06 00 f9  	str	x0, [x19, #8]
   1367c: 1f 04 00 b1  	cmn	x0, #1
   13680: 00 10 00 54  	b.eq	0x13880 <__perf_buffer__new+0x3d0>
   13684: 60 22 40 b9  	ldr	w0, [x19, #32]
   13688: 02 00 80 52  	mov	w2, #0
   1368c: 01 80 84 d2  	mov	x1, #9216
   13690: 00 00 00 94  	bl	0x13690 <__perf_buffer__new+0x1e0>
   13694: 20 11 f8 37  	tbnz	w0, #31, 0x138b8 <__perf_buffer__new+0x408>
   13698: 7f 06 40 b1  	cmn	x19, #1, lsl #12        // =4096
   1369c: a8 0b 00 54  	b.hi	0x13810 <__perf_buffer__new+0x360>
   136a0: 84 1a 40 f9  	ldr	x4, [x20, #48]
   136a4: fb 7e 40 93  	sxtw	x27, w23
   136a8: 80 4a 40 b9  	ldr	w0, [x20, #72]
   136ac: 62 82 00 91  	add	x2, x19, #32
   136b0: e1 b3 01 91  	add	x1, sp, #108
   136b4: 03 00 80 d2  	mov	x3, #0
   136b8: 93 78 3b f8  	str	x19, [x4, x27, lsl #3]
   136bc: 00 00 00 94  	bl	0x136bc <__perf_buffer__new+0x20c>
   136c0: 20 16 00 35  	cbnz	w0, 0x13984 <__perf_buffer__new+0x4d4>
   136c4: 84 1e 40 f9  	ldr	x4, [x20, #56]
   136c8: 7b ef 7c d3  	lsl	x27, x27, #4
   136cc: 62 22 40 b9  	ldr	w2, [x19, #32]
   136d0: 21 00 80 52  	mov	w1, #1
   136d4: 83 00 1b 8b  	add	x3, x4, x27
   136d8: 80 46 40 b9  	ldr	w0, [x20, #68]
   136dc: 81 68 3b b8  	str	w1, [x4, x27]
   136e0: 73 04 00 f9  	str	x19, [x3, #8]
   136e4: 00 00 00 94  	bl	0x136e4 <__perf_buffer__new+0x234>
   136e8: 60 17 f8 37  	tbnz	w0, #31, 0x139d4 <__perf_buffer__new+0x524>
   136ec: 81 42 40 b9  	ldr	w1, [x20, #64]
   136f0: f7 06 00 11  	add	w23, w23, #1
   136f4: b5 06 00 91  	add	x21, x21, #1
   136f8: 3f 00 15 6b  	cmp	w1, w21
   136fc: 6d 13 00 54  	b.le	0x13968 <__perf_buffer__new+0x4b8>
   13700: c0 2a 40 b9  	ldr	w0, [x22, #40]
   13704: f8 03 15 2a  	mov	w24, w21
   13708: 1f 00 00 71  	cmp	w0, #0
   1370c: cc f7 ff 54  	b.gt	0x13604 <__perf_buffer__new+0x154>
   13710: e0 6b 40 b9  	ldr	w0, [sp, #104]
   13714: f5 6f 00 b9  	str	w21, [sp, #108]
   13718: 1f 00 15 6b  	cmp	w0, w21
   1371c: cd fe ff 54  	b.le	0x136f4 <__perf_buffer__new+0x244>
   13720: e0 3b 40 f9  	ldr	x0, [sp, #112]
   13724: 00 68 75 38  	ldrb	w0, [x0, x21]
   13728: 60 fe ff 34  	cbz	w0, 0x136f4 <__perf_buffer__new+0x244>
   1372c: fb 03 15 2a  	mov	w27, w21
   13730: b9 ff ff 17  	b	0x13614 <__perf_buffer__new+0x164>
   13734: 00 00 00 94  	bl	0x13734 <__perf_buffer__new+0x284>
   13738: 14 00 40 b9  	ldr	w20, [x0]
   1373c: 9f 5a 00 71  	cmp	w20, #22
   13740: c0 07 00 54  	b.eq	0x13838 <__perf_buffer__new+0x388>
   13744: f4 03 14 4b  	neg	w20, w20
   13748: e1 23 03 91  	add	x1, sp, #200
   1374c: e0 03 14 2a  	mov	w0, w20
   13750: 02 10 80 52  	mov	w2, #128
   13754: 00 00 00 94  	bl	0x13754 <__perf_buffer__new+0x2a4>
   13758: 94 7e 40 93  	sxtw	x20, w20
   1375c: e3 03 00 aa  	mov	x3, x0
   13760: e2 03 17 2a  	mov	w2, w23
   13764: 01 00 00 90  	adrp	x1, 0x13000 <__perf_buffer__new+0x2b4>
   13768: 00 00 80 52  	mov	w0, #0
   1376c: 21 00 00 91  	add	x1, x1, #0
   13770: 00 00 00 94  	bl	0x13770 <__perf_buffer__new+0x2c0>
   13774: f7 63 43 a9  	ldp	x23, x24, [sp, #48]
   13778: 07 00 00 14  	b	0x13794 <__perf_buffer__new+0x2e4>
   1377c: 01 00 00 90  	adrp	x1, 0x13000 <__perf_buffer__new+0x2cc>
   13780: e2 03 13 aa  	mov	x2, x19
   13784: 21 00 00 91  	add	x1, x1, #0
   13788: 00 00 80 52  	mov	w0, #0
   1378c: b4 02 80 92  	mov	x20, #-22
   13790: 00 00 00 94  	bl	0x13790 <__perf_buffer__new+0x2e0>
   13794: 00 00 00 90  	adrp	x0, 0x13000 <__perf_buffer__new+0x2e4>
   13798: 00 00 40 f9  	ldr	x0, [x0]
   1379c: e2 a7 40 f9  	ldr	x2, [sp, #328]
   137a0: 01 00 40 f9  	ldr	x1, [x0]
   137a4: 42 00 01 eb  	subs	x2, x2, x1
   137a8: 01 00 80 d2  	mov	x1, #0
   137ac: c1 13 00 54  	b.ne	0x13a24 <__perf_buffer__new+0x574>
   137b0: e0 03 14 aa  	mov	x0, x20
   137b4: f3 53 41 a9  	ldp	x19, x20, [sp, #16]
   137b8: f5 5b 42 a9  	ldp	x21, x22, [sp, #32]
   137bc: fd 7b d5 a8  	ldp	x29, x30, [sp], #336
   137c0: c0 03 5f d6  	ret
   137c4: 00 00 00 94  	bl	0x137c4 <__perf_buffer__new+0x314>
   137c8: 1b 00 40 b9  	ldr	w27, [x0]
   137cc: e1 23 03 91  	add	x1, sp, #200
   137d0: 02 10 80 52  	mov	w2, #128
   137d4: fb 03 1b 4b  	neg	w27, w27
   137d8: e0 03 1b 2a  	mov	w0, w27
   137dc: 00 00 00 94  	bl	0x137dc <__perf_buffer__new+0x32c>
   137e0: 01 00 00 90  	adrp	x1, 0x13000 <__perf_buffer__new+0x330>
   137e4: e3 03 00 aa  	mov	x3, x0
   137e8: 21 00 00 91  	add	x1, x1, #0
   137ec: e2 03 18 2a  	mov	w2, w24
   137f0: 00 00 80 52  	mov	w0, #0
   137f4: 00 00 00 94  	bl	0x137f4 <__perf_buffer__new+0x344>
   137f8: e1 03 13 aa  	mov	x1, x19
   137fc: e0 03 14 aa  	mov	x0, x20
   13800: 73 7f 40 93  	sxtw	x19, w27
   13804: 87 c1 ff 97  	bl	0x3e20 <perf_buffer__free_cpu_buf>
   13808: 7f 06 40 b1  	cmn	x19, #1, lsl #12        // =4096
   1380c: a9 f4 ff 54  	b.ls	0x136a0 <__perf_buffer__new+0x1f0>
   13810: f9 6b 44 a9  	ldp	x25, x26, [sp, #64]
   13814: f7 03 13 2a  	mov	w23, w19
   13818: fb 73 45 a9  	ldp	x27, x28, [sp, #80]
   1381c: e0 3b 40 f9  	ldr	x0, [sp, #112]
   13820: 00 00 00 94  	bl	0x13820 <__perf_buffer__new+0x370>
   13824: e0 03 14 aa  	mov	x0, x20
   13828: f4 7e 40 93  	sxtw	x20, w23
   1382c: 00 00 00 94  	bl	0x1382c <__perf_buffer__new+0x37c>
   13830: f7 63 43 a9  	ldp	x23, x24, [sp, #48]
   13834: d8 ff ff 17  	b	0x13794 <__perf_buffer__new+0x2e4>
   13838: e2 03 17 2a  	mov	w2, w23
   1383c: 01 00 00 90  	adrp	x1, 0x13000 <__perf_buffer__new+0x38c>
   13840: 40 00 80 52  	mov	w0, #2
   13844: 21 00 00 91  	add	x1, x1, #0
   13848: 00 00 00 94  	bl	0x13848 <__perf_buffer__new+0x398>
   1384c: 37 ff ff 17  	b	0x13528 <__perf_buffer__new+0x78>
   13850: 00 00 00 90  	adrp	x0, 0x13000 <__perf_buffer__new+0x3a0>
   13854: 00 00 00 91  	add	x0, x0, #0
   13858: 17 04 40 b9  	ldr	w23, [x0, #4]
   1385c: ff 02 00 71  	cmp	w23, #0
   13860: ad 07 00 54  	b.le	0x13954 <__perf_buffer__new+0x4a4>
   13864: 97 42 00 b9  	str	w23, [x20, #64]
   13868: e0 8b 40 b9  	ldr	w0, [sp, #136]
   1386c: 60 00 00 34  	cbz	w0, 0x13878 <__perf_buffer__new+0x3c8>
   13870: 1f 00 17 6b  	cmp	w0, w23
   13874: e3 e8 ff 54  	b.lo	0x13590 <__perf_buffer__new+0xe0>
   13878: 80 42 40 b9  	ldr	w0, [x20, #64]
   1387c: 46 ff ff 17  	b	0x13594 <__perf_buffer__new+0xe4>
   13880: 7f 06 00 f9  	str	xzr, [x19, #8]
   13884: 00 00 00 94  	bl	0x13884 <__perf_buffer__new+0x3d4>
   13888: 1b 00 40 b9  	ldr	w27, [x0]
   1388c: e1 23 03 91  	add	x1, sp, #200
   13890: 02 10 80 52  	mov	w2, #128
   13894: fb 03 1b 4b  	neg	w27, w27
   13898: e0 03 1b 2a  	mov	w0, w27
   1389c: 00 00 00 94  	bl	0x1389c <__perf_buffer__new+0x3ec>
   138a0: e2 03 18 2a  	mov	w2, w24
   138a4: e3 03 00 aa  	mov	x3, x0
   138a8: e1 03 19 aa  	mov	x1, x25
   138ac: 00 00 80 52  	mov	w0, #0
   138b0: 00 00 00 94  	bl	0x138b0 <__perf_buffer__new+0x400>
   138b4: d1 ff ff 17  	b	0x137f8 <__perf_buffer__new+0x348>
   138b8: 00 00 00 94  	bl	0x138b8 <__perf_buffer__new+0x408>
   138bc: 1b 00 40 b9  	ldr	w27, [x0]
   138c0: e1 23 03 91  	add	x1, sp, #200
   138c4: 02 10 80 52  	mov	w2, #128
   138c8: fb 03 1b 4b  	neg	w27, w27
   138cc: e0 03 1b 2a  	mov	w0, w27
   138d0: 00 00 00 94  	bl	0x138d0 <__perf_buffer__new+0x420>
   138d4: e2 03 18 2a  	mov	w2, w24
   138d8: e3 03 00 aa  	mov	x3, x0
   138dc: e1 03 1a aa  	mov	x1, x26
   138e0: 00 00 80 52  	mov	w0, #0
   138e4: 00 00 00 94  	bl	0x138e4 <__perf_buffer__new+0x434>
   138e8: c4 ff ff 17  	b	0x137f8 <__perf_buffer__new+0x348>
   138ec: e2 43 02 91  	add	x2, sp, #144
   138f0: 01 00 00 90  	adrp	x1, 0x13000 <__perf_buffer__new+0x440>
   138f4: b4 02 80 92  	mov	x20, #-22
   138f8: 21 00 00 91  	add	x1, x1, #0
   138fc: 00 00 00 94  	bl	0x138fc <__perf_buffer__new+0x44c>
   13900: f7 63 43 a9  	ldp	x23, x24, [sp, #48]
   13904: a4 ff ff 17  	b	0x13794 <__perf_buffer__new+0x2e4>
   13908: e2 03 00 2a  	mov	w2, w0
   1390c: 01 00 00 90  	adrp	x1, 0x13000 <__perf_buffer__new+0x45c>
   13910: 00 00 80 52  	mov	w0, #0
   13914: 21 00 00 91  	add	x1, x1, #0
   13918: 00 00 00 94  	bl	0x13918 <__perf_buffer__new+0x468>
   1391c: c0 ff ff 17  	b	0x1381c <__perf_buffer__new+0x36c>
   13920: 00 00 00 94  	bl	0x13920 <__perf_buffer__new+0x470>
   13924: 17 00 40 b9  	ldr	w23, [x0]
   13928: e1 23 03 91  	add	x1, sp, #200
   1392c: 02 10 80 52  	mov	w2, #128
   13930: f7 03 17 4b  	neg	w23, w23
   13934: e0 03 17 2a  	mov	w0, w23
   13938: 00 00 00 94  	bl	0x13938 <__perf_buffer__new+0x488>
   1393c: 01 00 00 90  	adrp	x1, 0x13000 <__perf_buffer__new+0x48c>
   13940: e2 03 00 aa  	mov	x2, x0
   13944: 21 00 00 91  	add	x1, x1, #0
   13948: 00 00 80 52  	mov	w0, #0
   1394c: 00 00 00 94  	bl	0x1394c <__perf_buffer__new+0x49c>
   13950: b3 ff ff 17  	b	0x1381c <__perf_buffer__new+0x36c>
   13954: 93 f2 ff 97  	bl	0x103a0 <libbpf_num_possible_cpus.part.0>
   13958: 80 42 00 b9  	str	w0, [x20, #64]
   1395c: f7 03 00 2a  	mov	w23, w0
   13960: e0 f5 ff 37  	tbnz	w0, #31, 0x1381c <__perf_buffer__new+0x36c>
   13964: c1 ff ff 17  	b	0x13868 <__perf_buffer__new+0x3b8>
   13968: f9 6b 44 a9  	ldp	x25, x26, [sp, #64]
   1396c: fb 73 45 a9  	ldp	x27, x28, [sp, #80]
   13970: 97 42 00 b9  	str	w23, [x20, #64]
   13974: e0 3b 40 f9  	ldr	x0, [sp, #112]
   13978: 00 00 00 94  	bl	0x13978 <__perf_buffer__new+0x4c8>
   1397c: f7 63 43 a9  	ldp	x23, x24, [sp, #48]
   13980: 85 ff ff 17  	b	0x13794 <__perf_buffer__new+0x2e4>
   13984: 00 00 00 94  	bl	0x13984 <__perf_buffer__new+0x4d4>
   13988: 17 00 40 b9  	ldr	w23, [x0]
   1398c: 73 22 40 b9  	ldr	w19, [x19, #32]
   13990: e1 23 03 91  	add	x1, sp, #200
   13994: f5 6f 40 b9  	ldr	w21, [sp, #108]
   13998: f7 03 17 4b  	neg	w23, w23
   1399c: 02 10 80 52  	mov	w2, #128
   139a0: e0 03 17 2a  	mov	w0, w23
   139a4: 00 00 00 94  	bl	0x139a4 <__perf_buffer__new+0x4f4>
   139a8: e5 03 00 aa  	mov	x5, x0
   139ac: e4 03 13 2a  	mov	w4, w19
   139b0: e3 03 15 2a  	mov	w3, w21
   139b4: e2 03 18 2a  	mov	w2, w24
   139b8: 01 00 00 90  	adrp	x1, 0x13000 <__perf_buffer__new+0x508>
   139bc: 00 00 80 52  	mov	w0, #0
   139c0: 21 00 00 91  	add	x1, x1, #0
   139c4: 00 00 00 94  	bl	0x139c4 <__perf_buffer__new+0x514>
   139c8: f9 6b 44 a9  	ldp	x25, x26, [sp, #64]
   139cc: fb 73 45 a9  	ldp	x27, x28, [sp, #80]
   139d0: 93 ff ff 17  	b	0x1381c <__perf_buffer__new+0x36c>
   139d4: 00 00 00 94  	bl	0x139d4 <__perf_buffer__new+0x524>
   139d8: 17 00 40 b9  	ldr	w23, [x0]
   139dc: 73 22 40 b9  	ldr	w19, [x19, #32]
   139e0: e1 23 03 91  	add	x1, sp, #200
   139e4: f7 03 17 4b  	neg	w23, w23
   139e8: 02 10 80 52  	mov	w2, #128
   139ec: e0 03 17 2a  	mov	w0, w23
   139f0: 00 00 00 94  	bl	0x139f0 <__perf_buffer__new+0x540>
   139f4: e3 03 13 2a  	mov	w3, w19
   139f8: e4 03 00 aa  	mov	x4, x0
   139fc: e2 03 18 2a  	mov	w2, w24
   13a00: 01 00 00 90  	adrp	x1, 0x13000 <__perf_buffer__new+0x550>
   13a04: 00 00 80 52  	mov	w0, #0
   13a08: 21 00 00 91  	add	x1, x1, #0
   13a0c: 00 00 00 94  	bl	0x13a0c <__perf_buffer__new+0x55c>
   13a10: f9 6b 44 a9  	ldp	x25, x26, [sp, #64]
   13a14: fb 73 45 a9  	ldp	x27, x28, [sp, #80]
   13a18: 81 ff ff 17  	b	0x1381c <__perf_buffer__new+0x36c>
   13a1c: 73 01 80 92  	mov	x19, #-12
   13a20: 7c ff ff 17  	b	0x13810 <__perf_buffer__new+0x360>
   13a24: f7 63 03 a9  	stp	x23, x24, [sp, #48]
   13a28: f9 6b 04 a9  	stp	x25, x26, [sp, #64]
   13a2c: fb 73 05 a9  	stp	x27, x28, [sp, #80]
   13a30: 00 00 00 94  	bl	0x13a30 <__perf_buffer__new+0x580>
   13a34: 74 01 80 92  	mov	x20, #-12
   13a38: f7 63 43 a9  	ldp	x23, x24, [sp, #48]
   13a3c: 56 ff ff 17  	b	0x13794 <__perf_buffer__new+0x2e4>
   13a40: 01 00 00 90  	adrp	x1, 0x13000 <__perf_buffer__new+0x590>
   13a44: 77 01 80 12  	mov	w23, #-12
   13a48: 21 00 00 91  	add	x1, x1, #0
   13a4c: 00 00 00 94  	bl	0x13a4c <__perf_buffer__new+0x59c>
   13a50: 73 ff ff 17  	b	0x1381c <__perf_buffer__new+0x36c>
   13a54: 01 00 00 90  	adrp	x1, 0x13000 <__perf_buffer__new+0x5a4>
   13a58: 77 01 80 12  	mov	w23, #-12
   13a5c: 21 00 00 91  	add	x1, x1, #0
   13a60: 00 00 00 94  	bl	0x13a60 <__perf_buffer__new+0x5b0>
   13a64: 6e ff ff 17  	b	0x1381c <__perf_buffer__new+0x36c>
   13a68: 1f 20 03 d5  	nop
   13a6c: 1f 20 03 d5  	nop

0000000000013a70 <perf_buffer__new>:
   13a70: fd 7b b1 a9  	stp	x29, x30, [sp, #-240]!
   13a74: 04 00 00 90  	adrp	x4, 0x13000 <perf_buffer__new+0x4>
   13a78: 48 01 80 d2  	mov	x8, #10
   13a7c: 00 04 00 4f  	movi	v0.4s, #0
   13a80: e3 a3 01 91  	add	x3, sp, #104
   13a84: fd 03 00 91  	mov	x29, sp
   13a88: 84 00 40 f9  	ldr	x4, [x4]
   13a8c: e5 c3 00 91  	add	x5, sp, #48
   13a90: f3 0b 00 f9  	str	x19, [sp, #16]
   13a94: 29 00 80 52  	mov	w9, #1
   13a98: 07 80 80 d2  	mov	x7, #1024
   13a9c: 86 00 40 f9  	ldr	x6, [x4]
   13aa0: e6 77 00 f9  	str	x6, [sp, #232]
   13aa4: 06 00 80 d2  	mov	x6, #0
   13aa8: 60 00 00 ad  	stp	q0, q0, [x3]
   13aac: 26 00 80 d2  	mov	x6, #1
   13ab0: 60 00 01 ad  	stp	q0, q0, [x3, #32]
   13ab4: e4 03 02 aa  	mov	x4, x2
   13ab8: e3 17 00 f9  	str	x3, [sp, #40]
   13abc: bf 18 00 f9  	str	xzr, [x5, #48]
   13ac0: e9 6b 00 b9  	str	w9, [sp, #104]
   13ac4: e8 1b 07 a9  	stp	x8, x6, [sp, #112]
   13ac8: e7 43 00 f9  	str	x7, [sp, #128]
   13acc: e6 9b 00 b9  	str	w6, [sp, #152]
   13ad0: a0 00 00 ad  	stp	q0, q0, [x5]
   13ad4: a0 08 80 3d  	str	q0, [x5, #32]
   13ad8: 60 00 02 ad  	stp	q0, q0, [x3, #64]
   13adc: 60 00 03 ad  	stp	q0, q0, [x3, #96]
   13ae0: a2 00 00 b4  	cbz	x2, 0x13af4 <perf_buffer__new+0x84>
   13ae4: 42 00 40 f9  	ldr	x2, [x2]
   13ae8: e2 1f 00 f9  	str	x2, [sp, #56]
   13aec: 82 90 40 a9  	ldp	x2, x4, [x4, #8]
   13af0: e2 23 00 f9  	str	x2, [sp, #64]
   13af4: e2 a3 00 91  	add	x2, sp, #40
   13af8: e4 27 00 f9  	str	x4, [sp, #72]
   13afc: 6d fe ff 97  	bl	0x134b0 <__perf_buffer__new>
   13b00: f3 03 00 aa  	mov	x19, x0
   13b04: 1f 04 40 b1  	cmn	x0, #1, lsl #12         // =4096
   13b08: 88 01 00 54  	b.hi	0x13b38 <perf_buffer__new+0xc8>
   13b0c: 00 00 00 90  	adrp	x0, 0x13000 <perf_buffer__new+0x9c>
   13b10: 00 00 40 f9  	ldr	x0, [x0]
   13b14: e2 77 40 f9  	ldr	x2, [sp, #232]
   13b18: 01 00 40 f9  	ldr	x1, [x0]
   13b1c: 42 00 01 eb  	subs	x2, x2, x1
   13b20: 01 00 80 d2  	mov	x1, #0
   13b24: a1 01 00 54  	b.ne	0x13b58 <perf_buffer__new+0xe8>
   13b28: e0 03 13 aa  	mov	x0, x19
   13b2c: f3 0b 40 f9  	ldr	x19, [sp, #16]
   13b30: fd 7b cf a8  	ldp	x29, x30, [sp], #240
   13b34: c0 03 5f d6  	ret
   13b38: 00 00 00 94  	bl	0x13b38 <perf_buffer__new+0xc8>
   13b3c: e2 03 13 4b  	neg	w2, w19
   13b40: 01 00 00 90  	adrp	x1, 0x13000 <perf_buffer__new+0xd0>
   13b44: 02 00 00 b9  	str	w2, [x0]
   13b48: 20 00 40 b9  	ldr	w0, [x1]
   13b4c: 1f 00 40 f2  	tst	x0, #0x1
   13b50: 73 02 9f 9a  	csel	x19, x19, xzr, eq
   13b54: ee ff ff 17  	b	0x13b0c <perf_buffer__new+0x9c>
   13b58: 00 00 00 94  	bl	0x13b58 <perf_buffer__new+0xe8>
   13b5c: 1f 20 03 d5  	nop

0000000000013b60 <perf_buffer__new_raw>:
   13b60: fd 7b b9 a9  	stp	x29, x30, [sp, #-112]!
   13b64: e3 03 02 aa  	mov	x3, x2
   13b68: 04 00 00 90  	adrp	x4, 0x13000 <perf_buffer__new_raw+0x8>
   13b6c: fd 03 00 91  	mov	x29, sp
   13b70: 84 00 40 f9  	ldr	x4, [x4]
   13b74: e2 a3 00 91  	add	x2, sp, #40
   13b78: 66 00 40 f9  	ldr	x6, [x3]
   13b7c: f3 0b 00 f9  	str	x19, [sp, #16]
   13b80: 85 00 40 f9  	ldr	x5, [x4]
   13b84: e5 37 00 f9  	str	x5, [sp, #104]
   13b88: 05 00 80 d2  	mov	x5, #0
   13b8c: ff ff 04 a9  	stp	xzr, xzr, [sp, #72]
   13b90: 65 18 40 b9  	ldr	w5, [x3, #24]
   13b94: 64 04 40 f9  	ldr	x4, [x3, #8]
   13b98: e6 93 02 a9  	stp	x6, x4, [sp, #40]
   13b9c: 66 08 40 f9  	ldr	x6, [x3, #16]
   13ba0: ff ff 03 a9  	stp	xzr, xzr, [sp, #56]
   13ba4: 64 0c 42 a9  	ldp	x4, x3, [x3, #32]
   13ba8: e6 27 00 f9  	str	x6, [sp, #72]
   13bac: e5 53 00 b9  	str	w5, [sp, #80]
   13bb0: e4 8f 05 a9  	stp	x4, x3, [sp, #88]
   13bb4: 3f fe ff 97  	bl	0x134b0 <__perf_buffer__new>
   13bb8: f3 03 00 aa  	mov	x19, x0
   13bbc: 1f 04 40 b1  	cmn	x0, #1, lsl #12         // =4096
   13bc0: 88 01 00 54  	b.hi	0x13bf0 <perf_buffer__new_raw+0x90>
   13bc4: 00 00 00 90  	adrp	x0, 0x13000 <perf_buffer__new_raw+0x64>
   13bc8: 00 00 40 f9  	ldr	x0, [x0]
   13bcc: e2 37 40 f9  	ldr	x2, [sp, #104]
   13bd0: 01 00 40 f9  	ldr	x1, [x0]
   13bd4: 42 00 01 eb  	subs	x2, x2, x1
   13bd8: 01 00 80 d2  	mov	x1, #0
   13bdc: a1 01 00 54  	b.ne	0x13c10 <perf_buffer__new_raw+0xb0>
   13be0: e0 03 13 aa  	mov	x0, x19
   13be4: f3 0b 40 f9  	ldr	x19, [sp, #16]
   13be8: fd 7b c7 a8  	ldp	x29, x30, [sp], #112
   13bec: c0 03 5f d6  	ret
   13bf0: 00 00 00 94  	bl	0x13bf0 <perf_buffer__new_raw+0x90>
   13bf4: e2 03 13 4b  	neg	w2, w19
   13bf8: 01 00 00 90  	adrp	x1, 0x13000 <perf_buffer__new_raw+0x98>
   13bfc: 02 00 00 b9  	str	w2, [x0]
   13c00: 20 00 40 b9  	ldr	w0, [x1]
   13c04: 1f 00 40 f2  	tst	x0, #0x1
   13c08: 73 02 9f 9a  	csel	x19, x19, xzr, eq
   13c0c: ee ff ff 17  	b	0x13bc4 <perf_buffer__new_raw+0x64>
   13c10: 00 00 00 94  	bl	0x13c10 <perf_buffer__new_raw+0xb0>

0000000000013c14 <libbpf_num_possible_cpus>:
   13c14: 00 00 00 90  	adrp	x0, 0x13000 <libbpf_num_possible_cpus>
   13c18: 00 00 00 91  	add	x0, x0, #0
   13c1c: 00 04 40 b9  	ldr	w0, [x0, #4]
   13c20: 1f 00 00 71  	cmp	w0, #0
   13c24: 4d 00 00 54  	b.le	0x13c2c <libbpf_num_possible_cpus+0x18>
   13c28: c0 03 5f d6  	ret
   13c2c: dd f1 ff 17  	b	0x103a0 <libbpf_num_possible_cpus.part.0>

0000000000013c30 <bpf_object__open_skeleton>:
   13c30: fd 7b b3 a9  	stp	x29, x30, [sp, #-208]!
   13c34: 02 00 00 90  	adrp	x2, 0x13000 <bpf_object__open_skeleton+0x4>
   13c38: 03 07 80 d2  	mov	x3, #56
   13c3c: fd 03 00 91  	mov	x29, sp
   13c40: 42 00 40 f9  	ldr	x2, [x2]
   13c44: f3 53 01 a9  	stp	x19, x20, [sp, #16]
   13c48: f3 03 00 aa  	mov	x19, x0
   13c4c: f5 5b 02 a9  	stp	x21, x22, [sp, #32]
   13c50: f7 63 03 a9  	stp	x23, x24, [sp, #48]
   13c54: 44 00 40 f9  	ldr	x4, [x2]
   13c58: e4 67 00 f9  	str	x4, [sp, #200]
   13c5c: 04 00 80 d2  	mov	x4, #0
   13c60: ff 7f 0a a9  	stp	xzr, xzr, [sp, #160]
   13c64: 00 04 40 f9  	ldr	x0, [x0, #8]
   13c68: e3 03 09 a9  	stp	x3, x0, [sp, #144]
   13c6c: ff 7f 0b a9  	stp	xzr, xzr, [sp, #176]
   13c70: ff 63 00 f9  	str	xzr, [sp, #192]
   13c74: 61 08 00 b4  	cbz	x1, 0x13d80 <bpf_object__open_skeleton+0x150>
   13c78: e2 63 01 91  	add	x2, sp, #88
   13c7c: 21 08 40 ad  	ldp	q1, q2, [x1]
   13c80: 20 08 c0 3d  	ldr	q0, [x1, #32]
   13c84: 23 04 40 f9  	ldr	x3, [x1, #8]
   13c88: 41 08 00 ad  	stp	q1, q2, [x2]
   13c8c: 21 18 40 f9  	ldr	x1, [x1, #48]
   13c90: 41 18 00 f9  	str	x1, [x2, #48]
   13c94: 40 08 80 3d  	str	q0, [x2, #32]
   13c98: a3 0e 00 b4  	cbz	x3, 0x13e6c <bpf_object__open_skeleton+0x23c>
   13c9c: 60 06 41 a9  	ldp	x0, x1, [x19, #16]
   13ca0: 00 00 00 94  	bl	0x13ca0 <bpf_object__open_skeleton+0x70>
   13ca4: f6 03 00 aa  	mov	x22, x0
   13ca8: 40 08 00 b4  	cbz	x0, 0x13db0 <bpf_object__open_skeleton+0x180>
   13cac: 1f 04 40 b1  	cmn	x0, #1, lsl #12         // =4096
   13cb0: 28 0e 00 54  	b.hi	0x13e74 <bpf_object__open_skeleton+0x244>
   13cb4: 61 12 40 f9  	ldr	x1, [x19, #32]
   13cb8: 14 00 80 d2  	mov	x20, #0
   13cbc: 60 2a 40 b9  	ldr	w0, [x19, #40]
   13cc0: 15 00 80 52  	mov	w21, #0
   13cc4: 36 00 00 f9  	str	x22, [x1]
   13cc8: 1f 00 00 71  	cmp	w0, #0
   13ccc: 2d 09 00 54  	b.le	0x13df0 <bpf_object__open_skeleton+0x1c0>
   13cd0: f9 23 00 f9  	str	x25, [sp, #64]
   13cd4: 0c 00 00 14  	b	0x13d04 <bpf_object__open_skeleton+0xd4>
   13cd8: d7 00 00 b4  	cbz	x23, 0x13cf0 <bpf_object__open_skeleton+0xc0>
   13cdc: 01 58 40 b9  	ldr	w1, [x0, #88]
   13ce0: 3f 10 00 71  	cmp	w1, #4
   13ce4: 60 00 00 54  	b.eq	0x13cf0 <bpf_object__open_skeleton+0xc0>
   13ce8: 00 30 40 f9  	ldr	x0, [x0, #96]
   13cec: e0 02 00 f9  	str	x0, [x23]
   13cf0: 60 2a 40 b9  	ldr	w0, [x19, #40]
   13cf4: b5 06 00 11  	add	w21, w21, #1
   13cf8: 94 62 00 91  	add	x20, x20, #24
   13cfc: 1f 00 15 6b  	cmp	w0, w21
   13d00: 6d 07 00 54  	b.le	0x13dec <bpf_object__open_skeleton+0x1bc>
   13d04: 61 1a 40 f9  	ldr	x1, [x19, #48]
   13d08: e0 03 16 aa  	mov	x0, x22
   13d0c: 23 00 14 8b  	add	x3, x1, x20
   13d10: 38 68 74 f8  	ldr	x24, [x1, x20]
   13d14: 79 dc 40 a9  	ldp	x25, x23, [x3, #8]
   13d18: e1 03 18 aa  	mov	x1, x24
   13d1c: 00 00 00 94  	bl	0x13d1c <bpf_object__open_skeleton+0xec>
   13d20: 20 03 00 f9  	str	x0, [x25]
   13d24: a0 fd ff b5  	cbnz	x0, 0x13cd8 <bpf_object__open_skeleton+0xa8>
   13d28: e2 03 18 aa  	mov	x2, x24
   13d2c: 01 00 00 90  	adrp	x1, 0x13000 <bpf_object__open_skeleton+0xfc>
   13d30: 21 00 00 91  	add	x1, x1, #0
   13d34: 00 00 00 94  	bl	0x13d34 <bpf_object__open_skeleton+0x104>
   13d38: 53 00 80 12  	mov	w19, #-3
   13d3c: 00 00 00 94  	bl	0x13d3c <bpf_object__open_skeleton+0x10c>
   13d40: 61 00 80 52  	mov	w1, #3
   13d44: f9 23 40 f9  	ldr	x25, [sp, #64]
   13d48: 01 00 00 b9  	str	w1, [x0]
   13d4c: 00 00 00 90  	adrp	x0, 0x13000 <bpf_object__open_skeleton+0x11c>
   13d50: 00 00 40 f9  	ldr	x0, [x0]
   13d54: e2 67 40 f9  	ldr	x2, [sp, #200]
   13d58: 01 00 40 f9  	ldr	x1, [x0]
   13d5c: 42 00 01 eb  	subs	x2, x2, x1
   13d60: 01 00 80 d2  	mov	x1, #0
   13d64: 21 09 00 54  	b.ne	0x13e88 <bpf_object__open_skeleton+0x258>
   13d68: e0 03 13 2a  	mov	w0, w19
   13d6c: f3 53 41 a9  	ldp	x19, x20, [sp, #16]
   13d70: f5 5b 42 a9  	ldp	x21, x22, [sp, #32]
   13d74: f7 63 43 a9  	ldp	x23, x24, [sp, #48]
   13d78: fd 7b cd a8  	ldp	x29, x30, [sp], #208
   13d7c: c0 03 5f d6  	ret
   13d80: e0 43 02 91  	add	x0, sp, #144
   13d84: e2 63 01 91  	add	x2, sp, #88
   13d88: 00 08 c0 3d  	ldr	q0, [x0, #32]
   13d8c: 01 08 40 ad  	ldp	q1, q2, [x0]
   13d90: 00 00 80 d2  	mov	x0, #0
   13d94: 40 18 00 f9  	str	x0, [x2, #48]
   13d98: 60 06 41 a9  	ldp	x0, x1, [x19, #16]
   13d9c: 41 08 00 ad  	stp	q1, q2, [x2]
   13da0: 40 08 80 3d  	str	q0, [x2, #32]
   13da4: 00 00 00 94  	bl	0x13da4 <bpf_object__open_skeleton+0x174>
   13da8: f6 03 00 aa  	mov	x22, x0
   13dac: 00 f8 ff b5  	cbnz	x0, 0x13cac <bpf_object__open_skeleton+0x7c>
   13db0: 00 00 00 94  	bl	0x13db0 <bpf_object__open_skeleton+0x180>
   13db4: 14 00 40 b9  	ldr	w20, [x0]
   13db8: f5 03 00 aa  	mov	x21, x0
   13dbc: d4 f7 ff 34  	cbz	w20, 0x13cb4 <bpf_object__open_skeleton+0x84>
   13dc0: 62 06 40 f9  	ldr	x2, [x19, #8]
   13dc4: f3 03 14 4b  	neg	w19, w20
   13dc8: 01 00 00 90  	adrp	x1, 0x13000 <bpf_object__open_skeleton+0x198>
   13dcc: e3 03 13 2a  	mov	w3, w19
   13dd0: 21 00 00 91  	add	x1, x1, #0
   13dd4: 00 00 80 52  	mov	w0, #0
   13dd8: 00 00 00 94  	bl	0x13dd8 <bpf_object__open_skeleton+0x1a8>
   13ddc: 9f 02 00 71  	cmp	w20, #0
   13de0: 6d fb ff 54  	b.le	0x13d4c <bpf_object__open_skeleton+0x11c>
   13de4: b4 02 00 b9  	str	w20, [x21]
   13de8: d9 ff ff 17  	b	0x13d4c <bpf_object__open_skeleton+0x11c>
   13dec: f9 23 40 f9  	ldr	x25, [sp, #64]
   13df0: 14 00 80 d2  	mov	x20, #0
   13df4: 60 3a 40 b9  	ldr	w0, [x19, #56]
   13df8: 15 00 80 52  	mov	w21, #0
   13dfc: 1f 00 00 71  	cmp	w0, #0
   13e00: ec 00 00 54  	b.gt	0x13e1c <bpf_object__open_skeleton+0x1ec>
   13e04: 18 00 00 14  	b	0x13e64 <bpf_object__open_skeleton+0x234>
   13e08: 60 3a 40 b9  	ldr	w0, [x19, #56]
   13e0c: b5 06 00 11  	add	w21, w21, #1
   13e10: 94 62 00 91  	add	x20, x20, #24
   13e14: 1f 00 15 6b  	cmp	w0, w21
   13e18: 6d 02 00 54  	b.le	0x13e64 <bpf_object__open_skeleton+0x234>
   13e1c: 61 22 40 f9  	ldr	x1, [x19, #64]
   13e20: e0 03 16 aa  	mov	x0, x22
   13e24: 22 00 14 8b  	add	x2, x1, x20
   13e28: 37 68 74 f8  	ldr	x23, [x1, x20]
   13e2c: 58 04 40 f9  	ldr	x24, [x2, #8]
   13e30: e1 03 17 aa  	mov	x1, x23
   13e34: 00 00 00 94  	bl	0x13e34 <bpf_object__open_skeleton+0x204>
   13e38: 00 03 00 f9  	str	x0, [x24]
   13e3c: 60 fe ff b5  	cbnz	x0, 0x13e08 <bpf_object__open_skeleton+0x1d8>
   13e40: e2 03 17 aa  	mov	x2, x23
   13e44: 01 00 00 90  	adrp	x1, 0x13000 <bpf_object__open_skeleton+0x214>
   13e48: 21 00 00 91  	add	x1, x1, #0
   13e4c: 00 00 00 94  	bl	0x13e4c <bpf_object__open_skeleton+0x21c>
   13e50: 53 00 80 12  	mov	w19, #-3
   13e54: 00 00 00 94  	bl	0x13e54 <bpf_object__open_skeleton+0x224>
   13e58: 61 00 80 52  	mov	w1, #3
   13e5c: 01 00 00 b9  	str	w1, [x0]
   13e60: bb ff ff 17  	b	0x13d4c <bpf_object__open_skeleton+0x11c>
   13e64: 13 00 80 52  	mov	w19, #0
   13e68: b9 ff ff 17  	b	0x13d4c <bpf_object__open_skeleton+0x11c>
   13e6c: e0 33 00 f9  	str	x0, [sp, #96]
   13e70: 8b ff ff 17  	b	0x13c9c <bpf_object__open_skeleton+0x6c>
   13e74: 00 00 00 94  	bl	0x13e74 <bpf_object__open_skeleton+0x244>
   13e78: f4 03 16 4b  	neg	w20, w22
   13e7c: f5 03 00 aa  	mov	x21, x0
   13e80: 14 00 00 b9  	str	w20, [x0]
   13e84: ce ff ff 17  	b	0x13dbc <bpf_object__open_skeleton+0x18c>
   13e88: f9 23 00 f9  	str	x25, [sp, #64]
   13e8c: 00 00 00 94  	bl	0x13e8c <bpf_object__open_skeleton+0x25c>

0000000000013e90 <bpf_object__load_skeleton>:
   13e90: fd 7b b9 a9  	stp	x29, x30, [sp, #-112]!
   13e94: 01 00 00 90  	adrp	x1, 0x13000 <bpf_object__load_skeleton+0x4>
   13e98: fd 03 00 91  	mov	x29, sp
   13e9c: f9 6b 04 a9  	stp	x25, x26, [sp, #64]
   13ea0: f9 03 00 aa  	mov	x25, x0
   13ea4: e0 43 01 91  	add	x0, sp, #80
   13ea8: 21 00 40 f9  	ldr	x1, [x1]
   13eac: f5 5b 02 a9  	stp	x21, x22, [sp, #32]
   13eb0: 22 13 40 f9  	ldr	x2, [x25, #32]
   13eb4: 23 00 40 f9  	ldr	x3, [x1]
   13eb8: e3 37 00 f9  	str	x3, [sp, #104]
   13ebc: 03 00 80 d2  	mov	x3, #0
   13ec0: 41 00 40 f9  	ldr	x1, [x2]
   13ec4: e1 2b 00 f9  	str	x1, [sp, #80]
   13ec8: ff ff 05 a9  	stp	xzr, xzr, [sp, #88]
   13ecc: 00 00 00 94  	bl	0x13ecc <bpf_object__load_skeleton+0x3c>
   13ed0: f5 03 00 2a  	mov	w21, w0
   13ed4: 80 0a 00 35  	cbnz	w0, 0x14024 <bpf_object__load_skeleton+0x194>
   13ed8: 20 2b 40 b9  	ldr	w0, [x25, #40]
   13edc: 76 00 80 52  	mov	w22, #3
   13ee0: f3 53 01 a9  	stp	x19, x20, [sp, #16]
   13ee4: 14 00 80 52  	mov	w20, #0
   13ee8: f7 63 03 a9  	stp	x23, x24, [sp, #48]
   13eec: 18 00 80 d2  	mov	x24, #0
   13ef0: 37 00 80 52  	mov	w23, #1
   13ef4: 1f 00 00 71  	cmp	w0, #0
   13ef8: cc 02 00 54  	b.gt	0x13f50 <bpf_object__load_skeleton+0xc0>
   13efc: 2b 00 00 14  	b	0x13fa8 <bpf_object__load_skeleton+0x118>
   13f00: 46 1c 00 11  	add	w6, w2, #7
   13f04: 22 04 00 d1  	sub	x2, x1, #1
   13f08: c6 70 1d 12  	and	w6, w6, #0xfffffff8
   13f0c: 1f 00 79 f2  	tst	x0, #0x80
   13f10: 60 32 40 f9  	ldr	x0, [x19, #96]
   13f14: 23 02 80 52  	mov	w3, #17
   13f18: c6 08 a5 9b  	umaddl	x6, w6, w5, x2
   13f1c: e2 12 96 1a  	csel	w2, w23, w22, ne
   13f20: 05 00 80 d2  	mov	x5, #0
   13f24: c6 08 c1 9a  	udiv	x6, x6, x1
   13f28: c1 7c 01 9b  	mul	x1, x6, x1
   13f2c: 00 00 00 94  	bl	0x13f2c <bpf_object__load_skeleton+0x9c>
   13f30: 40 03 00 f9  	str	x0, [x26]
   13f34: 1f 04 00 b1  	cmn	x0, #1
   13f38: 40 05 00 54  	b.eq	0x13fe0 <bpf_object__load_skeleton+0x150>
   13f3c: 20 2b 40 b9  	ldr	w0, [x25, #40]
   13f40: 94 06 00 11  	add	w20, w20, #1
   13f44: 18 63 00 91  	add	x24, x24, #24
   13f48: 1f 00 14 6b  	cmp	w0, w20
   13f4c: ed 02 00 54  	b.le	0x13fa8 <bpf_object__load_skeleton+0x118>
   13f50: 21 1b 40 f9  	ldr	x1, [x25, #48]
   13f54: c0 03 80 52  	mov	w0, #30
   13f58: 21 00 18 8b  	add	x1, x1, x24
   13f5c: 21 04 40 f9  	ldr	x1, [x1, #8]
   13f60: 33 00 40 f9  	ldr	x19, [x1]
   13f64: 00 00 00 94  	bl	0x13f64 <bpf_object__load_skeleton+0xd4>
   13f68: 22 1b 40 f9  	ldr	x2, [x25, #48]
   13f6c: e1 03 00 aa  	mov	x1, x0
   13f70: 64 0a 40 b9  	ldr	w4, [x19, #8]
   13f74: 43 00 18 8b  	add	x3, x2, x24
   13f78: 65 2e 40 b9  	ldr	w5, [x19, #44]
   13f7c: 62 2a 40 b9  	ldr	w2, [x19, #40]
   13f80: 7a 08 40 f9  	ldr	x26, [x3, #16]
   13f84: da fd ff b4  	cbz	x26, 0x13f3c <bpf_object__load_skeleton+0xac>
   13f88: 60 32 40 b9  	ldr	w0, [x19, #48]
   13f8c: a0 fb 57 37  	tbnz	w0, #10, 0x13f00 <bpf_object__load_skeleton+0x70>
   13f90: 20 2b 40 b9  	ldr	w0, [x25, #40]
   13f94: 94 06 00 11  	add	w20, w20, #1
   13f98: 5f 03 00 f9  	str	xzr, [x26]
   13f9c: 18 63 00 91  	add	x24, x24, #24
   13fa0: 1f 00 14 6b  	cmp	w0, w20
   13fa4: 6c fd ff 54  	b.gt	0x13f50 <bpf_object__load_skeleton+0xc0>
   13fa8: f3 53 41 a9  	ldp	x19, x20, [sp, #16]
   13fac: f7 63 43 a9  	ldp	x23, x24, [sp, #48]
   13fb0: 00 00 00 90  	adrp	x0, 0x13000 <bpf_object__load_skeleton+0x120>
   13fb4: 00 00 40 f9  	ldr	x0, [x0]
   13fb8: e2 37 40 f9  	ldr	x2, [sp, #104]
   13fbc: 01 00 40 f9  	ldr	x1, [x0]
   13fc0: 42 00 01 eb  	subs	x2, x2, x1
   13fc4: 01 00 80 d2  	mov	x1, #0
   13fc8: 41 04 00 54  	b.ne	0x14050 <bpf_object__load_skeleton+0x1c0>
   13fcc: e0 03 15 2a  	mov	w0, w21
   13fd0: f5 5b 42 a9  	ldp	x21, x22, [sp, #32]
   13fd4: f9 6b 44 a9  	ldp	x25, x26, [sp, #64]
   13fd8: fd 7b c7 a8  	ldp	x29, x30, [sp], #112
   13fdc: c0 03 5f d6  	ret
   13fe0: 00 00 00 94  	bl	0x13fe0 <bpf_object__load_skeleton+0x150>
   13fe4: f4 03 00 aa  	mov	x20, x0
   13fe8: 01 00 00 90  	adrp	x1, 0x13000 <bpf_object__load_skeleton+0x158>
   13fec: 00 00 80 52  	mov	w0, #0
   13ff0: 21 00 00 91  	add	x1, x1, #0
   13ff4: 96 02 40 b9  	ldr	w22, [x20]
   13ff8: 5f 03 00 f9  	str	xzr, [x26]
   13ffc: f5 03 16 4b  	neg	w21, w22
   14000: 62 02 40 f9  	ldr	x2, [x19]
   14004: e3 03 15 2a  	mov	w3, w21
   14008: 00 00 00 94  	bl	0x14008 <bpf_object__load_skeleton+0x178>
   1400c: df 02 00 71  	cmp	w22, #0
   14010: cd fc ff 54  	b.le	0x13fa8 <bpf_object__load_skeleton+0x118>
   14014: f7 63 43 a9  	ldp	x23, x24, [sp, #48]
   14018: 96 02 00 b9  	str	w22, [x20]
   1401c: f3 53 41 a9  	ldp	x19, x20, [sp, #16]
   14020: e4 ff ff 17  	b	0x13fb0 <bpf_object__load_skeleton+0x120>
   14024: 22 07 40 f9  	ldr	x2, [x25, #8]
   14028: e3 03 00 2a  	mov	w3, w0
   1402c: 01 00 00 90  	adrp	x1, 0x14000 <bpf_object__load_skeleton+0x19c>
   14030: 00 00 80 52  	mov	w0, #0
   14034: 21 00 00 91  	add	x1, x1, #0
   14038: 00 00 00 94  	bl	0x14038 <bpf_object__load_skeleton+0x1a8>
   1403c: b5 fb ff 36  	tbz	w21, #31, 0x13fb0 <bpf_object__load_skeleton+0x120>
   14040: 00 00 00 94  	bl	0x14040 <bpf_object__load_skeleton+0x1b0>
   14044: e1 03 15 4b  	neg	w1, w21
   14048: 01 00 00 b9  	str	w1, [x0]
   1404c: d9 ff ff 17  	b	0x13fb0 <bpf_object__load_skeleton+0x120>
   14050: f3 53 01 a9  	stp	x19, x20, [sp, #16]
   14054: f7 63 03 a9  	stp	x23, x24, [sp, #48]
   14058: 00 00 00 94  	bl	0x14058 <bpf_object__load_skeleton+0x1c8>
   1405c: 1f 20 03 d5  	nop

0000000000014060 <bpf_object__attach_skeleton>:
   14060: fd 7b b9 a9  	stp	x29, x30, [sp, #-112]!
   14064: fd 03 00 91  	mov	x29, sp
   14068: f5 5b 02 a9  	stp	x21, x22, [sp, #32]
   1406c: 16 38 40 b9  	ldr	w22, [x0, #56]
   14070: f3 53 01 a9  	stp	x19, x20, [sp, #16]
   14074: df 02 00 71  	cmp	w22, #0
   14078: 0d 06 00 54  	b.le	0x14138 <bpf_object__attach_skeleton+0xd8>
   1407c: 14 00 00 90  	adrp	x20, 0x14000 <bpf_object__attach_skeleton+0x1c>
   14080: 94 02 00 91  	add	x20, x20, #0
   14084: f5 03 00 aa  	mov	x21, x0
   14088: f7 63 03 a9  	stp	x23, x24, [sp, #48]
   1408c: 17 00 00 90  	adrp	x23, 0x14000 <bpf_object__attach_skeleton+0x2c>
   14090: 18 00 80 52  	mov	w24, #0
   14094: e0 02 00 91  	add	x0, x23, #0
   14098: f9 6b 04 a9  	stp	x25, x26, [sp, #64]
   1409c: 1a 00 80 d2  	mov	x26, #0
   140a0: fb 73 05 a9  	stp	x27, x28, [sp, #80]
   140a4: e0 37 00 f9  	str	x0, [sp, #104]
   140a8: a1 22 40 f9  	ldr	x1, [x21, #64]
   140ac: 21 00 1a 8b  	add	x1, x1, x26
   140b0: 20 e4 40 a9  	ldp	x0, x25, [x1, #8]
   140b4: 1b 00 40 f9  	ldr	x27, [x0]
   140b8: 60 43 42 39  	ldrb	w0, [x27, #144]
   140bc: 00 03 00 34  	cbz	w0, 0x1411c <bpf_object__attach_skeleton+0xbc>
   140c0: 77 07 40 f9  	ldr	x23, [x27, #8]
   140c4: 9c a2 00 91  	add	x28, x20, #40
   140c8: e1 37 40 f9  	ldr	x1, [sp, #104]
   140cc: c2 00 80 d2  	mov	x2, #6
   140d0: 13 00 80 52  	mov	w19, #0
   140d4: e0 03 17 aa  	mov	x0, x23
   140d8: 00 00 00 94  	bl	0x140d8 <bpf_object__attach_skeleton+0x78>
   140dc: a0 03 00 35  	cbnz	w0, 0x14150 <bpf_object__attach_skeleton+0xf0>
   140e0: 61 7e 7e 93  	sbfiz	x1, x19, #2, #32
   140e4: 21 c0 33 8b  	add	x1, x1, w19, sxtw
   140e8: 81 0e 01 8b  	add	x1, x20, x1, lsl #3
   140ec: 22 10 40 f9  	ldr	x2, [x1, #32]
   140f0: 62 01 00 b4  	cbz	x2, 0x1411c <bpf_object__attach_skeleton+0xbc>
   140f4: 00 05 80 52  	mov	w0, #40
   140f8: e1 03 1b aa  	mov	x1, x27
   140fc: 60 52 20 9b  	smaddl	x0, w19, w0, x20
   14100: 40 00 3f d6  	blr	x2
   14104: 20 03 00 f9  	str	x0, [x25]
   14108: f3 03 00 aa  	mov	x19, x0
   1410c: e0 02 00 b4  	cbz	x0, 0x14168 <bpf_object__attach_skeleton+0x108>
   14110: 1f 04 40 b1  	cmn	x0, #1, lsl #12         // =4096
   14114: 48 05 00 54  	b.hi	0x141bc <bpf_object__attach_skeleton+0x15c>
   14118: b6 3a 40 b9  	ldr	w22, [x21, #56]
   1411c: 18 07 00 11  	add	w24, w24, #1
   14120: 5a 63 00 91  	add	x26, x26, #24
   14124: df 02 18 6b  	cmp	w22, w24
   14128: 0c fc ff 54  	b.gt	0x140a8 <bpf_object__attach_skeleton+0x48>
   1412c: f7 63 43 a9  	ldp	x23, x24, [sp, #48]
   14130: f9 6b 44 a9  	ldp	x25, x26, [sp, #64]
   14134: fb 73 45 a9  	ldp	x27, x28, [sp, #80]
   14138: 14 00 80 52  	mov	w20, #0
   1413c: e0 03 14 2a  	mov	w0, w20
   14140: f3 53 41 a9  	ldp	x19, x20, [sp, #16]
   14144: f5 5b 42 a9  	ldp	x21, x22, [sp, #32]
   14148: fd 7b c7 a8  	ldp	x29, x30, [sp], #112
   1414c: c0 03 5f d6  	ret
   14150: 73 06 00 11  	add	w19, w19, #1
   14154: 7f 0a 01 71  	cmp	w19, #66
   14158: 20 fe ff 54  	b.eq	0x1411c <bpf_object__attach_skeleton+0xbc>
   1415c: 81 0b 40 a9  	ldp	x1, x2, [x28]
   14160: 9c a3 00 91  	add	x28, x28, #40
   14164: dc ff ff 17  	b	0x140d4 <bpf_object__attach_skeleton+0x74>
   14168: 00 00 00 94  	bl	0x14168 <bpf_object__attach_skeleton+0x108>
   1416c: 13 00 40 b9  	ldr	w19, [x0]
   14170: f6 03 00 aa  	mov	x22, x0
   14174: 33 fd ff 34  	cbz	w19, 0x14118 <bpf_object__attach_skeleton+0xb8>
   14178: 62 1b 40 f9  	ldr	x2, [x27, #48]
   1417c: f4 03 13 4b  	neg	w20, w19
   14180: 01 00 00 90  	adrp	x1, 0x14000 <bpf_object__attach_skeleton+0x120>
   14184: e3 03 14 2a  	mov	w3, w20
   14188: 21 00 00 91  	add	x1, x1, #0
   1418c: 00 00 80 52  	mov	w0, #0
   14190: 00 00 00 94  	bl	0x14190 <bpf_object__attach_skeleton+0x130>
   14194: 7f 02 00 71  	cmp	w19, #0
   14198: ec 01 00 54  	b.gt	0x141d4 <bpf_object__attach_skeleton+0x174>
   1419c: e0 03 14 2a  	mov	w0, w20
   141a0: f3 53 41 a9  	ldp	x19, x20, [sp, #16]
   141a4: f5 5b 42 a9  	ldp	x21, x22, [sp, #32]
   141a8: f7 63 43 a9  	ldp	x23, x24, [sp, #48]
   141ac: f9 6b 44 a9  	ldp	x25, x26, [sp, #64]
   141b0: fb 73 45 a9  	ldp	x27, x28, [sp, #80]
   141b4: fd 7b c7 a8  	ldp	x29, x30, [sp], #112
   141b8: c0 03 5f d6  	ret
   141bc: 00 00 00 94  	bl	0x141bc <bpf_object__attach_skeleton+0x15c>
   141c0: f3 03 13 4b  	neg	w19, w19
   141c4: 13 00 00 b9  	str	w19, [x0]
   141c8: f6 03 00 aa  	mov	x22, x0
   141cc: 73 fa ff 34  	cbz	w19, 0x14118 <bpf_object__attach_skeleton+0xb8>
   141d0: ea ff ff 17  	b	0x14178 <bpf_object__attach_skeleton+0x118>
   141d4: f7 63 43 a9  	ldp	x23, x24, [sp, #48]
   141d8: e0 03 14 2a  	mov	w0, w20
   141dc: f9 6b 44 a9  	ldp	x25, x26, [sp, #64]
   141e0: fb 73 45 a9  	ldp	x27, x28, [sp, #80]
   141e4: d3 02 00 b9  	str	w19, [x22]
   141e8: f3 53 41 a9  	ldp	x19, x20, [sp, #16]
   141ec: f5 5b 42 a9  	ldp	x21, x22, [sp, #32]
   141f0: fd 7b c7 a8  	ldp	x29, x30, [sp], #112
   141f4: c0 03 5f d6  	ret
   141f8: 1f 20 03 d5  	nop
   141fc: 1f 20 03 d5  	nop

0000000000014200 <bpf_object__detach_skeleton>:
   14200: 02 38 40 b9  	ldr	w2, [x0, #56]
   14204: 5f 00 00 71  	cmp	w2, #0
   14208: 6d 03 00 54  	b.le	0x14274 <bpf_object__detach_skeleton+0x74>
   1420c: fd 7b bd a9  	stp	x29, x30, [sp, #-48]!
   14210: fd 03 00 91  	mov	x29, sp
   14214: f5 5b 02 a9  	stp	x21, x22, [sp, #32]
   14218: f6 03 00 aa  	mov	x22, x0
   1421c: f3 53 01 a9  	stp	x19, x20, [sp, #16]
   14220: 14 00 80 d2  	mov	x20, #0
   14224: 13 00 80 52  	mov	w19, #0
   14228: c1 22 40 f9  	ldr	x1, [x22, #64]
   1422c: 21 00 14 8b  	add	x1, x1, x20
   14230: 35 08 40 f9  	ldr	x21, [x1, #16]
   14234: a1 02 40 f9  	ldr	x1, [x21]
   14238: e0 03 01 aa  	mov	x0, x1
   1423c: a1 00 00 b4  	cbz	x1, 0x14250 <bpf_object__detach_skeleton+0x50>
   14240: 3f 04 40 b1  	cmn	x1, #1, lsl #12         // =4096
   14244: 68 00 00 54  	b.hi	0x14250 <bpf_object__detach_skeleton+0x50>
   14248: 1e b4 ff 97  	bl	0x12c0 <bpf_link__destroy.part.0>
   1424c: c2 3a 40 b9  	ldr	w2, [x22, #56]
   14250: 73 06 00 11  	add	w19, w19, #1
   14254: bf 02 00 f9  	str	xzr, [x21]
   14258: 94 62 00 91  	add	x20, x20, #24
   1425c: 5f 00 13 6b  	cmp	w2, w19
   14260: 4c fe ff 54  	b.gt	0x14228 <bpf_object__detach_skeleton+0x28>
   14264: f3 53 41 a9  	ldp	x19, x20, [sp, #16]
   14268: f5 5b 42 a9  	ldp	x21, x22, [sp, #32]
   1426c: fd 7b c3 a8  	ldp	x29, x30, [sp], #48
   14270: c0 03 5f d6  	ret
   14274: c0 03 5f d6  	ret
   14278: 1f 20 03 d5  	nop
   1427c: 1f 20 03 d5  	nop

0000000000014280 <bpf_object__destroy_skeleton>:
   14280: fd 7b be a9  	stp	x29, x30, [sp, #-32]!
   14284: fd 03 00 91  	mov	x29, sp
   14288: 01 20 40 f9  	ldr	x1, [x0, #64]
   1428c: f3 0b 00 f9  	str	x19, [sp, #16]
   14290: f3 03 00 aa  	mov	x19, x0
   14294: 41 00 00 b4  	cbz	x1, 0x1429c <bpf_object__destroy_skeleton+0x1c>
   14298: 00 00 00 94  	bl	0x14298 <bpf_object__destroy_skeleton+0x18>
   1429c: 60 12 40 f9  	ldr	x0, [x19, #32]
   142a0: c0 00 00 b4  	cbz	x0, 0x142b8 <bpf_object__destroy_skeleton+0x38>
   142a4: 00 00 40 f9  	ldr	x0, [x0]
   142a8: 80 00 00 b4  	cbz	x0, 0x142b8 <bpf_object__destroy_skeleton+0x38>
   142ac: 1f 04 40 b1  	cmn	x0, #1, lsl #12         // =4096
   142b0: 48 00 00 54  	b.hi	0x142b8 <bpf_object__destroy_skeleton+0x38>
   142b4: 13 ca ff 97  	bl	0x6b00 <bpf_object__close.part.0>
   142b8: 60 1a 40 f9  	ldr	x0, [x19, #48]
   142bc: 00 00 00 94  	bl	0x142bc <bpf_object__destroy_skeleton+0x3c>
   142c0: 60 22 40 f9  	ldr	x0, [x19, #64]
   142c4: 00 00 00 94  	bl	0x142c4 <bpf_object__destroy_skeleton+0x44>
   142c8: e0 03 13 aa  	mov	x0, x19
   142cc: f3 0b 40 f9  	ldr	x19, [sp, #16]
   142d0: fd 7b c2 a8  	ldp	x29, x30, [sp], #32
   142d4: 00 00 00 14  	b	0x142d4 <bpf_object__destroy_skeleton+0x54>
